TN:
SF:/usr/include/c++/4.8.2/bits/alloc_traits.h
FN:253,_ZNSt16allocator_traitsISaISt4pairImmEEE12_S_constructIS1_IS1_EEENSt9enable_ifIXsrNS3_18__construct_helperIT_IDpT0_EEE5valueEvE4typeERS2_PS7_DpOS8_
FN:253,_ZNSt16allocator_traitsISaISt13_Rb_tree_nodeISt4pairIKPKvN7testing12_GLOBAL__N_115MockObjectStateEEEEE12_S_constructIS9_IRKSt21piecewise_construct_tSt5tupleIIRS4_EESG_IIEEEEENSt9enable_ifIXsrNSB_18__construct_helperIT_IDpT0_EEE5valueEvE4typeERSA_PSM_DpOSN_
FN:253,_ZNSt16allocator_traitsISaISt13_Rb_tree_nodeISt4pairIKPKvN7testing8internal12CallReactionEEEEE12_S_constructIS9_IRKSt21piecewise_construct_tSt5tupleIIRS4_EESG_IIEEEEENSt9enable_ifIXsrNSB_18__construct_helperIT_IDpT0_EEE5valueEvE4typeERSA_PSM_DpOSN_
FN:253,_ZNSt16allocator_traitsISaISt13_Rb_tree_nodeIN7testing11ExpectationEEEE12_S_constructIS3_IRKS2_EEENSt9enable_ifIXsrNS5_18__construct_helperIT_IDpT0_EEE5valueEvE4typeERS4_PSB_DpOSC_
FN:253,_ZNSt16allocator_traitsISaISt13_Rb_tree_nodeIPN7testing8internal25UntypedFunctionMockerBaseEEEE12_S_constructIS5_IRKS4_EEENSt9enable_ifIXsrNS7_18__construct_helperIT_IDpT0_EEE5valueEvE4typeERS6_PSD_DpOSE_
FN:253,_ZNSt16allocator_traitsISaISt13_Rb_tree_nodeISt4pairIKPKvN7testing12_GLOBAL__N_115MockObjectStateEEEEE12_S_constructIS9_IRKSt21piecewise_construct_tSt5tupleIIOS3_EESG_IIEEEEENSt9enable_ifIXsrNSB_18__construct_helperIT_IDpT0_EEE5valueEvE4typeERSA_PSM_DpOSN_
FN:280,_ZNSt16allocator_traitsISaISt4pairImmEEE10_S_destroyIS1_EENSt9enable_ifIXsrNS3_16__destroy_helperIT_EE5valueEvE4typeERS2_PS7_
FN:305,_ZNSt16allocator_traitsISaISt4pairImmEEE11_S_max_sizeIKS2_EENSt9enable_ifIXsrNS3_16__maxsize_helperIT_EE5valueEmE4typeERS8_
FN:391,_ZNSt16allocator_traitsISaISt13_Rb_tree_nodeIN7testing11ExpectationEEEE9constructIS3_IRKS2_EEEDTcl12_S_constructfp_fp0_spcl7forwardIT0_Efp1_EEERS4_PT_DpOS9_
FN:391,_ZNSt16allocator_traitsISaISt13_Rb_tree_nodeISt4pairIKPKvN7testing12_GLOBAL__N_115MockObjectStateEEEEE9constructIS9_IRKSt21piecewise_construct_tSt5tupleIIRS4_EESG_IIEEEEEDTcl12_S_constructfp_fp0_spcl7forwardIT0_Efp1_EEERSA_PT_DpOSK_
FN:391,_ZNSt16allocator_traitsISaISt13_Rb_tree_nodeISt4pairIKPKvN7testing8internal12CallReactionEEEEE9constructIS9_IRKSt21piecewise_construct_tSt5tupleIIRS4_EESG_IIEEEEEDTcl12_S_constructfp_fp0_spcl7forwardIT0_Efp1_EEERSA_PT_DpOSK_
FN:391,_ZNSt16allocator_traitsISaISt13_Rb_tree_nodeISt4pairIKPKvN7testing12_GLOBAL__N_115MockObjectStateEEEEE9constructIS9_IRKSt21piecewise_construct_tSt5tupleIIOS3_EESG_IIEEEEEDTcl12_S_constructfp_fp0_spcl7forwardIT0_Efp1_EEERSA_PT_DpOSK_
FN:391,_ZNSt16allocator_traitsISaISt4pairImmEEE9constructIS1_IS1_EEEDTcl12_S_constructfp_fp0_spcl7forwardIT0_Efp1_EEERS2_PT_DpOS5_
FN:391,_ZNSt16allocator_traitsISaISt13_Rb_tree_nodeIPN7testing8internal25UntypedFunctionMockerBaseEEEE9constructIS5_IRKS4_EEEDTcl12_S_constructfp_fp0_spcl7forwardIT0_Efp1_EEERS6_PT_DpOSB_
FN:404,_ZNSt16allocator_traitsISaISt4pairImmEEE7destroyIS1_EEvRS2_PT_
FN:415,_ZNSt16allocator_traitsISaISt4pairImmEEE8max_sizeERKS2_
FN:501,_ZSt18__do_alloc_on_swapISaIcEEvRT_S2_St17integral_constantIbLb0EE
FN:501,_ZSt18__do_alloc_on_swapISaIN7testing8internal10linked_ptrINS1_15ExpectationBaseEEEEEvRT_S7_St17integral_constantIbLb0EE
FN:505,_ZSt15__alloc_on_swapISaIN7testing8internal10linked_ptrINS1_15ExpectationBaseEEEEEvRT_S7_
FN:505,_ZSt15__alloc_on_swapISaIcEEvRT_S2_
FNDA:0,_ZNSt16allocator_traitsISaISt13_Rb_tree_nodeIPN7testing8internal25UntypedFunctionMockerBaseEEEE12_S_constructIS5_IRKS4_EEENSt9enable_ifIXsrNS7_18__construct_helperIT_IDpT0_EEE5valueEvE4typeERS6_PSD_DpOSE_
FNDA:0,_ZNSt16allocator_traitsISaISt13_Rb_tree_nodeIN7testing11ExpectationEEEE12_S_constructIS3_IRKS2_EEENSt9enable_ifIXsrNS5_18__construct_helperIT_IDpT0_EEE5valueEvE4typeERS4_PSB_DpOSC_
FNDA:0,_ZNSt16allocator_traitsISaISt13_Rb_tree_nodeISt4pairIKPKvN7testing12_GLOBAL__N_115MockObjectStateEEEEE12_S_constructIS9_IRKSt21piecewise_construct_tSt5tupleIIOS3_EESG_IIEEEEENSt9enable_ifIXsrNSB_18__construct_helperIT_IDpT0_EEE5valueEvE4typeERSA_PSM_DpOSN_
FNDA:0,_ZNSt16allocator_traitsISaISt13_Rb_tree_nodeISt4pairIKPKvN7testing12_GLOBAL__N_115MockObjectStateEEEEE12_S_constructIS9_IRKSt21piecewise_construct_tSt5tupleIIRS4_EESG_IIEEEEENSt9enable_ifIXsrNSB_18__construct_helperIT_IDpT0_EEE5valueEvE4typeERSA_PSM_DpOSN_
FNDA:0,_ZNSt16allocator_traitsISaISt13_Rb_tree_nodeISt4pairIKPKvN7testing8internal12CallReactionEEEEE12_S_constructIS9_IRKSt21piecewise_construct_tSt5tupleIIRS4_EESG_IIEEEEENSt9enable_ifIXsrNSB_18__construct_helperIT_IDpT0_EEE5valueEvE4typeERSA_PSM_DpOSN_
FNDA:0,_ZNSt16allocator_traitsISaISt4pairImmEEE12_S_constructIS1_IS1_EEENSt9enable_ifIXsrNS3_18__construct_helperIT_IDpT0_EEE5valueEvE4typeERS2_PS7_DpOS8_
FNDA:0,_ZNSt16allocator_traitsISaISt4pairImmEEE10_S_destroyIS1_EENSt9enable_ifIXsrNS3_16__destroy_helperIT_EE5valueEvE4typeERS2_PS7_
FNDA:0,_ZNSt16allocator_traitsISaISt4pairImmEEE11_S_max_sizeIKS2_EENSt9enable_ifIXsrNS3_16__maxsize_helperIT_EE5valueEmE4typeERS8_
FNDA:0,_ZNSt16allocator_traitsISaISt13_Rb_tree_nodeIPN7testing8internal25UntypedFunctionMockerBaseEEEE9constructIS5_IRKS4_EEEDTcl12_S_constructfp_fp0_spcl7forwardIT0_Efp1_EEERS6_PT_DpOSB_
FNDA:0,_ZNSt16allocator_traitsISaISt13_Rb_tree_nodeIN7testing11ExpectationEEEE9constructIS3_IRKS2_EEEDTcl12_S_constructfp_fp0_spcl7forwardIT0_Efp1_EEERS4_PT_DpOS9_
FNDA:0,_ZNSt16allocator_traitsISaISt13_Rb_tree_nodeISt4pairIKPKvN7testing12_GLOBAL__N_115MockObjectStateEEEEE9constructIS9_IRKSt21piecewise_construct_tSt5tupleIIOS3_EESG_IIEEEEEDTcl12_S_constructfp_fp0_spcl7forwardIT0_Efp1_EEERSA_PT_DpOSK_
FNDA:0,_ZNSt16allocator_traitsISaISt13_Rb_tree_nodeISt4pairIKPKvN7testing12_GLOBAL__N_115MockObjectStateEEEEE9constructIS9_IRKSt21piecewise_construct_tSt5tupleIIRS4_EESG_IIEEEEEDTcl12_S_constructfp_fp0_spcl7forwardIT0_Efp1_EEERSA_PT_DpOSK_
FNDA:0,_ZNSt16allocator_traitsISaISt13_Rb_tree_nodeISt4pairIKPKvN7testing8internal12CallReactionEEEEE9constructIS9_IRKSt21piecewise_construct_tSt5tupleIIRS4_EESG_IIEEEEEDTcl12_S_constructfp_fp0_spcl7forwardIT0_Efp1_EEERSA_PT_DpOSK_
FNDA:0,_ZNSt16allocator_traitsISaISt4pairImmEEE9constructIS1_IS1_EEEDTcl12_S_constructfp_fp0_spcl7forwardIT0_Efp1_EEERS2_PT_DpOS5_
FNDA:0,_ZNSt16allocator_traitsISaISt4pairImmEEE7destroyIS1_EEvRS2_PT_
FNDA:0,_ZNSt16allocator_traitsISaISt4pairImmEEE8max_sizeERKS2_
FNDA:0,_ZSt18__do_alloc_on_swapISaIcEEvRT_S2_St17integral_constantIbLb0EE
FNDA:0,_ZSt18__do_alloc_on_swapISaIN7testing8internal10linked_ptrINS1_15ExpectationBaseEEEEEvRT_S7_St17integral_constantIbLb0EE
FNDA:0,_ZSt15__alloc_on_swapISaIcEEvRT_S2_
FNDA:0,_ZSt15__alloc_on_swapISaIN7testing8internal10linked_ptrINS1_15ExpectationBaseEEEEEvRT_S7_
FNF:20
FNH:0
DA:253,0
DA:254,0
DA:280,0
DA:281,0
DA:305,0
DA:306,0
DA:391,0
DA:393,0
DA:404,0
DA:405,0
DA:415,0
DA:416,0
DA:501,0
DA:502,0
DA:505,0
DA:509,0
DA:510,0
LF:17
LH:0
end_of_record
SF:/usr/include/c++/4.8.2/bits/allocator.h
FN:113,_ZNSaIN7testing8internal10linked_ptrINS0_15ExpectationBaseEEEEC2Ev
FN:113,_ZNSaISt13_Rb_tree_nodeIPN7testing8internal25UntypedFunctionMockerBaseEEEC2Ev
FN:113,_ZNSaISt4pairImmEEC2Ev
FN:113,_ZNSaISt13_Rb_tree_nodeISt4pairIKPKvN7testing12_GLOBAL__N_115MockObjectStateEEEEC2Ev
FN:113,_ZNSaIPKvEC2Ev
FN:113,_ZNSaImEC2Ev
FN:113,_ZNSaISt13_Rb_tree_nodeISt4pairIKPKvN7testing8internal12CallReactionEEEEC2Ev
FN:113,_ZNSaISt13_Rb_tree_nodeIN7testing11ExpectationEEEC2Ev
FN:115,_ZNSaImEC2ERKS_
FN:121,_ZNSaIN7testing8internal10linked_ptrINS0_15ExpectationBaseEEEED2Ev
FN:121,_ZNSaISt13_Rb_tree_nodeIN7testing11ExpectationEEED2Ev
FN:121,_ZNSaISt13_Rb_tree_nodeISt4pairIKPKvN7testing12_GLOBAL__N_115MockObjectStateEEEED2Ev
FN:121,_ZNSaISt13_Rb_tree_nodeISt4pairIKPKvN7testing8internal12CallReactionEEEED2Ev
FN:121,_ZNSaISt13_Rb_tree_nodeIPN7testing8internal25UntypedFunctionMockerBaseEEED2Ev
FN:121,_ZNSaISt4pairImmEED2Ev
FN:121,_ZNSaIPKvED2Ev
FN:121,_ZNSaImED2Ev
FN:133,_ZSteqIcEbRKSaIT_ES3_
FNDA:1,_ZNSaISt13_Rb_tree_nodeISt4pairIKPKvN7testing8internal12CallReactionEEEEC2Ev
FNDA:1,_ZNSaISt13_Rb_tree_nodeISt4pairIKPKvN7testing12_GLOBAL__N_115MockObjectStateEEEEC2Ev
FNDA:0,_ZNSaISt13_Rb_tree_nodeIPN7testing8internal25UntypedFunctionMockerBaseEEEC2Ev
FNDA:0,_ZNSaIN7testing8internal10linked_ptrINS0_15ExpectationBaseEEEEC2Ev
FNDA:0,_ZNSaIPKvEC2Ev
FNDA:0,_ZNSaISt4pairImmEEC2Ev
FNDA:0,_ZNSaISt13_Rb_tree_nodeIN7testing11ExpectationEEEC2Ev
FNDA:0,_ZNSaImEC2Ev
FNDA:0,_ZNSaImEC2ERKS_
FNDA:1,_ZNSaISt13_Rb_tree_nodeISt4pairIKPKvN7testing8internal12CallReactionEEEED2Ev
FNDA:0,_ZNSaIN7testing8internal10linked_ptrINS0_15ExpectationBaseEEEED2Ev
FNDA:0,_ZNSaIPKvED2Ev
FNDA:0,_ZNSaISt4pairImmEED2Ev
FNDA:1,_ZNSaISt13_Rb_tree_nodeISt4pairIKPKvN7testing12_GLOBAL__N_115MockObjectStateEEEED2Ev
FNDA:0,_ZNSaISt13_Rb_tree_nodeIPN7testing8internal25UntypedFunctionMockerBaseEEED2Ev
FNDA:0,_ZNSaISt13_Rb_tree_nodeIN7testing11ExpectationEEED2Ev
FNDA:0,_ZNSaImED2Ev
FNDA:0,_ZSteqIcEbRKSaIT_ES3_
FNF:18
FNH:4
DA:113,2
DA:115,0
DA:116,0
DA:121,2
DA:133,0
DA:134,0
LF:6
LH:2
end_of_record
SF:/usr/include/c++/4.8.2/bits/basic_ios.h
FN:46,_ZSt13__check_facetISt5ctypeIcEERKT_PS3_
FNDA:0,_ZSt13__check_facetISt5ctypeIcEERKT_PS3_
FNF:1
FNH:0
DA:46,0
DA:48,0
DA:49,0
DA:50,0
LF:4
LH:0
end_of_record
SF:/usr/include/c++/4.8.2/bits/basic_string.h
FN:272,_ZNSs12_Alloc_hiderC2ERKS_
FN:272,_ZNSs12_Alloc_hiderD2Ev
FN:1721,_ZNSs16_S_construct_auxIPcEES0_T_S1_RKSaIcESt12__false_type
FN:1743,_ZNSs12_S_constructIPcEES0_T_S1_RKSaIcE
FN:2442,_ZStplIcSt11char_traitsIcESaIcEESbIT_T0_T1_EOS6_S7_
FN:2454,_ZStplIcSt11char_traitsIcESaIcEESbIT_T0_T1_EPKS3_OS6_
FN:2466,_ZStplIcSt11char_traitsIcESaIcEESbIT_T0_T1_EOS6_PKS3_
FN:2493,_ZSteqIcEN9__gnu_cxx11__enable_ifIXsrSt9__is_charIT_E7__valueEbE6__typeERKSbIS3_St11char_traitsIS3_ESaIS3_EESC_
FN:2519,_ZSteqIcSt11char_traitsIcESaIcEEbRKSbIT_T0_T1_EPKS3_
FN:2556,_ZStneIcSt11char_traitsIcESaIcEEbRKSbIT_T0_T1_EPKS3_
FNDA:0,_ZNSs12_Alloc_hiderC2ERKS_
FNDA:0,_ZNSs12_Alloc_hiderD2Ev
FNDA:0,_ZNSs16_S_construct_auxIPcEES0_T_S1_RKSaIcESt12__false_type
FNDA:0,_ZNSs12_S_constructIPcEES0_T_S1_RKSaIcE
FNDA:0,_ZStplIcSt11char_traitsIcESaIcEESbIT_T0_T1_EOS6_S7_
FNDA:0,_ZStplIcSt11char_traitsIcESaIcEESbIT_T0_T1_EPKS3_OS6_
FNDA:0,_ZStplIcSt11char_traitsIcESaIcEESbIT_T0_T1_EOS6_PKS3_
FNDA:0,_ZSteqIcEN9__gnu_cxx11__enable_ifIXsrSt9__is_charIT_E7__valueEbE6__typeERKSbIS3_St11char_traitsIS3_ESaIS3_EESC_
FNDA:0,_ZSteqIcSt11char_traitsIcESaIcEEbRKSbIT_T0_T1_EPKS3_
FNDA:0,_ZStneIcSt11char_traitsIcESaIcEEbRKSbIT_T0_T1_EPKS3_
FNF:10
FNH:0
DA:272,0
DA:1721,0
DA:1725,0
DA:1743,0
DA:1746,0
DA:2442,0
DA:2445,0
DA:2446,0
DA:2447,0
DA:2448,0
DA:2449,0
DA:2454,0
DA:2456,0
DA:2466,0
DA:2468,0
DA:2493,0
DA:2495,0
DA:2497,0
DA:2519,0
DA:2521,0
DA:2556,0
DA:2558,0
LF:22
LH:0
end_of_record
SF:/usr/include/c++/4.8.2/bits/basic_string.tcc
FN:123,_ZNSs12_S_constructIPcEES0_T_S1_RKSaIcESt20forward_iterator_tag
FN:227,_ZNSsC2IPcEET_S1_RKSaIcE
FN:692,_ZStplIcSt11char_traitsIcESaIcEESbIT_T0_T1_EPKS3_RKS6_
FNDA:0,_ZNSs12_S_constructIPcEES0_T_S1_RKSaIcESt20forward_iterator_tag
FNDA:0,_ZNSsC2IPcEET_S1_RKSaIcE
FNDA:0,_ZStplIcSt11char_traitsIcESaIcEESbIT_T0_T1_EPKS3_RKS6_
FNF:3
FNH:0
DA:123,0
DA:128,0
DA:129,0
DA:132,0
DA:133,0
DA:136,0
DA:138,0
DA:140,0
DA:141,0
DA:143,0
DA:144,0
DA:146,0
DA:147,0
DA:227,0
DA:229,0
DA:230,0
DA:692,0
DA:698,0
DA:699,0
DA:700,0
DA:701,0
DA:702,0
DA:703,0
LF:23
LH:0
end_of_record
SF:/usr/include/c++/4.8.2/bits/char_traits.h
FN:242,_ZNSt11char_traitsIcE6assignERcRKc
FN:254,_ZNSt11char_traitsIcE7compareEPKcS2_m
FN:258,_ZNSt11char_traitsIcE6lengthEPKc
FN:270,_ZNSt11char_traitsIcE4copyEPcPKcm
FNDA:0,_ZNSt11char_traitsIcE6assignERcRKc
FNDA:0,_ZNSt11char_traitsIcE7compareEPKcS2_m
FNDA:0,_ZNSt11char_traitsIcE6lengthEPKc
FNDA:0,_ZNSt11char_traitsIcE4copyEPcPKcm
FNF:4
FNH:0
DA:242,0
DA:243,0
DA:254,0
DA:255,0
DA:258,0
DA:259,0
DA:270,0
DA:271,0
LF:8
LH:0
end_of_record
SF:/usr/include/c++/4.8.2/bits/ios_base.h
FN:119,_ZStorSt13_Ios_OpenmodeS_
FN:157,_ZStorSt12_Ios_IostateS_
FNDA:0,_ZStorSt13_Ios_OpenmodeS_
FNDA:0,_ZStorSt12_Ios_IostateS_
FNF:2
FNH:0
DA:119,0
DA:120,0
DA:157,0
DA:158,0
LF:4
LH:0
end_of_record
SF:/usr/include/c++/4.8.2/bits/locale_facets.h
FN:865,_ZNKSt5ctypeIcE5widenEc
FNDA:0,_ZNKSt5ctypeIcE5widenEc
FNF:1
FNH:0
DA:865,0
DA:867,0
DA:868,0
DA:869,0
DA:870,0
LF:5
LH:0
end_of_record
SF:/usr/include/c++/4.8.2/bits/move.h
FN:47,_ZSt11__addressofISt4pairImmEEPT_RS2_
FN:47,_ZSt11__addressofIN7testing8internal10linked_ptrINS1_15ExpectationBaseEEEEPT_RS5_
FN:47,_ZSt11__addressofIKSt4pairIKPKvN7testing12_GLOBAL__N_115MockObjectStateEEEPT_RS9_
FN:47,_ZSt11__addressofIKN7testing11ExpectationEEPT_RS3_
FN:47,_ZSt11__addressofISt4pairIKPKvN7testing12_GLOBAL__N_115MockObjectStateEEEPT_RS8_
FN:76,_ZSt7forwardIRPSt13_Rb_tree_nodeIN7testing11ExpectationEEEOT_RNSt16remove_referenceIS6_E4typeE
FN:76,_ZSt7forwardIRKPKvEOT_RNSt16remove_referenceIS4_E4typeE
FN:76,_ZSt7forwardIRmEOT_RNSt16remove_referenceIS1_E4typeE
FN:76,_ZSt7forwardIOPKvEOT_RNSt16remove_referenceIS3_E4typeE
FN:76,_ZSt7forwardISt17_Rb_tree_iteratorIN7testing11ExpectationEEEOT_RNSt16remove_referenceIS4_E4typeE
FN:76,_ZSt7forwardIRbEOT_RNSt16remove_referenceIS1_E4typeE
FN:76,_ZSt7forwardIbEOT_RNSt16remove_referenceIS0_E4typeE
FN:76,_ZSt7forwardISt5tupleIIEEEOT_RNSt16remove_referenceIS2_E4typeE
FN:76,_ZSt7forwardIRSt17_Rb_tree_iteratorIN7testing11ExpectationEEEOT_RNSt16remove_referenceIS5_E4typeE
FN:76,_ZSt7forwardISt5tupleIIRKPKvEEEOT_RNSt16remove_referenceIS6_E4typeE
FN:76,_ZSt7forwardISt4pairImmEEOT_RNSt16remove_referenceIS2_E4typeE
FN:76,_ZSt7forwardIRPSt18_Rb_tree_node_baseEOT_RNSt16remove_referenceIS3_E4typeE
FN:76,_ZSt7forwardIRPSt13_Rb_tree_nodeIPN7testing8internal25UntypedFunctionMockerBaseEEEOT_RNSt16remove_referenceIS8_E4typeE
FN:76,_ZSt7forwardIRKSt21piecewise_construct_tEOT_RNSt16remove_referenceIS3_E4typeE
FN:76,_ZSt7forwardIPKvEOT_RNSt16remove_referenceIS2_E4typeE
FN:76,_ZSt7forwardIRKN7testing11ExpectationEEOT_RNSt16remove_referenceIS4_E4typeE
FN:76,_ZSt7forwardISt5tupleIIOPKvEEEOT_RNSt16remove_referenceIS5_E4typeE
FN:76,_ZSt7forwardIRKPN7testing8internal25UntypedFunctionMockerBaseEEOT_RNSt16remove_referenceIS6_E4typeE
FN:76,_ZSt7forwardIRSt17_Rb_tree_iteratorIPN7testing8internal25UntypedFunctionMockerBaseEEEOT_RNSt16remove_referenceIS7_E4typeE
FN:76,_ZSt7forwardIRPSt13_Rb_tree_nodeISt4pairIKPKvN7testing8internal12CallReactionEEEEOT_RNSt16remove_referenceISC_E4typeE
FN:76,_ZSt7forwardIRPSt13_Rb_tree_nodeISt4pairIKPKvN7testing12_GLOBAL__N_115MockObjectStateEEEEOT_RNSt16remove_referenceISC_E4typeE
FN:76,_ZSt7forwardISt17_Rb_tree_iteratorIPN7testing8internal25UntypedFunctionMockerBaseEEEOT_RNSt16remove_referenceIS6_E4typeE
FN:76,_ZSt7forwardISt17_Rb_tree_iteratorISt4pairIKPKvN7testing8internal12CallReactionEEEEOT_RNSt16remove_referenceISA_E4typeE
FN:101,_ZSt4moveIRSt4pairImmEEONSt16remove_referenceIT_E4typeEOS4_
FN:101,_ZSt4moveIRSsEONSt16remove_referenceIT_E4typeEOS2_
FN:101,_ZSt4moveIRPcEONSt16remove_referenceIT_E4typeEOS3_
FN:101,_ZSt4moveIRPN7testing8internal10linked_ptrINS1_15ExpectationBaseEEEEONSt16remove_referenceIT_E4typeEOS8_
FN:101,_ZSt4moveIRPKvEONSt16remove_referenceIT_E4typeEOS4_
FN:101,_ZSt4moveIRSt11_Tuple_implILm1EIEEEONSt16remove_referenceIT_E4typeEOS4_
FN:166,_ZSt4swapIPcEvRT_S2_
FN:166,_ZSt4swapIPN7testing8internal10linked_ptrINS1_15ExpectationBaseEEEEvRT_S7_
FNDA:0,_ZSt11__addressofISt4pairImmEEPT_RS2_
FNDA:0,_ZSt11__addressofIN7testing8internal10linked_ptrINS1_15ExpectationBaseEEEEPT_RS5_
FNDA:0,_ZSt11__addressofISt4pairIKPKvN7testing12_GLOBAL__N_115MockObjectStateEEEPT_RS8_
FNDA:0,_ZSt11__addressofIKSt4pairIKPKvN7testing12_GLOBAL__N_115MockObjectStateEEEPT_RS9_
FNDA:0,_ZSt11__addressofIKN7testing11ExpectationEEPT_RS3_
FNDA:0,_ZSt7forwardIRKPKvEOT_RNSt16remove_referenceIS4_E4typeE
FNDA:0,_ZSt7forwardIRPSt13_Rb_tree_nodeISt4pairIKPKvN7testing12_GLOBAL__N_115MockObjectStateEEEEOT_RNSt16remove_referenceISC_E4typeE
FNDA:0,_ZSt7forwardIRPSt13_Rb_tree_nodeISt4pairIKPKvN7testing8internal12CallReactionEEEEOT_RNSt16remove_referenceISC_E4typeE
FNDA:0,_ZSt7forwardIRPSt13_Rb_tree_nodeIPN7testing8internal25UntypedFunctionMockerBaseEEEOT_RNSt16remove_referenceIS8_E4typeE
FNDA:0,_ZSt7forwardISt17_Rb_tree_iteratorISt4pairIKPKvN7testing8internal12CallReactionEEEEOT_RNSt16remove_referenceISA_E4typeE
FNDA:0,_ZSt7forwardIRPSt13_Rb_tree_nodeIN7testing11ExpectationEEEOT_RNSt16remove_referenceIS6_E4typeE
FNDA:0,_ZSt7forwardIRPSt18_Rb_tree_node_baseEOT_RNSt16remove_referenceIS3_E4typeE
FNDA:0,_ZSt7forwardISt17_Rb_tree_iteratorIPN7testing8internal25UntypedFunctionMockerBaseEEEOT_RNSt16remove_referenceIS6_E4typeE
FNDA:0,_ZSt7forwardIRKPN7testing8internal25UntypedFunctionMockerBaseEEOT_RNSt16remove_referenceIS6_E4typeE
FNDA:0,_ZSt7forwardISt5tupleIIOPKvEEEOT_RNSt16remove_referenceIS5_E4typeE
FNDA:0,_ZSt7forwardIOPKvEOT_RNSt16remove_referenceIS3_E4typeE
FNDA:0,_ZSt7forwardIPKvEOT_RNSt16remove_referenceIS2_E4typeE
FNDA:0,_ZSt7forwardISt5tupleIIEEEOT_RNSt16remove_referenceIS2_E4typeE
FNDA:0,_ZSt7forwardISt5tupleIIRKPKvEEEOT_RNSt16remove_referenceIS6_E4typeE
FNDA:0,_ZSt7forwardIRKSt21piecewise_construct_tEOT_RNSt16remove_referenceIS3_E4typeE
FNDA:0,_ZSt7forwardISt4pairImmEEOT_RNSt16remove_referenceIS2_E4typeE
FNDA:0,_ZSt7forwardISt17_Rb_tree_iteratorIN7testing11ExpectationEEEOT_RNSt16remove_referenceIS4_E4typeE
FNDA:0,_ZSt7forwardIRKN7testing11ExpectationEEOT_RNSt16remove_referenceIS4_E4typeE
FNDA:0,_ZSt7forwardIbEOT_RNSt16remove_referenceIS0_E4typeE
FNDA:0,_ZSt7forwardIRSt17_Rb_tree_iteratorIPN7testing8internal25UntypedFunctionMockerBaseEEEOT_RNSt16remove_referenceIS7_E4typeE
FNDA:0,_ZSt7forwardIRSt17_Rb_tree_iteratorIN7testing11ExpectationEEEOT_RNSt16remove_referenceIS5_E4typeE
FNDA:0,_ZSt7forwardIRbEOT_RNSt16remove_referenceIS1_E4typeE
FNDA:0,_ZSt7forwardIRmEOT_RNSt16remove_referenceIS1_E4typeE
FNDA:0,_ZSt4moveIRPcEONSt16remove_referenceIT_E4typeEOS3_
FNDA:0,_ZSt4moveIRPN7testing8internal10linked_ptrINS1_15ExpectationBaseEEEEONSt16remove_referenceIT_E4typeEOS8_
FNDA:0,_ZSt4moveIRSt11_Tuple_implILm1EIEEEONSt16remove_referenceIT_E4typeEOS4_
FNDA:0,_ZSt4moveIRPKvEONSt16remove_referenceIT_E4typeEOS4_
FNDA:0,_ZSt4moveIRSt4pairImmEEONSt16remove_referenceIT_E4typeEOS4_
FNDA:0,_ZSt4moveIRSsEONSt16remove_referenceIT_E4typeEOS2_
FNDA:0,_ZSt4swapIPcEvRT_S2_
FNDA:0,_ZSt4swapIPN7testing8internal10linked_ptrINS1_15ExpectationBaseEEEEvRT_S7_
FNF:36
FNH:0
DA:47,0
DA:50,0
DA:76,0
DA:77,0
DA:101,0
DA:102,0
DA:166,0
DA:175,0
DA:176,0
DA:177,0
DA:178,0
LF:11
LH:0
end_of_record
SF:/usr/include/c++/4.8.2/bits/stl_algobase.h
FN:216,_ZSt3maxImERKT_S2_S2_
FN:277,_ZSt12__niter_baseIN9__gnu_cxx17__normal_iteratorIPcSt6vectorIcSaIcEEEEENSt11_Niter_baseIT_E13iterator_typeES8_
FN:277,_ZSt12__niter_baseIPmENSt11_Niter_baseIT_E13iterator_typeES2_
FN:277,_ZSt12__niter_baseIPcENSt11_Niter_baseIT_E13iterator_typeES2_
FN:700,_ZSt8__fill_aIcEN9__gnu_cxx11__enable_ifIXsrSt9__is_byteIT_E7__valueEvE6__typeEPS3_S7_RKS3_
FN:721,_ZSt4fillIN9__gnu_cxx17__normal_iteratorIPcSt6vectorIcSaIcEEEEcEvT_S7_RKT0_
FN:746,_ZSt10__fill_n_aIPmmmEN9__gnu_cxx11__enable_ifIXsrSt11__is_scalarIT1_E7__valueET_E6__typeES6_T0_RKS4_
FN:758,_ZSt10__fill_n_aImcEN9__gnu_cxx11__enable_ifIXsrSt9__is_byteIT0_E7__valueEPS3_E6__typeES5_T_RKS3_
FN:781,_ZSt6fill_nIPmmmET_S1_T0_RKT1_
FN:781,_ZSt6fill_nIPcmcET_S1_T0_RKT1_
FNDA:0,_ZSt3maxImERKT_S2_S2_
FNDA:0,_ZSt12__niter_baseIPcENSt11_Niter_baseIT_E13iterator_typeES2_
FNDA:0,_ZSt12__niter_baseIN9__gnu_cxx17__normal_iteratorIPcSt6vectorIcSaIcEEEEENSt11_Niter_baseIT_E13iterator_typeES8_
FNDA:0,_ZSt12__niter_baseIPmENSt11_Niter_baseIT_E13iterator_typeES2_
FNDA:0,_ZSt8__fill_aIcEN9__gnu_cxx11__enable_ifIXsrSt9__is_byteIT_E7__valueEvE6__typeEPS3_S7_RKS3_
FNDA:0,_ZSt4fillIN9__gnu_cxx17__normal_iteratorIPcSt6vectorIcSaIcEEEEcEvT_S7_RKT0_
FNDA:0,_ZSt10__fill_n_aIPmmmEN9__gnu_cxx11__enable_ifIXsrSt11__is_scalarIT1_E7__valueET_E6__typeES6_T0_RKS4_
FNDA:0,_ZSt10__fill_n_aImcEN9__gnu_cxx11__enable_ifIXsrSt9__is_byteIT0_E7__valueEPS3_E6__typeES5_T_RKS3_
FNDA:0,_ZSt6fill_nIPmmmET_S1_T0_RKT1_
FNDA:0,_ZSt6fill_nIPcmcET_S1_T0_RKT1_
FNF:10
FNH:0
DA:216,0
DA:221,0
DA:222,0
DA:223,0
DA:277,0
DA:278,0
DA:700,0
DA:702,0
DA:703,0
DA:704,0
DA:705,0
DA:721,0
DA:728,0
DA:729,0
DA:730,0
DA:746,0
DA:748,0
DA:749,0
DA:751,0
DA:752,0
DA:758,0
DA:760,0
DA:761,0
DA:781,0
DA:786,0
LF:25
LH:0
end_of_record
SF:/usr/include/c++/4.8.2/bits/stl_construct.h
FN:74,_ZSt10_ConstructISt4pairImmEIS1_EEvPT_DpOT0_
FN:92,_ZSt8_DestroyIN7testing8internal10linked_ptrINS1_15ExpectationBaseEEEEvPT_
FN:100,_ZNSt12_Destroy_auxILb0EE9__destroyIPN7testing8internal10linked_ptrINS3_15ExpectationBaseEEEEEvT_S8_
FN:112,_ZNSt12_Destroy_auxILb1EE9__destroyIPcEEvT_S3_
FN:112,_ZNSt12_Destroy_auxILb1EE9__destroyIPPKvEEvT_S5_
FN:112,_ZNSt12_Destroy_auxILb1EE9__destroyIPmEEvT_S3_
FN:112,_ZNSt12_Destroy_auxILb1EE9__destroyIPSt4pairImmEEEvT_S5_
FN:122,_ZSt8_DestroyIPSt4pairImmEEvT_S3_
FN:122,_ZSt8_DestroyIPN7testing8internal10linked_ptrINS1_15ExpectationBaseEEEEvT_S6_
FN:122,_ZSt8_DestroyIPcEvT_S1_
FN:122,_ZSt8_DestroyIPmEvT_S1_
FN:122,_ZSt8_DestroyIPPKvEvT_S3_
FN:148,_ZSt8_DestroyIPSt4pairImmES1_EvT_S3_RSaIT0_E
FN:148,_ZSt8_DestroyIPmmEvT_S1_RSaIT0_E
FN:148,_ZSt8_DestroyIPPKvS1_EvT_S3_RSaIT0_E
FN:148,_ZSt8_DestroyIPccEvT_S1_RSaIT0_E
FN:148,_ZSt8_DestroyIPN7testing8internal10linked_ptrINS1_15ExpectationBaseEEES4_EvT_S6_RSaIT0_E
FNDA:0,_ZSt10_ConstructISt4pairImmEIS1_EEvPT_DpOT0_
FNDA:0,_ZSt8_DestroyIN7testing8internal10linked_ptrINS1_15ExpectationBaseEEEEvPT_
FNDA:0,_ZNSt12_Destroy_auxILb0EE9__destroyIPN7testing8internal10linked_ptrINS3_15ExpectationBaseEEEEEvT_S8_
FNDA:0,_ZNSt12_Destroy_auxILb1EE9__destroyIPPKvEEvT_S5_
FNDA:0,_ZNSt12_Destroy_auxILb1EE9__destroyIPSt4pairImmEEEvT_S5_
FNDA:0,_ZNSt12_Destroy_auxILb1EE9__destroyIPmEEvT_S3_
FNDA:0,_ZNSt12_Destroy_auxILb1EE9__destroyIPcEEvT_S3_
FNDA:0,_ZSt8_DestroyIPN7testing8internal10linked_ptrINS1_15ExpectationBaseEEEEvT_S6_
FNDA:0,_ZSt8_DestroyIPPKvEvT_S3_
FNDA:0,_ZSt8_DestroyIPSt4pairImmEEvT_S3_
FNDA:0,_ZSt8_DestroyIPmEvT_S1_
FNDA:0,_ZSt8_DestroyIPcEvT_S1_
FNDA:0,_ZSt8_DestroyIPN7testing8internal10linked_ptrINS1_15ExpectationBaseEEES4_EvT_S6_RSaIT0_E
FNDA:0,_ZSt8_DestroyIPPKvS1_EvT_S3_RSaIT0_E
FNDA:0,_ZSt8_DestroyIPSt4pairImmES1_EvT_S3_RSaIT0_E
FNDA:0,_ZSt8_DestroyIPmmEvT_S1_RSaIT0_E
FNDA:0,_ZSt8_DestroyIPccEvT_S1_RSaIT0_E
FNF:17
FNH:0
DA:74,0
DA:75,0
DA:92,0
DA:93,0
DA:100,0
DA:102,0
DA:103,0
DA:104,0
DA:112,0
DA:122,0
DA:126,0
DA:128,0
DA:148,0
DA:151,0
DA:152,0
LF:15
LH:0
end_of_record
SF:/usr/include/c++/4.8.2/bits/stl_function.h
FN:234,_ZNKSt4lessIPKvEclERKS1_S4_
FN:234,_ZNKSt4lessIPN7testing8internal25UntypedFunctionMockerBaseEEclERKS3_S6_
FN:481,_ZNKSt9_IdentityIPN7testing8internal25UntypedFunctionMockerBaseEEclERKS3_
FN:481,_ZNKSt9_IdentityIN7testing11ExpectationEEclERKS1_
FN:494,_ZNKSt10_Select1stISt4pairIKPKvN7testing12_GLOBAL__N_115MockObjectStateEEEclERKS7_
FN:494,_ZNKSt10_Select1stISt4pairIKPKvN7testing8internal12CallReactionEEEclERKS7_
FNDA:0,_ZNKSt4lessIPN7testing8internal25UntypedFunctionMockerBaseEEclERKS3_S6_
FNDA:0,_ZNKSt4lessIPKvEclERKS1_S4_
FNDA:0,_ZNKSt9_IdentityIPN7testing8internal25UntypedFunctionMockerBaseEEclERKS3_
FNDA:0,_ZNKSt9_IdentityIN7testing11ExpectationEEclERKS1_
FNDA:0,_ZNKSt10_Select1stISt4pairIKPKvN7testing12_GLOBAL__N_115MockObjectStateEEEclERKS7_
FNDA:0,_ZNKSt10_Select1stISt4pairIKPKvN7testing8internal12CallReactionEEEclERKS7_
FNF:6
FNH:0
DA:234,0
DA:235,0
DA:481,0
DA:482,0
DA:494,0
DA:495,0
LF:6
LH:0
end_of_record
SF:/usr/include/c++/4.8.2/bits/stl_iterator.h
FN:126,_ZNSt16reverse_iteratorIN9__gnu_cxx17__normal_iteratorIPKcSsEEEC2ES4_
FN:160,_ZNKSt16reverse_iteratorIN9__gnu_cxx17__normal_iteratorIPKcSsEEEdeEv
FN:726,_ZN9__gnu_cxx17__normal_iteratorIPKPKN7testing25MatcherDescriberInterfaceESt6vectorIS4_SaIS4_EEEC2ERKS6_
FN:726,_ZN9__gnu_cxx17__normal_iteratorIPcSt6vectorIcSaIcEEEC2ERKS1_
FN:726,_ZN9__gnu_cxx17__normal_iteratorIPKSt4pairImmESt6vectorIS2_SaIS2_EEEC2ERKS4_
FN:726,_ZN9__gnu_cxx17__normal_iteratorIPN7testing8internal10linked_ptrINS2_15ExpectationBaseEEESt6vectorIS5_SaIS5_EEEC2ERKS6_
FN:726,_ZN9__gnu_cxx17__normal_iteratorIPKcSsEC2ERKS2_
FN:730,_ZN9__gnu_cxx17__normal_iteratorIPKN7testing8internal10linked_ptrINS2_15ExpectationBaseEEESt6vectorIS5_SaIS5_EEEC2IPS5_EERKNS0_IT_NS_11__enable_ifIXsrSt10__are_sameISE_SD_E7__valueESA_E6__typeEEE
FN:738,_ZNK9__gnu_cxx17__normal_iteratorIPKN7testing8internal10linked_ptrINS2_15ExpectationBaseEEESt6vectorIS5_SaIS5_EEEdeEv
FN:738,_ZNK9__gnu_cxx17__normal_iteratorIPKcSsEdeEv
FN:742,_ZNK9__gnu_cxx17__normal_iteratorIPKSt4pairImmESt6vectorIS2_SaIS2_EEEptEv
FN:742,_ZNK9__gnu_cxx17__normal_iteratorIPKN7testing8internal10linked_ptrINS2_15ExpectationBaseEEESt6vectorIS5_SaIS5_EEEptEv
FN:746,_ZN9__gnu_cxx17__normal_iteratorIPKSt4pairImmESt6vectorIS2_SaIS2_EEEppEv
FN:746,_ZN9__gnu_cxx17__normal_iteratorIPKN7testing8internal10linked_ptrINS2_15ExpectationBaseEEESt6vectorIS5_SaIS5_EEEppEv
FN:758,_ZN9__gnu_cxx17__normal_iteratorIPKcSsEmmEv
FN:790,_ZNK9__gnu_cxx17__normal_iteratorIPKN7testing8internal10linked_ptrINS2_15ExpectationBaseEEESt6vectorIS5_SaIS5_EEE4baseEv
FN:790,_ZNK9__gnu_cxx17__normal_iteratorIPcSt6vectorIcSaIcEEE4baseEv
FN:790,_ZNK9__gnu_cxx17__normal_iteratorIPKSt4pairImmESt6vectorIS2_SaIS2_EEE4baseEv
FN:790,_ZNK9__gnu_cxx17__normal_iteratorIPN7testing8internal10linked_ptrINS2_15ExpectationBaseEEESt6vectorIS5_SaIS5_EEE4baseEv
FN:790,_ZNK9__gnu_cxx17__normal_iteratorIPKPKN7testing25MatcherDescriberInterfaceESt6vectorIS4_SaIS4_EEE4baseEv
FN:811,_ZN9__gnu_cxxeqIPKPKN7testing25MatcherDescriberInterfaceESt6vectorIS4_SaIS4_EEEEbRKNS_17__normal_iteratorIT_T0_EESF_
FN:817,_ZN9__gnu_cxxneIPKN7testing8internal10linked_ptrINS2_15ExpectationBaseEEEPS5_St6vectorIS5_SaIS5_EEEEbRKNS_17__normal_iteratorIT_T1_EERKNSC_IT0_SE_EE
FN:823,_ZN9__gnu_cxxneIPKSt4pairImmESt6vectorIS2_SaIS2_EEEEbRKNS_17__normal_iteratorIT_T0_EESD_
FN:950,_ZNSt13move_iteratorIPSt4pairImmEEC2ES2_
FN:958,_ZNKSt13move_iteratorIPSt4pairImmEE4baseEv
FN:962,_ZNKSt13move_iteratorIPSt4pairImmEEdeEv
FN:970,_ZNSt13move_iteratorIPSt4pairImmEEppEv
FN:1037,_ZSteqIPSt4pairImmEEbRKSt13move_iteratorIT_ES7_
FN:1049,_ZStneIPSt4pairImmEEbRKSt13move_iteratorIT_ES7_
FN:1132,_ZSt32__make_move_if_noexcept_iteratorIPSt4pairImmESt13move_iteratorIS2_EET0_T_
FNDA:0,_ZNSt16reverse_iteratorIN9__gnu_cxx17__normal_iteratorIPKcSsEEEC2ES4_
FNDA:0,_ZNKSt16reverse_iteratorIN9__gnu_cxx17__normal_iteratorIPKcSsEEEdeEv
FNDA:0,_ZN9__gnu_cxx17__normal_iteratorIPcSt6vectorIcSaIcEEEC2ERKS1_
FNDA:0,_ZN9__gnu_cxx17__normal_iteratorIPKPKN7testing25MatcherDescriberInterfaceESt6vectorIS4_SaIS4_EEEC2ERKS6_
FNDA:0,_ZN9__gnu_cxx17__normal_iteratorIPKcSsEC2ERKS2_
FNDA:0,_ZN9__gnu_cxx17__normal_iteratorIPN7testing8internal10linked_ptrINS2_15ExpectationBaseEEESt6vectorIS5_SaIS5_EEEC2ERKS6_
FNDA:0,_ZN9__gnu_cxx17__normal_iteratorIPKSt4pairImmESt6vectorIS2_SaIS2_EEEC2ERKS4_
FNDA:0,_ZN9__gnu_cxx17__normal_iteratorIPKN7testing8internal10linked_ptrINS2_15ExpectationBaseEEESt6vectorIS5_SaIS5_EEEC2IPS5_EERKNS0_IT_NS_11__enable_ifIXsrSt10__are_sameISE_SD_E7__valueESA_E6__typeEEE
FNDA:0,_ZNK9__gnu_cxx17__normal_iteratorIPKcSsEdeEv
FNDA:0,_ZNK9__gnu_cxx17__normal_iteratorIPKN7testing8internal10linked_ptrINS2_15ExpectationBaseEEESt6vectorIS5_SaIS5_EEEdeEv
FNDA:0,_ZNK9__gnu_cxx17__normal_iteratorIPKN7testing8internal10linked_ptrINS2_15ExpectationBaseEEESt6vectorIS5_SaIS5_EEEptEv
FNDA:0,_ZNK9__gnu_cxx17__normal_iteratorIPKSt4pairImmESt6vectorIS2_SaIS2_EEEptEv
FNDA:0,_ZN9__gnu_cxx17__normal_iteratorIPKN7testing8internal10linked_ptrINS2_15ExpectationBaseEEESt6vectorIS5_SaIS5_EEEppEv
FNDA:0,_ZN9__gnu_cxx17__normal_iteratorIPKSt4pairImmESt6vectorIS2_SaIS2_EEEppEv
FNDA:0,_ZN9__gnu_cxx17__normal_iteratorIPKcSsEmmEv
FNDA:0,_ZNK9__gnu_cxx17__normal_iteratorIPcSt6vectorIcSaIcEEE4baseEv
FNDA:0,_ZNK9__gnu_cxx17__normal_iteratorIPKPKN7testing25MatcherDescriberInterfaceESt6vectorIS4_SaIS4_EEE4baseEv
FNDA:0,_ZNK9__gnu_cxx17__normal_iteratorIPKN7testing8internal10linked_ptrINS2_15ExpectationBaseEEESt6vectorIS5_SaIS5_EEE4baseEv
FNDA:0,_ZNK9__gnu_cxx17__normal_iteratorIPN7testing8internal10linked_ptrINS2_15ExpectationBaseEEESt6vectorIS5_SaIS5_EEE4baseEv
FNDA:0,_ZNK9__gnu_cxx17__normal_iteratorIPKSt4pairImmESt6vectorIS2_SaIS2_EEE4baseEv
FNDA:0,_ZN9__gnu_cxxeqIPKPKN7testing25MatcherDescriberInterfaceESt6vectorIS4_SaIS4_EEEEbRKNS_17__normal_iteratorIT_T0_EESF_
FNDA:0,_ZN9__gnu_cxxneIPKN7testing8internal10linked_ptrINS2_15ExpectationBaseEEEPS5_St6vectorIS5_SaIS5_EEEEbRKNS_17__normal_iteratorIT_T1_EERKNSC_IT0_SE_EE
FNDA:0,_ZN9__gnu_cxxneIPKSt4pairImmESt6vectorIS2_SaIS2_EEEEbRKNS_17__normal_iteratorIT_T0_EESD_
FNDA:0,_ZNSt13move_iteratorIPSt4pairImmEEC2ES2_
FNDA:0,_ZNKSt13move_iteratorIPSt4pairImmEE4baseEv
FNDA:0,_ZNKSt13move_iteratorIPSt4pairImmEEdeEv
FNDA:0,_ZNSt13move_iteratorIPSt4pairImmEEppEv
FNDA:0,_ZSteqIPSt4pairImmEEbRKSt13move_iteratorIT_ES7_
FNDA:0,_ZStneIPSt4pairImmEEbRKSt13move_iteratorIT_ES7_
FNDA:0,_ZSt32__make_move_if_noexcept_iteratorIPSt4pairImmESt13move_iteratorIS2_EET0_T_
FNF:30
FNH:0
DA:126,0
DA:160,0
DA:162,0
DA:163,0
DA:726,0
DA:730,0
DA:734,0
DA:738,0
DA:739,0
DA:742,0
DA:743,0
DA:746,0
DA:748,0
DA:749,0
DA:758,0
DA:760,0
DA:761,0
DA:790,0
DA:791,0
DA:811,0
DA:813,0
DA:817,0
DA:819,0
DA:823,0
DA:825,0
DA:950,0
DA:951,0
DA:958,0
DA:959,0
DA:962,0
DA:963,0
DA:970,0
DA:972,0
DA:973,0
DA:1037,0
DA:1039,0
DA:1049,0
DA:1051,0
DA:1132,0
DA:1133,0
LF:40
LH:0
end_of_record
SF:/usr/include/c++/4.8.2/bits/stl_iterator_base_funcs.h
FN:90,_ZSt10__distanceIPcENSt15iterator_traitsIT_E15difference_typeES2_S2_St26random_access_iterator_tag
FN:114,_ZSt8distanceIPcENSt15iterator_traitsIT_E15difference_typeES2_S2_
FNDA:0,_ZSt10__distanceIPcENSt15iterator_traitsIT_E15difference_typeES2_S2_St26random_access_iterator_tag
FNDA:0,_ZSt8distanceIPcENSt15iterator_traitsIT_E15difference_typeES2_S2_
FNF:2
FNH:0
DA:90,0
DA:96,0
DA:114,0
DA:118,0
LF:4
LH:0
end_of_record
SF:/usr/include/c++/4.8.2/bits/stl_iterator_base_types.h
FN:118,_ZNSt8iteratorISt26random_access_iterator_tagclPKcRS1_EC2Ev
FN:201,_ZSt19__iterator_categoryIPcENSt15iterator_traitsIT_E17iterator_categoryERKS2_
FN:212,_ZNSt10_Iter_baseIPcLb0EE7_S_baseES0_
FN:212,_ZNSt10_Iter_baseIPmLb0EE7_S_baseES0_
FN:220,_ZNSt10_Iter_baseIN9__gnu_cxx17__normal_iteratorIPcSt6vectorIcSaIcEEEELb1EE7_S_baseES6_
FNDA:0,_ZNSt8iteratorISt26random_access_iterator_tagclPKcRS1_EC2Ev
FNDA:0,_ZSt19__iterator_categoryIPcENSt15iterator_traitsIT_E17iterator_categoryERKS2_
FNDA:0,_ZNSt10_Iter_baseIPcLb0EE7_S_baseES0_
FNDA:0,_ZNSt10_Iter_baseIPmLb0EE7_S_baseES0_
FNDA:0,_ZNSt10_Iter_baseIN9__gnu_cxx17__normal_iteratorIPcSt6vectorIcSaIcEEEELb1EE7_S_baseES6_
FNF:5
FNH:0
DA:118,0
DA:201,0
DA:202,0
DA:212,0
DA:213,0
DA:220,0
DA:221,0
LF:7
LH:0
end_of_record
SF:/usr/include/c++/4.8.2/bits/stl_map.h
FN:96,_ZNSt3mapIPKvN7testing8internal12CallReactionESt4lessIS1_ESaISt4pairIKS1_S4_EEED2Ev
FN:96,_ZNSt3mapIPKvN7testing12_GLOBAL__N_115MockObjectStateESt4lessIS1_ESaISt4pairIKS1_S4_EEED2Ev
FN:160,_ZNSt3mapIPKvN7testing12_GLOBAL__N_115MockObjectStateESt4lessIS1_ESaISt4pairIKS1_S4_EEEC2Ev
FN:160,_ZNSt3mapIPKvN7testing8internal12CallReactionESt4lessIS1_ESaISt4pairIKS1_S4_EEEC2Ev
FN:320,_ZNSt3mapIPKvN7testing12_GLOBAL__N_115MockObjectStateESt4lessIS1_ESaISt4pairIKS1_S4_EEE5beginEv
FN:338,_ZNSt3mapIPKvN7testing8internal12CallReactionESt4lessIS1_ESaISt4pairIKS1_S4_EEE3endEv
FN:338,_ZNSt3mapIPKvN7testing12_GLOBAL__N_115MockObjectStateESt4lessIS1_ESaISt4pairIKS1_S4_EEE3endEv
FN:456,_ZNSt3mapIPKvN7testing12_GLOBAL__N_115MockObjectStateESt4lessIS1_ESaISt4pairIKS1_S4_EEEixERS8_
FN:456,_ZNSt3mapIPKvN7testing8internal12CallReactionESt4lessIS1_ESaISt4pairIKS1_S4_EEEixERS8_
FN:476,_ZNSt3mapIPKvN7testing12_GLOBAL__N_115MockObjectStateESt4lessIS1_ESaISt4pairIKS1_S4_EEEixEOS1_
FN:696,_ZNSt3mapIPKvN7testing12_GLOBAL__N_115MockObjectStateESt4lessIS1_ESaISt4pairIKS1_S4_EEE5eraseB5cxx11ESt17_Rb_tree_iteratorIS9_E
FN:726,_ZNSt3mapIPKvN7testing8internal12CallReactionESt4lessIS1_ESaISt4pairIKS1_S4_EEE5eraseERS8_
FN:797,_ZNKSt3mapIPKvN7testing8internal12CallReactionESt4lessIS1_ESaISt4pairIKS1_S4_EEE8key_compEv
FN:797,_ZNKSt3mapIPKvN7testing12_GLOBAL__N_115MockObjectStateESt4lessIS1_ESaISt4pairIKS1_S4_EEE8key_compEv
FN:848,_ZNKSt3mapIPKvN7testing8internal12CallReactionESt4lessIS1_ESaISt4pairIKS1_S4_EEE5countERS8_
FN:848,_ZNKSt3mapIPKvN7testing12_GLOBAL__N_115MockObjectStateESt4lessIS1_ESaISt4pairIKS1_S4_EEE5countERS8_
FN:863,_ZNSt3mapIPKvN7testing12_GLOBAL__N_115MockObjectStateESt4lessIS1_ESaISt4pairIKS1_S4_EEE11lower_boundERS8_
FN:863,_ZNSt3mapIPKvN7testing8internal12CallReactionESt4lessIS1_ESaISt4pairIKS1_S4_EEE11lower_boundERS8_
FNDA:1,_ZNSt3mapIPKvN7testing8internal12CallReactionESt4lessIS1_ESaISt4pairIKS1_S4_EEED2Ev
FNDA:1,_ZNSt3mapIPKvN7testing12_GLOBAL__N_115MockObjectStateESt4lessIS1_ESaISt4pairIKS1_S4_EEED2Ev
FNDA:1,_ZNSt3mapIPKvN7testing8internal12CallReactionESt4lessIS1_ESaISt4pairIKS1_S4_EEEC2Ev
FNDA:1,_ZNSt3mapIPKvN7testing12_GLOBAL__N_115MockObjectStateESt4lessIS1_ESaISt4pairIKS1_S4_EEEC2Ev
FNDA:1,_ZNSt3mapIPKvN7testing12_GLOBAL__N_115MockObjectStateESt4lessIS1_ESaISt4pairIKS1_S4_EEE5beginEv
FNDA:0,_ZNSt3mapIPKvN7testing8internal12CallReactionESt4lessIS1_ESaISt4pairIKS1_S4_EEE3endEv
FNDA:1,_ZNSt3mapIPKvN7testing12_GLOBAL__N_115MockObjectStateESt4lessIS1_ESaISt4pairIKS1_S4_EEE3endEv
FNDA:0,_ZNSt3mapIPKvN7testing12_GLOBAL__N_115MockObjectStateESt4lessIS1_ESaISt4pairIKS1_S4_EEEixERS8_
FNDA:0,_ZNSt3mapIPKvN7testing8internal12CallReactionESt4lessIS1_ESaISt4pairIKS1_S4_EEEixERS8_
FNDA:0,_ZNSt3mapIPKvN7testing12_GLOBAL__N_115MockObjectStateESt4lessIS1_ESaISt4pairIKS1_S4_EEEixEOS1_
FNDA:0,_ZNSt3mapIPKvN7testing12_GLOBAL__N_115MockObjectStateESt4lessIS1_ESaISt4pairIKS1_S4_EEE5eraseB5cxx11ESt17_Rb_tree_iteratorIS9_E
FNDA:0,_ZNSt3mapIPKvN7testing8internal12CallReactionESt4lessIS1_ESaISt4pairIKS1_S4_EEE5eraseERS8_
FNDA:0,_ZNKSt3mapIPKvN7testing12_GLOBAL__N_115MockObjectStateESt4lessIS1_ESaISt4pairIKS1_S4_EEE8key_compEv
FNDA:0,_ZNKSt3mapIPKvN7testing8internal12CallReactionESt4lessIS1_ESaISt4pairIKS1_S4_EEE8key_compEv
FNDA:0,_ZNKSt3mapIPKvN7testing12_GLOBAL__N_115MockObjectStateESt4lessIS1_ESaISt4pairIKS1_S4_EEE5countERS8_
FNDA:0,_ZNKSt3mapIPKvN7testing8internal12CallReactionESt4lessIS1_ESaISt4pairIKS1_S4_EEE5countERS8_
FNDA:0,_ZNSt3mapIPKvN7testing12_GLOBAL__N_115MockObjectStateESt4lessIS1_ESaISt4pairIKS1_S4_EEE11lower_boundERS8_
FNDA:0,_ZNSt3mapIPKvN7testing8internal12CallReactionESt4lessIS1_ESaISt4pairIKS1_S4_EEE11lower_boundERS8_
FNF:18
FNH:6
DA:96,2
DA:160,2
DA:161,2
DA:320,1
DA:321,1
DA:338,1
DA:339,1
DA:456,0
DA:461,0
DA:463,0
DA:465,0
DA:471,0
DA:476,0
DA:481,0
DA:483,0
DA:484,0
DA:485,0
DA:487,0
DA:696,0
DA:697,0
DA:726,0
DA:727,0
DA:797,0
DA:798,0
DA:848,0
DA:849,0
DA:863,0
DA:864,0
LF:28
LH:7
end_of_record
SF:/usr/include/c++/4.8.2/bits/stl_pair.h
FN:96,_ZNSt4pairIKPKvN7testing12_GLOBAL__N_115MockObjectStateEED2Ev
FN:133,_ZNSt4pairIPSt18_Rb_tree_node_baseS1_EC2IRS1_vEEOT_RKS1_
FN:138,_ZNSt4pairIPSt18_Rb_tree_node_baseS1_EC2IRS1_vEERKS1_OT_
FN:144,_ZNSt4pairISt23_Rb_tree_const_iteratorIPN7testing8internal25UntypedFunctionMockerBaseEEbEC2IRSt17_Rb_tree_iteratorIS4_ERbvEEOT_OT0_
FN:144,_ZNSt4pairISt17_Rb_tree_iteratorIN7testing11ExpectationEEbEC2IS3_bvEEOT_OT0_
FN:144,_ZNSt4pairISt23_Rb_tree_const_iteratorIN7testing11ExpectationEEbEC2IRSt17_Rb_tree_iteratorIS2_ERbvEEOT_OT0_
FN:144,_ZNSt4pairIPSt18_Rb_tree_node_baseS1_EC2IRS1_S4_vEEOT_OT0_
FN:144,_ZNSt4pairImmEC1IRmS2_vEEOT_OT0_
FN:144,_ZNSt4pairIPSt18_Rb_tree_node_baseS1_EC2IRPSt13_Rb_tree_nodeIPN7testing8internal25UntypedFunctionMockerBaseEESB_vEEOT_OT0_
FN:144,_ZNSt4pairIPSt18_Rb_tree_node_baseS1_EC2IRPSt13_Rb_tree_nodeIS_IKPKvN7testing12_GLOBAL__N_115MockObjectStateEEESE_vEEOT_OT0_
FN:144,_ZNSt4pairIPSt18_Rb_tree_node_baseS1_EC2IRPSt13_Rb_tree_nodeIN7testing11ExpectationEES9_vEEOT_OT0_
FN:144,_ZNSt4pairISt17_Rb_tree_iteratorIPN7testing8internal25UntypedFunctionMockerBaseEES5_EC2IS5_S5_vEEOT_OT0_
FN:144,_ZNSt4pairISt17_Rb_tree_iteratorIS_IKPKvN7testing8internal12CallReactionEEES8_EC2IS8_S8_vEEOT_OT0_
FN:144,_ZNSt4pairIPSt18_Rb_tree_node_baseS1_EC2IRPSt13_Rb_tree_nodeIS_IKPKvN7testing8internal12CallReactionEEESE_vEEOT_OT0_
FN:144,_ZNSt4pairISt17_Rb_tree_iteratorIPN7testing8internal25UntypedFunctionMockerBaseEEbEC2IS5_bvEEOT_OT0_
FNDA:0,_ZNSt4pairIKPKvN7testing12_GLOBAL__N_115MockObjectStateEED2Ev
FNDA:0,_ZNSt4pairIPSt18_Rb_tree_node_baseS1_EC2IRS1_vEEOT_RKS1_
FNDA:0,_ZNSt4pairIPSt18_Rb_tree_node_baseS1_EC2IRS1_vEERKS1_OT_
FNDA:0,_ZNSt4pairIPSt18_Rb_tree_node_baseS1_EC2IRPSt13_Rb_tree_nodeIS_IKPKvN7testing12_GLOBAL__N_115MockObjectStateEEESE_vEEOT_OT0_
FNDA:0,_ZNSt4pairIPSt18_Rb_tree_node_baseS1_EC2IRPSt13_Rb_tree_nodeIS_IKPKvN7testing8internal12CallReactionEEESE_vEEOT_OT0_
FNDA:0,_ZNSt4pairISt17_Rb_tree_iteratorIPN7testing8internal25UntypedFunctionMockerBaseEES5_EC2IS5_S5_vEEOT_OT0_
FNDA:0,_ZNSt4pairIPSt18_Rb_tree_node_baseS1_EC2IRPSt13_Rb_tree_nodeIPN7testing8internal25UntypedFunctionMockerBaseEESB_vEEOT_OT0_
FNDA:0,_ZNSt4pairISt17_Rb_tree_iteratorIS_IKPKvN7testing8internal12CallReactionEEES8_EC2IS8_S8_vEEOT_OT0_
FNDA:0,_ZNSt4pairIPSt18_Rb_tree_node_baseS1_EC2IRS1_S4_vEEOT_OT0_
FNDA:0,_ZNSt4pairIPSt18_Rb_tree_node_baseS1_EC2IRPSt13_Rb_tree_nodeIN7testing11ExpectationEES9_vEEOT_OT0_
FNDA:0,_ZNSt4pairISt17_Rb_tree_iteratorIPN7testing8internal25UntypedFunctionMockerBaseEEbEC2IS5_bvEEOT_OT0_
FNDA:0,_ZNSt4pairISt17_Rb_tree_iteratorIN7testing11ExpectationEEbEC2IS3_bvEEOT_OT0_
FNDA:0,_ZNSt4pairISt23_Rb_tree_const_iteratorIPN7testing8internal25UntypedFunctionMockerBaseEEbEC2IRSt17_Rb_tree_iteratorIS4_ERbvEEOT_OT0_
FNDA:0,_ZNSt4pairISt23_Rb_tree_const_iteratorIN7testing11ExpectationEEbEC2IRSt17_Rb_tree_iteratorIS2_ERbvEEOT_OT0_
FNDA:0,_ZNSt4pairImmEC1IRmS2_vEEOT_OT0_
FNF:15
FNH:0
DA:96,0
DA:133,0
DA:134,0
DA:138,0
DA:139,0
DA:144,0
DA:145,0
LF:7
LH:0
end_of_record
SF:/usr/include/c++/4.8.2/bits/stl_set.h
FN:90,_ZNSt3setIPN7testing8internal25UntypedFunctionMockerBaseESt4lessIS3_ESaIS3_EED2Ev
FN:90,_ZNSt3setIN7testing11ExpectationENS1_4LessESaIS1_EED2Ev
FN:139,_ZNSt3setIN7testing11ExpectationENS1_4LessESaIS1_EEC2Ev
FN:139,_ZNSt3setIPN7testing8internal25UntypedFunctionMockerBaseESt4lessIS3_ESaIS3_EEC2Ev
FN:298,_ZNKSt3setIN7testing11ExpectationENS1_4LessESaIS1_EE5beginEv
FN:298,_ZNKSt3setIPN7testing8internal25UntypedFunctionMockerBaseESt4lessIS3_ESaIS3_EE5beginEv
FN:307,_ZNKSt3setIPN7testing8internal25UntypedFunctionMockerBaseESt4lessIS3_ESaIS3_EE3endEv
FN:307,_ZNKSt3setIN7testing11ExpectationENS1_4LessESaIS1_EE3endEv
FN:368,_ZNKSt3setIPN7testing8internal25UntypedFunctionMockerBaseESt4lessIS3_ESaIS3_EE5emptyEv
FN:460,_ZNSt3setIPN7testing8internal25UntypedFunctionMockerBaseESt4lessIS3_ESaIS3_EE6insertERKS3_
FN:460,_ZNSt3setIN7testing11ExpectationENS1_4LessESaIS1_EE6insertERKS1_
FN:581,_ZNSt3setIPN7testing8internal25UntypedFunctionMockerBaseESt4lessIS3_ESaIS3_EE5eraseERKS3_
FNDA:0,_ZNSt3setIPN7testing8internal25UntypedFunctionMockerBaseESt4lessIS3_ESaIS3_EED2Ev
FNDA:0,_ZNSt3setIN7testing11ExpectationENS1_4LessESaIS1_EED2Ev
FNDA:0,_ZNSt3setIPN7testing8internal25UntypedFunctionMockerBaseESt4lessIS3_ESaIS3_EEC2Ev
FNDA:0,_ZNSt3setIN7testing11ExpectationENS1_4LessESaIS1_EEC2Ev
FNDA:0,_ZNKSt3setIPN7testing8internal25UntypedFunctionMockerBaseESt4lessIS3_ESaIS3_EE5beginEv
FNDA:0,_ZNKSt3setIN7testing11ExpectationENS1_4LessESaIS1_EE5beginEv
FNDA:0,_ZNKSt3setIPN7testing8internal25UntypedFunctionMockerBaseESt4lessIS3_ESaIS3_EE3endEv
FNDA:0,_ZNKSt3setIN7testing11ExpectationENS1_4LessESaIS1_EE3endEv
FNDA:0,_ZNKSt3setIPN7testing8internal25UntypedFunctionMockerBaseESt4lessIS3_ESaIS3_EE5emptyEv
FNDA:0,_ZNSt3setIPN7testing8internal25UntypedFunctionMockerBaseESt4lessIS3_ESaIS3_EE6insertERKS3_
FNDA:0,_ZNSt3setIN7testing11ExpectationENS1_4LessESaIS1_EE6insertERKS1_
FNDA:0,_ZNSt3setIPN7testing8internal25UntypedFunctionMockerBaseESt4lessIS3_ESaIS3_EE5eraseERKS3_
FNF:12
FNH:0
DA:90,0
DA:139,0
DA:140,0
DA:298,0
DA:299,0
DA:307,0
DA:308,0
DA:368,0
DA:369,0
DA:460,0
DA:463,0
DA:464,0
DA:581,0
DA:582,0
LF:14
LH:0
end_of_record
SF:/usr/include/c++/4.8.2/bits/stl_tree.h
FN:131,_ZNSt13_Rb_tree_nodeISt4pairIKPKvN7testing12_GLOBAL__N_115MockObjectStateEEED2Ev
FN:131,_ZNSt13_Rb_tree_nodeIN7testing11ExpectationEED2Ev
FN:138,_ZNSt13_Rb_tree_nodeIPN7testing8internal25UntypedFunctionMockerBaseEEC2IIRKS3_EEEDpOT_
FN:138,_ZNSt13_Rb_tree_nodeIN7testing11ExpectationEEC2IIRKS1_EEEDpOT_
FN:138,_ZNSt13_Rb_tree_nodeISt4pairIKPKvN7testing12_GLOBAL__N_115MockObjectStateEEEC2IIRKSt21piecewise_construct_tSt5tupleIIRS3_EESD_IIEEEEEDpOT_
FN:138,_ZNSt13_Rb_tree_nodeISt4pairIKPKvN7testing12_GLOBAL__N_115MockObjectStateEEEC2IIRKSt21piecewise_construct_tSt5tupleIIOS2_EESD_IIEEEEEDpOT_
FN:138,_ZNSt13_Rb_tree_nodeISt4pairIKPKvN7testing8internal12CallReactionEEEC2IIRKSt21piecewise_construct_tSt5tupleIIRS3_EESD_IIEEEEEDpOT_
FN:174,_ZNSt17_Rb_tree_iteratorISt4pairIKPKvN7testing12_GLOBAL__N_115MockObjectStateEEEC2EPSt13_Rb_tree_nodeIS7_E
FN:174,_ZNSt17_Rb_tree_iteratorISt4pairIKPKvN7testing8internal12CallReactionEEEC2EPSt13_Rb_tree_nodeIS7_E
FN:174,_ZNSt17_Rb_tree_iteratorIPN7testing8internal25UntypedFunctionMockerBaseEEC2EPSt13_Rb_tree_nodeIS3_E
FN:174,_ZNSt17_Rb_tree_iteratorIN7testing11ExpectationEEC2EPSt13_Rb_tree_nodeIS1_E
FN:178,_ZNKSt17_Rb_tree_iteratorISt4pairIKPKvN7testing12_GLOBAL__N_115MockObjectStateEEEdeEv
FN:178,_ZNKSt17_Rb_tree_iteratorISt4pairIKPKvN7testing8internal12CallReactionEEEdeEv
FN:182,_ZNKSt17_Rb_tree_iteratorISt4pairIKPKvN7testing12_GLOBAL__N_115MockObjectStateEEEptEv
FN:187,_ZNSt17_Rb_tree_iteratorISt4pairIKPKvN7testing12_GLOBAL__N_115MockObjectStateEEEppEv
FN:187,_ZNSt17_Rb_tree_iteratorISt4pairIKPKvN7testing8internal12CallReactionEEEppEv
FN:202,_ZNSt17_Rb_tree_iteratorISt4pairIKPKvN7testing8internal12CallReactionEEEmmEv
FN:202,_ZNSt17_Rb_tree_iteratorIPN7testing8internal25UntypedFunctionMockerBaseEEmmEv
FN:202,_ZNSt17_Rb_tree_iteratorISt4pairIKPKvN7testing12_GLOBAL__N_115MockObjectStateEEEmmEv
FN:202,_ZNSt17_Rb_tree_iteratorIN7testing11ExpectationEEmmEv
FN:217,_ZNKSt17_Rb_tree_iteratorISt4pairIKPKvN7testing8internal12CallReactionEEEeqERKS8_
FN:217,_ZNKSt17_Rb_tree_iteratorIPN7testing8internal25UntypedFunctionMockerBaseEEeqERKS4_
FN:217,_ZNKSt17_Rb_tree_iteratorISt4pairIKPKvN7testing12_GLOBAL__N_115MockObjectStateEEEeqERKS8_
FN:217,_ZNKSt17_Rb_tree_iteratorIN7testing11ExpectationEEeqERKS2_
FN:221,_ZNKSt17_Rb_tree_iteratorISt4pairIKPKvN7testing12_GLOBAL__N_115MockObjectStateEEEneERKS8_
FN:247,_ZNSt23_Rb_tree_const_iteratorISt4pairIKPKvN7testing8internal12CallReactionEEEC2EPKSt13_Rb_tree_nodeIS7_E
FN:247,_ZNSt23_Rb_tree_const_iteratorIPN7testing8internal25UntypedFunctionMockerBaseEEC2EPKSt13_Rb_tree_nodeIS3_E
FN:247,_ZNSt23_Rb_tree_const_iteratorISt4pairIKPKvN7testing12_GLOBAL__N_115MockObjectStateEEEC2EPKSt13_Rb_tree_nodeIS7_E
FN:247,_ZNSt23_Rb_tree_const_iteratorIN7testing11ExpectationEEC2EPKSt13_Rb_tree_nodeIS1_E
FN:250,_ZNSt23_Rb_tree_const_iteratorIPN7testing8internal25UntypedFunctionMockerBaseEEC2ERKSt17_Rb_tree_iteratorIS3_E
FN:250,_ZNSt23_Rb_tree_const_iteratorISt4pairIKPKvN7testing12_GLOBAL__N_115MockObjectStateEEEC2ERKSt17_Rb_tree_iteratorIS7_E
FN:250,_ZNSt23_Rb_tree_const_iteratorISt4pairIKPKvN7testing8internal12CallReactionEEEC2ERKSt17_Rb_tree_iteratorIS7_E
FN:250,_ZNSt23_Rb_tree_const_iteratorIN7testing11ExpectationEEC2ERKSt17_Rb_tree_iteratorIS1_E
FN:254,_ZNKSt23_Rb_tree_const_iteratorIPN7testing8internal25UntypedFunctionMockerBaseEE13_M_const_castEv
FN:254,_ZNKSt23_Rb_tree_const_iteratorISt4pairIKPKvN7testing12_GLOBAL__N_115MockObjectStateEEE13_M_const_castEv
FN:254,_ZNKSt23_Rb_tree_const_iteratorISt4pairIKPKvN7testing8internal12CallReactionEEE13_M_const_castEv
FN:259,_ZNKSt23_Rb_tree_const_iteratorIPN7testing8internal25UntypedFunctionMockerBaseEEdeEv
FN:259,_ZNKSt23_Rb_tree_const_iteratorIN7testing11ExpectationEEdeEv
FN:263,_ZNKSt23_Rb_tree_const_iteratorISt4pairIKPKvN7testing12_GLOBAL__N_115MockObjectStateEEEptEv
FN:263,_ZNKSt23_Rb_tree_const_iteratorIN7testing11ExpectationEEptEv
FN:268,_ZNSt23_Rb_tree_const_iteratorIN7testing11ExpectationEEppEv
FN:268,_ZNSt23_Rb_tree_const_iteratorISt4pairIKPKvN7testing8internal12CallReactionEEEppEv
FN:268,_ZNSt23_Rb_tree_const_iteratorIPN7testing8internal25UntypedFunctionMockerBaseEEppEv
FN:268,_ZNSt23_Rb_tree_const_iteratorISt4pairIKPKvN7testing12_GLOBAL__N_115MockObjectStateEEEppEv
FN:275,_ZNSt23_Rb_tree_const_iteratorIPN7testing8internal25UntypedFunctionMockerBaseEEppEi
FN:275,_ZNSt23_Rb_tree_const_iteratorISt4pairIKPKvN7testing8internal12CallReactionEEEppEi
FN:298,_ZNKSt23_Rb_tree_const_iteratorIPN7testing8internal25UntypedFunctionMockerBaseEEeqERKS4_
FN:298,_ZNKSt23_Rb_tree_const_iteratorISt4pairIKPKvN7testing12_GLOBAL__N_115MockObjectStateEEEeqERKS8_
FN:298,_ZNKSt23_Rb_tree_const_iteratorISt4pairIKPKvN7testing8internal12CallReactionEEEeqERKS8_
FN:302,_ZNKSt23_Rb_tree_const_iteratorIPN7testing8internal25UntypedFunctionMockerBaseEEneERKS4_
FN:302,_ZNKSt23_Rb_tree_const_iteratorIN7testing11ExpectationEEneERKS2_
FN:302,_ZNKSt23_Rb_tree_const_iteratorISt4pairIKPKvN7testing12_GLOBAL__N_115MockObjectStateEEEneERKS8_
FN:302,_ZNKSt23_Rb_tree_const_iteratorISt4pairIKPKvN7testing8internal12CallReactionEEEneERKS8_
FN:356,_ZNSt8_Rb_treeIN7testing11ExpectationES1_St9_IdentityIS1_ENS1_4LessESaIS1_EE21_M_get_Node_allocatorEv
FN:356,_ZNSt8_Rb_treeIPKvSt4pairIKS1_N7testing8internal12CallReactionEESt10_Select1stIS7_ESt4lessIS1_ESaIS7_EE21_M_get_Node_allocatorEv
FN:356,_ZNSt8_Rb_treeIPKvSt4pairIKS1_N7testing12_GLOBAL__N_115MockObjectStateEESt10_Select1stIS7_ESt4lessIS1_ESaIS7_EE21_M_get_Node_allocatorEv
FN:356,_ZNSt8_Rb_treeIPN7testing8internal25UntypedFunctionMockerBaseES3_St9_IdentityIS3_ESt4lessIS3_ESaIS3_EE21_M_get_Node_allocatorEv
FN:369,_ZNSt8_Rb_treeIPKvSt4pairIKS1_N7testing8internal12CallReactionEESt10_Select1stIS7_ESt4lessIS1_ESaIS7_EE11_M_get_nodeEv
FN:369,_ZNSt8_Rb_treeIN7testing11ExpectationES1_St9_IdentityIS1_ENS1_4LessESaIS1_EE11_M_get_nodeEv
FN:369,_ZNSt8_Rb_treeIPN7testing8internal25UntypedFunctionMockerBaseES3_St9_IdentityIS3_ESt4lessIS3_ESaIS3_EE11_M_get_nodeEv
FN:369,_ZNSt8_Rb_treeIPKvSt4pairIKS1_N7testing12_GLOBAL__N_115MockObjectStateEESt10_Select1stIS7_ESt4lessIS1_ESaIS7_EE11_M_get_nodeEv
FN:373,_ZNSt8_Rb_treeIPN7testing8internal25UntypedFunctionMockerBaseES3_St9_IdentityIS3_ESt4lessIS3_ESaIS3_EE11_M_put_nodeEPSt13_Rb_tree_nodeIS3_E
FN:373,_ZNSt8_Rb_treeIN7testing11ExpectationES1_St9_IdentityIS1_ENS1_4LessESaIS1_EE11_M_put_nodeEPSt13_Rb_tree_nodeIS1_E
FN:373,_ZNSt8_Rb_treeIPKvSt4pairIKS1_N7testing8internal12CallReactionEESt10_Select1stIS7_ESt4lessIS1_ESaIS7_EE11_M_put_nodeEPSt13_Rb_tree_nodeIS7_E
FN:373,_ZNSt8_Rb_treeIPKvSt4pairIKS1_N7testing12_GLOBAL__N_115MockObjectStateEESt10_Select1stIS7_ESt4lessIS1_ESaIS7_EE11_M_put_nodeEPSt13_Rb_tree_nodeIS7_E
FN:401,_ZNSt8_Rb_treeIPKvSt4pairIKS1_N7testing8internal12CallReactionEESt10_Select1stIS7_ESt4lessIS1_ESaIS7_EE14_M_create_nodeIIRKSt21piecewise_construct_tSt5tupleIIRS3_EESI_IIEEEEEPSt13_Rb_tree_nodeIS7_EDpOT_
FN:401,_ZNSt8_Rb_treeIPKvSt4pairIKS1_N7testing12_GLOBAL__N_115MockObjectStateEESt10_Select1stIS7_ESt4lessIS1_ESaIS7_EE14_M_create_nodeIIRKSt21piecewise_construct_tSt5tupleIIRS3_EESI_IIEEEEEPSt13_Rb_tree_nodeIS7_EDpOT_
FN:401,_ZNSt8_Rb_treeIPKvSt4pairIKS1_N7testing12_GLOBAL__N_115MockObjectStateEESt10_Select1stIS7_ESt4lessIS1_ESaIS7_EE14_M_create_nodeIIRKSt21piecewise_construct_tSt5tupleIIOS1_EESI_IIEEEEEPSt13_Rb_tree_nodeIS7_EDpOT_
FN:401,_ZNSt8_Rb_treeIPN7testing8internal25UntypedFunctionMockerBaseES3_St9_IdentityIS3_ESt4lessIS3_ESaIS3_EE14_M_create_nodeIIRKS3_EEEPSt13_Rb_tree_nodeIS3_EDpOT_
FN:401,_ZNSt8_Rb_treeIN7testing11ExpectationES1_St9_IdentityIS1_ENS1_4LessESaIS1_EE14_M_create_nodeIIRKS1_EEEPSt13_Rb_tree_nodeIS1_EDpOT_
FN:419,_ZNSt8_Rb_treeIPKvSt4pairIKS1_N7testing8internal12CallReactionEESt10_Select1stIS7_ESt4lessIS1_ESaIS7_EE15_M_destroy_nodeEPSt13_Rb_tree_nodeIS7_E
FN:419,_ZNSt8_Rb_treeIPN7testing8internal25UntypedFunctionMockerBaseES3_St9_IdentityIS3_ESt4lessIS3_ESaIS3_EE15_M_destroy_nodeEPSt13_Rb_tree_nodeIS3_E
FN:419,_ZNSt8_Rb_treeIN7testing11ExpectationES1_St9_IdentityIS1_ENS1_4LessESaIS1_EE15_M_destroy_nodeEPSt13_Rb_tree_nodeIS1_E
FN:419,_ZNSt8_Rb_treeIPKvSt4pairIKS1_N7testing12_GLOBAL__N_115MockObjectStateEESt10_Select1stIS7_ESt4lessIS1_ESaIS7_EE15_M_destroy_nodeEPSt13_Rb_tree_nodeIS7_E
FN:439,_ZNSt8_Rb_treeIN7testing11ExpectationES1_St9_IdentityIS1_ENS1_4LessESaIS1_EE13_Rb_tree_implIS4_Lb1EED2Ev
FN:439,_ZNSt8_Rb_treeIPN7testing8internal25UntypedFunctionMockerBaseES3_St9_IdentityIS3_ESt4lessIS3_ESaIS3_EE13_Rb_tree_implIS7_Lb1EED2Ev
FN:439,_ZNSt8_Rb_treeIPKvSt4pairIKS1_N7testing12_GLOBAL__N_115MockObjectStateEESt10_Select1stIS7_ESt4lessIS1_ESaIS7_EE13_Rb_tree_implISB_Lb1EED2Ev
FN:439,_ZNSt8_Rb_treeIPKvSt4pairIKS1_N7testing8internal12CallReactionEESt10_Select1stIS7_ESt4lessIS1_ESaIS7_EE13_Rb_tree_implISB_Lb1EED2Ev
FN:445,_ZNSt8_Rb_treeIPKvSt4pairIKS1_N7testing12_GLOBAL__N_115MockObjectStateEESt10_Select1stIS7_ESt4lessIS1_ESaIS7_EE13_Rb_tree_implISB_Lb1EEC2Ev
FN:445,_ZNSt8_Rb_treeIPKvSt4pairIKS1_N7testing8internal12CallReactionEESt10_Select1stIS7_ESt4lessIS1_ESaIS7_EE13_Rb_tree_implISB_Lb1EEC2Ev
FN:445,_ZNSt8_Rb_treeIN7testing11ExpectationES1_St9_IdentityIS1_ENS1_4LessESaIS1_EE13_Rb_tree_implIS4_Lb1EEC2Ev
FN:445,_ZNSt8_Rb_treeIPN7testing8internal25UntypedFunctionMockerBaseES3_St9_IdentityIS3_ESt4lessIS3_ESaIS3_EE13_Rb_tree_implIS7_Lb1EEC2Ev
FN:464,_ZNSt8_Rb_treeIPKvSt4pairIKS1_N7testing8internal12CallReactionEESt10_Select1stIS7_ESt4lessIS1_ESaIS7_EE13_Rb_tree_implISB_Lb1EE13_M_initializeEv
FN:464,_ZNSt8_Rb_treeIN7testing11ExpectationES1_St9_IdentityIS1_ENS1_4LessESaIS1_EE13_Rb_tree_implIS4_Lb1EE13_M_initializeEv
FN:464,_ZNSt8_Rb_treeIPN7testing8internal25UntypedFunctionMockerBaseES3_St9_IdentityIS3_ESt4lessIS3_ESaIS3_EE13_Rb_tree_implIS7_Lb1EE13_M_initializeEv
FN:464,_ZNSt8_Rb_treeIPKvSt4pairIKS1_N7testing12_GLOBAL__N_115MockObjectStateEESt10_Select1stIS7_ESt4lessIS1_ESaIS7_EE13_Rb_tree_implISB_Lb1EE13_M_initializeEv
FN:477,_ZNSt8_Rb_treeIPKvSt4pairIKS1_N7testing8internal12CallReactionEESt10_Select1stIS7_ESt4lessIS1_ESaIS7_EE7_M_rootEv
FN:477,_ZNSt8_Rb_treeIPN7testing8internal25UntypedFunctionMockerBaseES3_St9_IdentityIS3_ESt4lessIS3_ESaIS3_EE7_M_rootEv
FN:485,_ZNSt8_Rb_treeIPN7testing8internal25UntypedFunctionMockerBaseES3_St9_IdentityIS3_ESt4lessIS3_ESaIS3_EE11_M_leftmostEv
FN:485,_ZNSt8_Rb_treeIPKvSt4pairIKS1_N7testing12_GLOBAL__N_115MockObjectStateEESt10_Select1stIS7_ESt4lessIS1_ESaIS7_EE11_M_leftmostEv
FN:485,_ZNSt8_Rb_treeIPKvSt4pairIKS1_N7testing8internal12CallReactionEESt10_Select1stIS7_ESt4lessIS1_ESaIS7_EE11_M_leftmostEv
FN:493,_ZNSt8_Rb_treeIPKvSt4pairIKS1_N7testing8internal12CallReactionEESt10_Select1stIS7_ESt4lessIS1_ESaIS7_EE12_M_rightmostEv
FN:493,_ZNSt8_Rb_treeIPKvSt4pairIKS1_N7testing12_GLOBAL__N_115MockObjectStateEESt10_Select1stIS7_ESt4lessIS1_ESaIS7_EE12_M_rightmostEv
FN:493,_ZNSt8_Rb_treeIPN7testing8internal25UntypedFunctionMockerBaseES3_St9_IdentityIS3_ESt4lessIS3_ESaIS3_EE12_M_rightmostEv
FN:501,_ZNSt8_Rb_treeIPN7testing8internal25UntypedFunctionMockerBaseES3_St9_IdentityIS3_ESt4lessIS3_ESaIS3_EE8_M_beginEv
FN:501,_ZNSt8_Rb_treeIN7testing11ExpectationES1_St9_IdentityIS1_ENS1_4LessESaIS1_EE8_M_beginEv
FN:501,_ZNSt8_Rb_treeIPKvSt4pairIKS1_N7testing8internal12CallReactionEESt10_Select1stIS7_ESt4lessIS1_ESaIS7_EE8_M_beginEv
FN:501,_ZNSt8_Rb_treeIPKvSt4pairIKS1_N7testing12_GLOBAL__N_115MockObjectStateEESt10_Select1stIS7_ESt4lessIS1_ESaIS7_EE8_M_beginEv
FN:505,_ZNKSt8_Rb_treeIPKvSt4pairIKS1_N7testing12_GLOBAL__N_115MockObjectStateEESt10_Select1stIS7_ESt4lessIS1_ESaIS7_EE8_M_beginEv
FN:505,_ZNKSt8_Rb_treeIPKvSt4pairIKS1_N7testing8internal12CallReactionEESt10_Select1stIS7_ESt4lessIS1_ESaIS7_EE8_M_beginEv
FN:512,_ZNSt8_Rb_treeIPKvSt4pairIKS1_N7testing12_GLOBAL__N_115MockObjectStateEESt10_Select1stIS7_ESt4lessIS1_ESaIS7_EE6_M_endEv
FN:512,_ZNSt8_Rb_treeIPKvSt4pairIKS1_N7testing8internal12CallReactionEESt10_Select1stIS7_ESt4lessIS1_ESaIS7_EE6_M_endEv
FN:512,_ZNSt8_Rb_treeIN7testing11ExpectationES1_St9_IdentityIS1_ENS1_4LessESaIS1_EE6_M_endEv
FN:512,_ZNSt8_Rb_treeIPN7testing8internal25UntypedFunctionMockerBaseES3_St9_IdentityIS3_ESt4lessIS3_ESaIS3_EE6_M_endEv
FN:516,_ZNKSt8_Rb_treeIPKvSt4pairIKS1_N7testing12_GLOBAL__N_115MockObjectStateEESt10_Select1stIS7_ESt4lessIS1_ESaIS7_EE6_M_endEv
FN:516,_ZNKSt8_Rb_treeIPKvSt4pairIKS1_N7testing8internal12CallReactionEESt10_Select1stIS7_ESt4lessIS1_ESaIS7_EE6_M_endEv
FN:520,_ZNSt8_Rb_treeIN7testing11ExpectationES1_St9_IdentityIS1_ENS1_4LessESaIS1_EE8_S_valueEPKSt13_Rb_tree_nodeIS1_E
FN:520,_ZNSt8_Rb_treeIPKvSt4pairIKS1_N7testing12_GLOBAL__N_115MockObjectStateEESt10_Select1stIS7_ESt4lessIS1_ESaIS7_EE8_S_valueEPKSt13_Rb_tree_nodeIS7_E
FN:520,_ZNSt8_Rb_treeIPN7testing8internal25UntypedFunctionMockerBaseES3_St9_IdentityIS3_ESt4lessIS3_ESaIS3_EE8_S_valueEPKSt13_Rb_tree_nodeIS3_E
FN:520,_ZNSt8_Rb_treeIPKvSt4pairIKS1_N7testing8internal12CallReactionEESt10_Select1stIS7_ESt4lessIS1_ESaIS7_EE8_S_valueEPKSt13_Rb_tree_nodeIS7_E
FN:524,_ZNSt8_Rb_treeIPKvSt4pairIKS1_N7testing12_GLOBAL__N_115MockObjectStateEESt10_Select1stIS7_ESt4lessIS1_ESaIS7_EE6_S_keyEPKSt13_Rb_tree_nodeIS7_E
FN:524,_ZNSt8_Rb_treeIN7testing11ExpectationES1_St9_IdentityIS1_ENS1_4LessESaIS1_EE6_S_keyEPKSt13_Rb_tree_nodeIS1_E
FN:524,_ZNSt8_Rb_treeIPN7testing8internal25UntypedFunctionMockerBaseES3_St9_IdentityIS3_ESt4lessIS3_ESaIS3_EE6_S_keyEPKSt13_Rb_tree_nodeIS3_E
FN:524,_ZNSt8_Rb_treeIPKvSt4pairIKS1_N7testing8internal12CallReactionEESt10_Select1stIS7_ESt4lessIS1_ESaIS7_EE6_S_keyEPKSt13_Rb_tree_nodeIS7_E
FN:528,_ZNSt8_Rb_treeIN7testing11ExpectationES1_St9_IdentityIS1_ENS1_4LessESaIS1_EE7_S_leftEPSt18_Rb_tree_node_base
FN:528,_ZNSt8_Rb_treeIPKvSt4pairIKS1_N7testing12_GLOBAL__N_115MockObjectStateEESt10_Select1stIS7_ESt4lessIS1_ESaIS7_EE7_S_leftEPSt18_Rb_tree_node_base
FN:528,_ZNSt8_Rb_treeIPN7testing8internal25UntypedFunctionMockerBaseES3_St9_IdentityIS3_ESt4lessIS3_ESaIS3_EE7_S_leftEPSt18_Rb_tree_node_base
FN:528,_ZNSt8_Rb_treeIPKvSt4pairIKS1_N7testing8internal12CallReactionEESt10_Select1stIS7_ESt4lessIS1_ESaIS7_EE7_S_leftEPSt18_Rb_tree_node_base
FN:532,_ZNSt8_Rb_treeIPKvSt4pairIKS1_N7testing12_GLOBAL__N_115MockObjectStateEESt10_Select1stIS7_ESt4lessIS1_ESaIS7_EE7_S_leftEPKSt18_Rb_tree_node_base
FN:532,_ZNSt8_Rb_treeIPKvSt4pairIKS1_N7testing8internal12CallReactionEESt10_Select1stIS7_ESt4lessIS1_ESaIS7_EE7_S_leftEPKSt18_Rb_tree_node_base
FN:536,_ZNSt8_Rb_treeIN7testing11ExpectationES1_St9_IdentityIS1_ENS1_4LessESaIS1_EE8_S_rightEPSt18_Rb_tree_node_base
FN:536,_ZNSt8_Rb_treeIPKvSt4pairIKS1_N7testing12_GLOBAL__N_115MockObjectStateEESt10_Select1stIS7_ESt4lessIS1_ESaIS7_EE8_S_rightEPSt18_Rb_tree_node_base
FN:536,_ZNSt8_Rb_treeIPN7testing8internal25UntypedFunctionMockerBaseES3_St9_IdentityIS3_ESt4lessIS3_ESaIS3_EE8_S_rightEPSt18_Rb_tree_node_base
FN:536,_ZNSt8_Rb_treeIPKvSt4pairIKS1_N7testing8internal12CallReactionEESt10_Select1stIS7_ESt4lessIS1_ESaIS7_EE8_S_rightEPSt18_Rb_tree_node_base
FN:540,_ZNSt8_Rb_treeIPKvSt4pairIKS1_N7testing12_GLOBAL__N_115MockObjectStateEESt10_Select1stIS7_ESt4lessIS1_ESaIS7_EE8_S_rightEPKSt18_Rb_tree_node_base
FN:540,_ZNSt8_Rb_treeIPKvSt4pairIKS1_N7testing8internal12CallReactionEESt10_Select1stIS7_ESt4lessIS1_ESaIS7_EE8_S_rightEPKSt18_Rb_tree_node_base
FN:544,_ZNSt8_Rb_treeIPKvSt4pairIKS1_N7testing8internal12CallReactionEESt10_Select1stIS7_ESt4lessIS1_ESaIS7_EE8_S_valueEPKSt18_Rb_tree_node_base
FN:544,_ZNSt8_Rb_treeIPN7testing8internal25UntypedFunctionMockerBaseES3_St9_IdentityIS3_ESt4lessIS3_ESaIS3_EE8_S_valueEPKSt18_Rb_tree_node_base
FN:544,_ZNSt8_Rb_treeIN7testing11ExpectationES1_St9_IdentityIS1_ENS1_4LessESaIS1_EE8_S_valueEPKSt18_Rb_tree_node_base
FN:544,_ZNSt8_Rb_treeIPKvSt4pairIKS1_N7testing12_GLOBAL__N_115MockObjectStateEESt10_Select1stIS7_ESt4lessIS1_ESaIS7_EE8_S_valueEPKSt18_Rb_tree_node_base
FN:548,_ZNSt8_Rb_treeIPKvSt4pairIKS1_N7testing12_GLOBAL__N_115MockObjectStateEESt10_Select1stIS7_ESt4lessIS1_ESaIS7_EE6_S_keyEPKSt18_Rb_tree_node_base
FN:548,_ZNSt8_Rb_treeIN7testing11ExpectationES1_St9_IdentityIS1_ENS1_4LessESaIS1_EE6_S_keyEPKSt18_Rb_tree_node_base
FN:548,_ZNSt8_Rb_treeIPN7testing8internal25UntypedFunctionMockerBaseES3_St9_IdentityIS3_ESt4lessIS3_ESaIS3_EE6_S_keyEPKSt18_Rb_tree_node_base
FN:548,_ZNSt8_Rb_treeIPKvSt4pairIKS1_N7testing8internal12CallReactionEESt10_Select1stIS7_ESt4lessIS1_ESaIS7_EE6_S_keyEPKSt18_Rb_tree_node_base
FN:648,_ZNSt8_Rb_treeIPN7testing8internal25UntypedFunctionMockerBaseES3_St9_IdentityIS3_ESt4lessIS3_ESaIS3_EEC2Ev
FN:648,_ZNSt8_Rb_treeIPKvSt4pairIKS1_N7testing12_GLOBAL__N_115MockObjectStateEESt10_Select1stIS7_ESt4lessIS1_ESaIS7_EEC2Ev
FN:648,_ZNSt8_Rb_treeIPKvSt4pairIKS1_N7testing8internal12CallReactionEESt10_Select1stIS7_ESt4lessIS1_ESaIS7_EEC2Ev
FN:648,_ZNSt8_Rb_treeIN7testing11ExpectationES1_St9_IdentityIS1_ENS1_4LessESaIS1_EEC2Ev
FN:670,_ZNSt8_Rb_treeIPKvSt4pairIKS1_N7testing8internal12CallReactionEESt10_Select1stIS7_ESt4lessIS1_ESaIS7_EED2Ev
FN:670,_ZNSt8_Rb_treeIN7testing11ExpectationES1_St9_IdentityIS1_ENS1_4LessESaIS1_EED2Ev
FN:670,_ZNSt8_Rb_treeIPN7testing8internal25UntypedFunctionMockerBaseES3_St9_IdentityIS3_ESt4lessIS3_ESaIS3_EED2Ev
FN:670,_ZNSt8_Rb_treeIPKvSt4pairIKS1_N7testing12_GLOBAL__N_115MockObjectStateEESt10_Select1stIS7_ESt4lessIS1_ESaIS7_EED2Ev
FN:678,_ZNKSt8_Rb_treeIPKvSt4pairIKS1_N7testing12_GLOBAL__N_115MockObjectStateEESt10_Select1stIS7_ESt4lessIS1_ESaIS7_EE8key_compEv
FN:678,_ZNKSt8_Rb_treeIPKvSt4pairIKS1_N7testing8internal12CallReactionEESt10_Select1stIS7_ESt4lessIS1_ESaIS7_EE8key_compEv
FN:682,_ZNSt8_Rb_treeIPKvSt4pairIKS1_N7testing8internal12CallReactionEESt10_Select1stIS7_ESt4lessIS1_ESaIS7_EE5beginEv
FN:682,_ZNSt8_Rb_treeIPN7testing8internal25UntypedFunctionMockerBaseES3_St9_IdentityIS3_ESt4lessIS3_ESaIS3_EE5beginEv
FN:682,_ZNSt8_Rb_treeIPKvSt4pairIKS1_N7testing12_GLOBAL__N_115MockObjectStateEESt10_Select1stIS7_ESt4lessIS1_ESaIS7_EE5beginEv
FN:682,_ZNSt8_Rb_treeIN7testing11ExpectationES1_St9_IdentityIS1_ENS1_4LessESaIS1_EE5beginEv
FN:689,_ZNKSt8_Rb_treeIN7testing11ExpectationES1_St9_IdentityIS1_ENS1_4LessESaIS1_EE5beginEv
FN:689,_ZNKSt8_Rb_treeIPN7testing8internal25UntypedFunctionMockerBaseES3_St9_IdentityIS3_ESt4lessIS3_ESaIS3_EE5beginEv
FN:696,_ZNSt8_Rb_treeIPN7testing8internal25UntypedFunctionMockerBaseES3_St9_IdentityIS3_ESt4lessIS3_ESaIS3_EE3endEv
FN:696,_ZNSt8_Rb_treeIPKvSt4pairIKS1_N7testing12_GLOBAL__N_115MockObjectStateEESt10_Select1stIS7_ESt4lessIS1_ESaIS7_EE3endEv
FN:696,_ZNSt8_Rb_treeIPKvSt4pairIKS1_N7testing8internal12CallReactionEESt10_Select1stIS7_ESt4lessIS1_ESaIS7_EE3endEv
FN:700,_ZNKSt8_Rb_treeIPN7testing8internal25UntypedFunctionMockerBaseES3_St9_IdentityIS3_ESt4lessIS3_ESaIS3_EE3endEv
FN:700,_ZNKSt8_Rb_treeIPKvSt4pairIKS1_N7testing8internal12CallReactionEESt10_Select1stIS7_ESt4lessIS1_ESaIS7_EE3endEv
FN:700,_ZNKSt8_Rb_treeIPKvSt4pairIKS1_N7testing12_GLOBAL__N_115MockObjectStateEESt10_Select1stIS7_ESt4lessIS1_ESaIS7_EE3endEv
FN:700,_ZNKSt8_Rb_treeIN7testing11ExpectationES1_St9_IdentityIS1_ENS1_4LessESaIS1_EE3endEv
FN:723,_ZNKSt8_Rb_treeIPN7testing8internal25UntypedFunctionMockerBaseES3_St9_IdentityIS3_ESt4lessIS3_ESaIS3_EE5emptyEv
FN:727,_ZNKSt8_Rb_treeIPN7testing8internal25UntypedFunctionMockerBaseES3_St9_IdentityIS3_ESt4lessIS3_ESaIS3_EE4sizeEv
FN:727,_ZNKSt8_Rb_treeIPKvSt4pairIKS1_N7testing12_GLOBAL__N_115MockObjectStateEESt10_Select1stIS7_ESt4lessIS1_ESaIS7_EE4sizeEv
FN:727,_ZNKSt8_Rb_treeIPKvSt4pairIKS1_N7testing8internal12CallReactionEESt10_Select1stIS7_ESt4lessIS1_ESaIS7_EE4sizeEv
FN:805,_ZNSt8_Rb_treeIPKvSt4pairIKS1_N7testing8internal12CallReactionEESt10_Select1stIS7_ESt4lessIS1_ESaIS7_EE5eraseB5cxx11ESt23_Rb_tree_const_iteratorIS7_E
FN:805,_ZNSt8_Rb_treeIPN7testing8internal25UntypedFunctionMockerBaseES3_St9_IdentityIS3_ESt4lessIS3_ESaIS3_EE5eraseB5cxx11ESt23_Rb_tree_const_iteratorIS3_E
FN:816,_ZNSt8_Rb_treeIPKvSt4pairIKS1_N7testing12_GLOBAL__N_115MockObjectStateEESt10_Select1stIS7_ESt4lessIS1_ESaIS7_EE5eraseB5cxx11ESt17_Rb_tree_iteratorIS7_E
FN:840,_ZNSt8_Rb_treeIPKvSt4pairIKS1_N7testing8internal12CallReactionEESt10_Select1stIS7_ESt4lessIS1_ESaIS7_EE5eraseB5cxx11ESt23_Rb_tree_const_iteratorIS7_ESF_
FN:840,_ZNSt8_Rb_treeIPN7testing8internal25UntypedFunctionMockerBaseES3_St9_IdentityIS3_ESt4lessIS3_ESaIS3_EE5eraseB5cxx11ESt23_Rb_tree_const_iteratorIS3_ESB_
FN:858,_ZNSt8_Rb_treeIPN7testing8internal25UntypedFunctionMockerBaseES3_St9_IdentityIS3_ESt4lessIS3_ESaIS3_EE5clearEv
FN:858,_ZNSt8_Rb_treeIPKvSt4pairIKS1_N7testing8internal12CallReactionEESt10_Select1stIS7_ESt4lessIS1_ESaIS7_EE5clearEv
FN:878,_ZNSt8_Rb_treeIPKvSt4pairIKS1_N7testing8internal12CallReactionEESt10_Select1stIS7_ESt4lessIS1_ESaIS7_EE11lower_boundERS3_
FN:878,_ZNSt8_Rb_treeIPKvSt4pairIKS1_N7testing12_GLOBAL__N_115MockObjectStateEESt10_Select1stIS7_ESt4lessIS1_ESaIS7_EE11lower_boundERS3_
FN:1012,_ZNSt8_Rb_treeIPN7testing8internal25UntypedFunctionMockerBaseES3_St9_IdentityIS3_ESt4lessIS3_ESaIS3_EE10_M_insert_IRKS3_EESt17_Rb_tree_iteratorIS3_EPSt18_Rb_tree_node_baseSG_OT_
FN:1012,_ZNSt8_Rb_treeIN7testing11ExpectationES1_St9_IdentityIS1_ENS1_4LessESaIS1_EE10_M_insert_IRKS1_EESt17_Rb_tree_iteratorIS1_EPSt18_Rb_tree_node_baseSD_OT_
FN:1119,_ZNSt8_Rb_treeIPN7testing8internal25UntypedFunctionMockerBaseES3_St9_IdentityIS3_ESt4lessIS3_ESaIS3_EE8_M_eraseEPSt13_Rb_tree_nodeIS3_E
FN:1119,_ZNSt8_Rb_treeIPKvSt4pairIKS1_N7testing12_GLOBAL__N_115MockObjectStateEESt10_Select1stIS7_ESt4lessIS1_ESaIS7_EE8_M_eraseEPSt13_Rb_tree_nodeIS7_E
FN:1119,_ZNSt8_Rb_treeIN7testing11ExpectationES1_St9_IdentityIS1_ENS1_4LessESaIS1_EE8_M_eraseEPSt13_Rb_tree_nodeIS1_E
FN:1119,_ZNSt8_Rb_treeIPKvSt4pairIKS1_N7testing8internal12CallReactionEESt10_Select1stIS7_ESt4lessIS1_ESaIS7_EE8_M_eraseEPSt13_Rb_tree_nodeIS7_E
FN:1136,_ZNSt8_Rb_treeIPKvSt4pairIKS1_N7testing12_GLOBAL__N_115MockObjectStateEESt10_Select1stIS7_ESt4lessIS1_ESaIS7_EE14_M_lower_boundEPSt13_Rb_tree_nodeIS7_ESG_RS3_
FN:1136,_ZNSt8_Rb_treeIPKvSt4pairIKS1_N7testing8internal12CallReactionEESt10_Select1stIS7_ESt4lessIS1_ESaIS7_EE14_M_lower_boundEPSt13_Rb_tree_nodeIS7_ESG_RS3_
FN:1136,_ZNSt8_Rb_treeIPN7testing8internal25UntypedFunctionMockerBaseES3_St9_IdentityIS3_ESt4lessIS3_ESaIS3_EE14_M_lower_boundEPSt13_Rb_tree_nodeIS3_ESC_RKS3_
FN:1152,_ZNKSt8_Rb_treeIPKvSt4pairIKS1_N7testing8internal12CallReactionEESt10_Select1stIS7_ESt4lessIS1_ESaIS7_EE14_M_lower_boundEPKSt13_Rb_tree_nodeIS7_ESH_RS3_
FN:1152,_ZNKSt8_Rb_treeIPKvSt4pairIKS1_N7testing12_GLOBAL__N_115MockObjectStateEESt10_Select1stIS7_ESt4lessIS1_ESaIS7_EE14_M_lower_boundEPKSt13_Rb_tree_nodeIS7_ESH_RS3_
FN:1168,_ZNSt8_Rb_treeIPKvSt4pairIKS1_N7testing8internal12CallReactionEESt10_Select1stIS7_ESt4lessIS1_ESaIS7_EE14_M_upper_boundEPSt13_Rb_tree_nodeIS7_ESG_RS3_
FN:1168,_ZNSt8_Rb_treeIPN7testing8internal25UntypedFunctionMockerBaseES3_St9_IdentityIS3_ESt4lessIS3_ESaIS3_EE14_M_upper_boundEPSt13_Rb_tree_nodeIS3_ESC_RKS3_
FN:1202,_ZNSt8_Rb_treeIPN7testing8internal25UntypedFunctionMockerBaseES3_St9_IdentityIS3_ESt4lessIS3_ESaIS3_EE11equal_rangeERKS3_
FN:1202,_ZNSt8_Rb_treeIPKvSt4pairIKS1_N7testing8internal12CallReactionEESt10_Select1stIS7_ESt4lessIS1_ESaIS7_EE11equal_rangeERS3_
FN:1314,_ZNSt8_Rb_treeIPN7testing8internal25UntypedFunctionMockerBaseES3_St9_IdentityIS3_ESt4lessIS3_ESaIS3_EE24_M_get_insert_unique_posERKS3_
FN:1314,_ZNSt8_Rb_treeIN7testing11ExpectationES1_St9_IdentityIS1_ENS1_4LessESaIS1_EE24_M_get_insert_unique_posERKS1_
FN:1314,_ZNSt8_Rb_treeIPKvSt4pairIKS1_N7testing12_GLOBAL__N_115MockObjectStateEESt10_Select1stIS7_ESt4lessIS1_ESaIS7_EE24_M_get_insert_unique_posERS3_
FN:1314,_ZNSt8_Rb_treeIPKvSt4pairIKS1_N7testing8internal12CallReactionEESt10_Select1stIS7_ESt4lessIS1_ESaIS7_EE24_M_get_insert_unique_posERS3_
FN:1368,_ZNSt8_Rb_treeIPN7testing8internal25UntypedFunctionMockerBaseES3_St9_IdentityIS3_ESt4lessIS3_ESaIS3_EE16_M_insert_uniqueIRKS3_EESt4pairISt17_Rb_tree_iteratorIS3_EbEOT_
FN:1368,_ZNSt8_Rb_treeIN7testing11ExpectationES1_St9_IdentityIS1_ENS1_4LessESaIS1_EE16_M_insert_uniqueIRKS1_EESt4pairISt17_Rb_tree_iteratorIS1_EbEOT_
FN:1411,_ZNSt8_Rb_treeIPKvSt4pairIKS1_N7testing12_GLOBAL__N_115MockObjectStateEESt10_Select1stIS7_ESt4lessIS1_ESaIS7_EE29_M_get_insert_hint_unique_posESt23_Rb_tree_const_iteratorIS7_ERS3_
FN:1411,_ZNSt8_Rb_treeIPKvSt4pairIKS1_N7testing8internal12CallReactionEESt10_Select1stIS7_ESt4lessIS1_ESaIS7_EE29_M_get_insert_hint_unique_posESt23_Rb_tree_const_iteratorIS7_ERS3_
FN:1568,_ZNSt8_Rb_treeIPKvSt4pairIKS1_N7testing12_GLOBAL__N_115MockObjectStateEESt10_Select1stIS7_ESt4lessIS1_ESaIS7_EE14_M_insert_nodeEPSt18_Rb_tree_node_baseSF_PSt13_Rb_tree_nodeIS7_E
FN:1568,_ZNSt8_Rb_treeIPKvSt4pairIKS1_N7testing8internal12CallReactionEESt10_Select1stIS7_ESt4lessIS1_ESaIS7_EE14_M_insert_nodeEPSt18_Rb_tree_node_baseSF_PSt13_Rb_tree_nodeIS7_E
FN:1666,_ZNSt8_Rb_treeIPKvSt4pairIKS1_N7testing12_GLOBAL__N_115MockObjectStateEESt10_Select1stIS7_ESt4lessIS1_ESaIS7_EE22_M_emplace_hint_uniqueIIRKSt21piecewise_construct_tSt5tupleIIRS3_EESI_IIEEEEESt17_Rb_tree_iteratorIS7_ESt23_Rb_tree_const_iteratorIS7_EDpOT_
FN:1666,_ZNSt8_Rb_treeIPKvSt4pairIKS1_N7testing8internal12CallReactionEESt10_Select1stIS7_ESt4lessIS1_ESaIS7_EE22_M_emplace_hint_uniqueIIRKSt21piecewise_construct_tSt5tupleIIRS3_EESI_IIEEEEESt17_Rb_tree_iteratorIS7_ESt23_Rb_tree_const_iteratorIS7_EDpOT_
FN:1666,_ZNSt8_Rb_treeIPKvSt4pairIKS1_N7testing12_GLOBAL__N_115MockObjectStateEESt10_Select1stIS7_ESt4lessIS1_ESaIS7_EE22_M_emplace_hint_uniqueIIRKSt21piecewise_construct_tSt5tupleIIOS1_EESI_IIEEEEESt17_Rb_tree_iteratorIS7_ESt23_Rb_tree_const_iteratorIS7_EDpOT_
FN:1739,_ZNSt8_Rb_treeIPKvSt4pairIKS1_N7testing8internal12CallReactionEESt10_Select1stIS7_ESt4lessIS1_ESaIS7_EE12_M_erase_auxESt23_Rb_tree_const_iteratorIS7_E
FN:1739,_ZNSt8_Rb_treeIPN7testing8internal25UntypedFunctionMockerBaseES3_St9_IdentityIS3_ESt4lessIS3_ESaIS3_EE12_M_erase_auxESt23_Rb_tree_const_iteratorIS3_E
FN:1739,_ZNSt8_Rb_treeIPKvSt4pairIKS1_N7testing12_GLOBAL__N_115MockObjectStateEESt10_Select1stIS7_ESt4lessIS1_ESaIS7_EE12_M_erase_auxESt23_Rb_tree_const_iteratorIS7_E
FN:1753,_ZNSt8_Rb_treeIPKvSt4pairIKS1_N7testing8internal12CallReactionEESt10_Select1stIS7_ESt4lessIS1_ESaIS7_EE12_M_erase_auxESt23_Rb_tree_const_iteratorIS7_ESF_
FN:1753,_ZNSt8_Rb_treeIPN7testing8internal25UntypedFunctionMockerBaseES3_St9_IdentityIS3_ESt4lessIS3_ESaIS3_EE12_M_erase_auxESt23_Rb_tree_const_iteratorIS3_ESB_
FN:1766,_ZNSt8_Rb_treeIPN7testing8internal25UntypedFunctionMockerBaseES3_St9_IdentityIS3_ESt4lessIS3_ESaIS3_EE5eraseERKS3_
FN:1766,_ZNSt8_Rb_treeIPKvSt4pairIKS1_N7testing8internal12CallReactionEESt10_Select1stIS7_ESt4lessIS1_ESaIS7_EE5eraseERS3_
FN:1802,_ZNKSt8_Rb_treeIPKvSt4pairIKS1_N7testing12_GLOBAL__N_115MockObjectStateEESt10_Select1stIS7_ESt4lessIS1_ESaIS7_EE4findERS3_
FN:1802,_ZNKSt8_Rb_treeIPKvSt4pairIKS1_N7testing8internal12CallReactionEESt10_Select1stIS7_ESt4lessIS1_ESaIS7_EE4findERS3_
FNDA:0,_ZNSt13_Rb_tree_nodeISt4pairIKPKvN7testing12_GLOBAL__N_115MockObjectStateEEED2Ev
FNDA:0,_ZNSt13_Rb_tree_nodeIN7testing11ExpectationEED2Ev
FNDA:0,_ZNSt13_Rb_tree_nodeIPN7testing8internal25UntypedFunctionMockerBaseEEC2IIRKS3_EEEDpOT_
FNDA:0,_ZNSt13_Rb_tree_nodeIN7testing11ExpectationEEC2IIRKS1_EEEDpOT_
FNDA:0,_ZNSt13_Rb_tree_nodeISt4pairIKPKvN7testing12_GLOBAL__N_115MockObjectStateEEEC2IIRKSt21piecewise_construct_tSt5tupleIIOS2_EESD_IIEEEEEDpOT_
FNDA:0,_ZNSt13_Rb_tree_nodeISt4pairIKPKvN7testing12_GLOBAL__N_115MockObjectStateEEEC2IIRKSt21piecewise_construct_tSt5tupleIIRS3_EESD_IIEEEEEDpOT_
FNDA:0,_ZNSt13_Rb_tree_nodeISt4pairIKPKvN7testing8internal12CallReactionEEEC2IIRKSt21piecewise_construct_tSt5tupleIIRS3_EESD_IIEEEEEDpOT_
FNDA:0,_ZNSt17_Rb_tree_iteratorIPN7testing8internal25UntypedFunctionMockerBaseEEC2EPSt13_Rb_tree_nodeIS3_E
FNDA:0,_ZNSt17_Rb_tree_iteratorISt4pairIKPKvN7testing8internal12CallReactionEEEC2EPSt13_Rb_tree_nodeIS7_E
FNDA:2,_ZNSt17_Rb_tree_iteratorISt4pairIKPKvN7testing12_GLOBAL__N_115MockObjectStateEEEC2EPSt13_Rb_tree_nodeIS7_E
FNDA:0,_ZNSt17_Rb_tree_iteratorIN7testing11ExpectationEEC2EPSt13_Rb_tree_nodeIS1_E
FNDA:0,_ZNKSt17_Rb_tree_iteratorISt4pairIKPKvN7testing12_GLOBAL__N_115MockObjectStateEEEdeEv
FNDA:0,_ZNKSt17_Rb_tree_iteratorISt4pairIKPKvN7testing8internal12CallReactionEEEdeEv
FNDA:0,_ZNKSt17_Rb_tree_iteratorISt4pairIKPKvN7testing12_GLOBAL__N_115MockObjectStateEEEptEv
FNDA:0,_ZNSt17_Rb_tree_iteratorISt4pairIKPKvN7testing8internal12CallReactionEEEppEv
FNDA:0,_ZNSt17_Rb_tree_iteratorISt4pairIKPKvN7testing12_GLOBAL__N_115MockObjectStateEEEppEv
FNDA:0,_ZNSt17_Rb_tree_iteratorIPN7testing8internal25UntypedFunctionMockerBaseEEmmEv
FNDA:0,_ZNSt17_Rb_tree_iteratorISt4pairIKPKvN7testing12_GLOBAL__N_115MockObjectStateEEEmmEv
FNDA:0,_ZNSt17_Rb_tree_iteratorISt4pairIKPKvN7testing8internal12CallReactionEEEmmEv
FNDA:0,_ZNSt17_Rb_tree_iteratorIN7testing11ExpectationEEmmEv
FNDA:0,_ZNKSt17_Rb_tree_iteratorIPN7testing8internal25UntypedFunctionMockerBaseEEeqERKS4_
FNDA:0,_ZNKSt17_Rb_tree_iteratorIN7testing11ExpectationEEeqERKS2_
FNDA:0,_ZNKSt17_Rb_tree_iteratorISt4pairIKPKvN7testing12_GLOBAL__N_115MockObjectStateEEEeqERKS8_
FNDA:0,_ZNKSt17_Rb_tree_iteratorISt4pairIKPKvN7testing8internal12CallReactionEEEeqERKS8_
FNDA:0,_ZNKSt17_Rb_tree_iteratorISt4pairIKPKvN7testing12_GLOBAL__N_115MockObjectStateEEEneERKS8_
FNDA:0,_ZNSt23_Rb_tree_const_iteratorIPN7testing8internal25UntypedFunctionMockerBaseEEC2EPKSt13_Rb_tree_nodeIS3_E
FNDA:0,_ZNSt23_Rb_tree_const_iteratorISt4pairIKPKvN7testing12_GLOBAL__N_115MockObjectStateEEEC2EPKSt13_Rb_tree_nodeIS7_E
FNDA:0,_ZNSt23_Rb_tree_const_iteratorISt4pairIKPKvN7testing8internal12CallReactionEEEC2EPKSt13_Rb_tree_nodeIS7_E
FNDA:0,_ZNSt23_Rb_tree_const_iteratorIN7testing11ExpectationEEC2EPKSt13_Rb_tree_nodeIS1_E
FNDA:0,_ZNSt23_Rb_tree_const_iteratorIPN7testing8internal25UntypedFunctionMockerBaseEEC2ERKSt17_Rb_tree_iteratorIS3_E
FNDA:0,_ZNSt23_Rb_tree_const_iteratorISt4pairIKPKvN7testing8internal12CallReactionEEEC2ERKSt17_Rb_tree_iteratorIS7_E
FNDA:0,_ZNSt23_Rb_tree_const_iteratorIN7testing11ExpectationEEC2ERKSt17_Rb_tree_iteratorIS1_E
FNDA:2,_ZNSt23_Rb_tree_const_iteratorISt4pairIKPKvN7testing12_GLOBAL__N_115MockObjectStateEEEC2ERKSt17_Rb_tree_iteratorIS7_E
FNDA:0,_ZNKSt23_Rb_tree_const_iteratorIPN7testing8internal25UntypedFunctionMockerBaseEE13_M_const_castEv
FNDA:0,_ZNKSt23_Rb_tree_const_iteratorISt4pairIKPKvN7testing12_GLOBAL__N_115MockObjectStateEEE13_M_const_castEv
FNDA:0,_ZNKSt23_Rb_tree_const_iteratorISt4pairIKPKvN7testing8internal12CallReactionEEE13_M_const_castEv
FNDA:0,_ZNKSt23_Rb_tree_const_iteratorIPN7testing8internal25UntypedFunctionMockerBaseEEdeEv
FNDA:0,_ZNKSt23_Rb_tree_const_iteratorIN7testing11ExpectationEEdeEv
FNDA:0,_ZNKSt23_Rb_tree_const_iteratorISt4pairIKPKvN7testing12_GLOBAL__N_115MockObjectStateEEEptEv
FNDA:0,_ZNKSt23_Rb_tree_const_iteratorIN7testing11ExpectationEEptEv
FNDA:0,_ZNSt23_Rb_tree_const_iteratorISt4pairIKPKvN7testing8internal12CallReactionEEEppEv
FNDA:0,_ZNSt23_Rb_tree_const_iteratorIPN7testing8internal25UntypedFunctionMockerBaseEEppEv
FNDA:0,_ZNSt23_Rb_tree_const_iteratorISt4pairIKPKvN7testing12_GLOBAL__N_115MockObjectStateEEEppEv
FNDA:0,_ZNSt23_Rb_tree_const_iteratorIN7testing11ExpectationEEppEv
FNDA:0,_ZNSt23_Rb_tree_const_iteratorIPN7testing8internal25UntypedFunctionMockerBaseEEppEi
FNDA:0,_ZNSt23_Rb_tree_const_iteratorISt4pairIKPKvN7testing8internal12CallReactionEEEppEi
FNDA:0,_ZNKSt23_Rb_tree_const_iteratorIPN7testing8internal25UntypedFunctionMockerBaseEEeqERKS4_
FNDA:0,_ZNKSt23_Rb_tree_const_iteratorISt4pairIKPKvN7testing12_GLOBAL__N_115MockObjectStateEEEeqERKS8_
FNDA:0,_ZNKSt23_Rb_tree_const_iteratorISt4pairIKPKvN7testing8internal12CallReactionEEEeqERKS8_
FNDA:0,_ZNKSt23_Rb_tree_const_iteratorISt4pairIKPKvN7testing8internal12CallReactionEEEneERKS8_
FNDA:0,_ZNKSt23_Rb_tree_const_iteratorIPN7testing8internal25UntypedFunctionMockerBaseEEneERKS4_
FNDA:1,_ZNKSt23_Rb_tree_const_iteratorISt4pairIKPKvN7testing12_GLOBAL__N_115MockObjectStateEEEneERKS8_
FNDA:0,_ZNKSt23_Rb_tree_const_iteratorIN7testing11ExpectationEEneERKS2_
FNDA:0,_ZNSt8_Rb_treeIPKvSt4pairIKS1_N7testing8internal12CallReactionEESt10_Select1stIS7_ESt4lessIS1_ESaIS7_EE21_M_get_Node_allocatorEv
FNDA:0,_ZNSt8_Rb_treeIPKvSt4pairIKS1_N7testing12_GLOBAL__N_115MockObjectStateEESt10_Select1stIS7_ESt4lessIS1_ESaIS7_EE21_M_get_Node_allocatorEv
FNDA:0,_ZNSt8_Rb_treeIPN7testing8internal25UntypedFunctionMockerBaseES3_St9_IdentityIS3_ESt4lessIS3_ESaIS3_EE21_M_get_Node_allocatorEv
FNDA:0,_ZNSt8_Rb_treeIN7testing11ExpectationES1_St9_IdentityIS1_ENS1_4LessESaIS1_EE21_M_get_Node_allocatorEv
FNDA:0,_ZNSt8_Rb_treeIPN7testing8internal25UntypedFunctionMockerBaseES3_St9_IdentityIS3_ESt4lessIS3_ESaIS3_EE11_M_get_nodeEv
FNDA:0,_ZNSt8_Rb_treeIN7testing11ExpectationES1_St9_IdentityIS1_ENS1_4LessESaIS1_EE11_M_get_nodeEv
FNDA:0,_ZNSt8_Rb_treeIPKvSt4pairIKS1_N7testing12_GLOBAL__N_115MockObjectStateEESt10_Select1stIS7_ESt4lessIS1_ESaIS7_EE11_M_get_nodeEv
FNDA:0,_ZNSt8_Rb_treeIPKvSt4pairIKS1_N7testing8internal12CallReactionEESt10_Select1stIS7_ESt4lessIS1_ESaIS7_EE11_M_get_nodeEv
FNDA:0,_ZNSt8_Rb_treeIPKvSt4pairIKS1_N7testing8internal12CallReactionEESt10_Select1stIS7_ESt4lessIS1_ESaIS7_EE11_M_put_nodeEPSt13_Rb_tree_nodeIS7_E
FNDA:0,_ZNSt8_Rb_treeIPKvSt4pairIKS1_N7testing12_GLOBAL__N_115MockObjectStateEESt10_Select1stIS7_ESt4lessIS1_ESaIS7_EE11_M_put_nodeEPSt13_Rb_tree_nodeIS7_E
FNDA:0,_ZNSt8_Rb_treeIPN7testing8internal25UntypedFunctionMockerBaseES3_St9_IdentityIS3_ESt4lessIS3_ESaIS3_EE11_M_put_nodeEPSt13_Rb_tree_nodeIS3_E
FNDA:0,_ZNSt8_Rb_treeIN7testing11ExpectationES1_St9_IdentityIS1_ENS1_4LessESaIS1_EE11_M_put_nodeEPSt13_Rb_tree_nodeIS1_E
FNDA:0,_ZNSt8_Rb_treeIPN7testing8internal25UntypedFunctionMockerBaseES3_St9_IdentityIS3_ESt4lessIS3_ESaIS3_EE14_M_create_nodeIIRKS3_EEEPSt13_Rb_tree_nodeIS3_EDpOT_
FNDA:0,_ZNSt8_Rb_treeIN7testing11ExpectationES1_St9_IdentityIS1_ENS1_4LessESaIS1_EE14_M_create_nodeIIRKS1_EEEPSt13_Rb_tree_nodeIS1_EDpOT_
FNDA:0,_ZNSt8_Rb_treeIPKvSt4pairIKS1_N7testing12_GLOBAL__N_115MockObjectStateEESt10_Select1stIS7_ESt4lessIS1_ESaIS7_EE14_M_create_nodeIIRKSt21piecewise_construct_tSt5tupleIIOS1_EESI_IIEEEEEPSt13_Rb_tree_nodeIS7_EDpOT_
FNDA:0,_ZNSt8_Rb_treeIPKvSt4pairIKS1_N7testing12_GLOBAL__N_115MockObjectStateEESt10_Select1stIS7_ESt4lessIS1_ESaIS7_EE14_M_create_nodeIIRKSt21piecewise_construct_tSt5tupleIIRS3_EESI_IIEEEEEPSt13_Rb_tree_nodeIS7_EDpOT_
FNDA:0,_ZNSt8_Rb_treeIPKvSt4pairIKS1_N7testing8internal12CallReactionEESt10_Select1stIS7_ESt4lessIS1_ESaIS7_EE14_M_create_nodeIIRKSt21piecewise_construct_tSt5tupleIIRS3_EESI_IIEEEEEPSt13_Rb_tree_nodeIS7_EDpOT_
FNDA:0,_ZNSt8_Rb_treeIPKvSt4pairIKS1_N7testing8internal12CallReactionEESt10_Select1stIS7_ESt4lessIS1_ESaIS7_EE15_M_destroy_nodeEPSt13_Rb_tree_nodeIS7_E
FNDA:0,_ZNSt8_Rb_treeIPKvSt4pairIKS1_N7testing12_GLOBAL__N_115MockObjectStateEESt10_Select1stIS7_ESt4lessIS1_ESaIS7_EE15_M_destroy_nodeEPSt13_Rb_tree_nodeIS7_E
FNDA:0,_ZNSt8_Rb_treeIPN7testing8internal25UntypedFunctionMockerBaseES3_St9_IdentityIS3_ESt4lessIS3_ESaIS3_EE15_M_destroy_nodeEPSt13_Rb_tree_nodeIS3_E
FNDA:0,_ZNSt8_Rb_treeIN7testing11ExpectationES1_St9_IdentityIS1_ENS1_4LessESaIS1_EE15_M_destroy_nodeEPSt13_Rb_tree_nodeIS1_E
FNDA:1,_ZNSt8_Rb_treeIPKvSt4pairIKS1_N7testing8internal12CallReactionEESt10_Select1stIS7_ESt4lessIS1_ESaIS7_EE13_Rb_tree_implISB_Lb1EED2Ev
FNDA:1,_ZNSt8_Rb_treeIPKvSt4pairIKS1_N7testing12_GLOBAL__N_115MockObjectStateEESt10_Select1stIS7_ESt4lessIS1_ESaIS7_EE13_Rb_tree_implISB_Lb1EED2Ev
FNDA:0,_ZNSt8_Rb_treeIPN7testing8internal25UntypedFunctionMockerBaseES3_St9_IdentityIS3_ESt4lessIS3_ESaIS3_EE13_Rb_tree_implIS7_Lb1EED2Ev
FNDA:0,_ZNSt8_Rb_treeIN7testing11ExpectationES1_St9_IdentityIS1_ENS1_4LessESaIS1_EE13_Rb_tree_implIS4_Lb1EED2Ev
FNDA:1,_ZNSt8_Rb_treeIPKvSt4pairIKS1_N7testing8internal12CallReactionEESt10_Select1stIS7_ESt4lessIS1_ESaIS7_EE13_Rb_tree_implISB_Lb1EEC2Ev
FNDA:1,_ZNSt8_Rb_treeIPKvSt4pairIKS1_N7testing12_GLOBAL__N_115MockObjectStateEESt10_Select1stIS7_ESt4lessIS1_ESaIS7_EE13_Rb_tree_implISB_Lb1EEC2Ev
FNDA:0,_ZNSt8_Rb_treeIPN7testing8internal25UntypedFunctionMockerBaseES3_St9_IdentityIS3_ESt4lessIS3_ESaIS3_EE13_Rb_tree_implIS7_Lb1EEC2Ev
FNDA:0,_ZNSt8_Rb_treeIN7testing11ExpectationES1_St9_IdentityIS1_ENS1_4LessESaIS1_EE13_Rb_tree_implIS4_Lb1EEC2Ev
FNDA:1,_ZNSt8_Rb_treeIPKvSt4pairIKS1_N7testing8internal12CallReactionEESt10_Select1stIS7_ESt4lessIS1_ESaIS7_EE13_Rb_tree_implISB_Lb1EE13_M_initializeEv
FNDA:1,_ZNSt8_Rb_treeIPKvSt4pairIKS1_N7testing12_GLOBAL__N_115MockObjectStateEESt10_Select1stIS7_ESt4lessIS1_ESaIS7_EE13_Rb_tree_implISB_Lb1EE13_M_initializeEv
FNDA:0,_ZNSt8_Rb_treeIPN7testing8internal25UntypedFunctionMockerBaseES3_St9_IdentityIS3_ESt4lessIS3_ESaIS3_EE13_Rb_tree_implIS7_Lb1EE13_M_initializeEv
FNDA:0,_ZNSt8_Rb_treeIN7testing11ExpectationES1_St9_IdentityIS1_ENS1_4LessESaIS1_EE13_Rb_tree_implIS4_Lb1EE13_M_initializeEv
FNDA:0,_ZNSt8_Rb_treeIPN7testing8internal25UntypedFunctionMockerBaseES3_St9_IdentityIS3_ESt4lessIS3_ESaIS3_EE7_M_rootEv
FNDA:0,_ZNSt8_Rb_treeIPKvSt4pairIKS1_N7testing8internal12CallReactionEESt10_Select1stIS7_ESt4lessIS1_ESaIS7_EE7_M_rootEv
FNDA:0,_ZNSt8_Rb_treeIPN7testing8internal25UntypedFunctionMockerBaseES3_St9_IdentityIS3_ESt4lessIS3_ESaIS3_EE11_M_leftmostEv
FNDA:0,_ZNSt8_Rb_treeIPKvSt4pairIKS1_N7testing12_GLOBAL__N_115MockObjectStateEESt10_Select1stIS7_ESt4lessIS1_ESaIS7_EE11_M_leftmostEv
FNDA:0,_ZNSt8_Rb_treeIPKvSt4pairIKS1_N7testing8internal12CallReactionEESt10_Select1stIS7_ESt4lessIS1_ESaIS7_EE11_M_leftmostEv
FNDA:0,_ZNSt8_Rb_treeIPN7testing8internal25UntypedFunctionMockerBaseES3_St9_IdentityIS3_ESt4lessIS3_ESaIS3_EE12_M_rightmostEv
FNDA:0,_ZNSt8_Rb_treeIPKvSt4pairIKS1_N7testing12_GLOBAL__N_115MockObjectStateEESt10_Select1stIS7_ESt4lessIS1_ESaIS7_EE12_M_rightmostEv
FNDA:0,_ZNSt8_Rb_treeIPKvSt4pairIKS1_N7testing8internal12CallReactionEESt10_Select1stIS7_ESt4lessIS1_ESaIS7_EE12_M_rightmostEv
FNDA:1,_ZNSt8_Rb_treeIPKvSt4pairIKS1_N7testing8internal12CallReactionEESt10_Select1stIS7_ESt4lessIS1_ESaIS7_EE8_M_beginEv
FNDA:1,_ZNSt8_Rb_treeIPKvSt4pairIKS1_N7testing12_GLOBAL__N_115MockObjectStateEESt10_Select1stIS7_ESt4lessIS1_ESaIS7_EE8_M_beginEv
FNDA:0,_ZNSt8_Rb_treeIPN7testing8internal25UntypedFunctionMockerBaseES3_St9_IdentityIS3_ESt4lessIS3_ESaIS3_EE8_M_beginEv
FNDA:0,_ZNSt8_Rb_treeIN7testing11ExpectationES1_St9_IdentityIS1_ENS1_4LessESaIS1_EE8_M_beginEv
FNDA:0,_ZNKSt8_Rb_treeIPKvSt4pairIKS1_N7testing12_GLOBAL__N_115MockObjectStateEESt10_Select1stIS7_ESt4lessIS1_ESaIS7_EE8_M_beginEv
FNDA:0,_ZNKSt8_Rb_treeIPKvSt4pairIKS1_N7testing8internal12CallReactionEESt10_Select1stIS7_ESt4lessIS1_ESaIS7_EE8_M_beginEv
FNDA:0,_ZNSt8_Rb_treeIPN7testing8internal25UntypedFunctionMockerBaseES3_St9_IdentityIS3_ESt4lessIS3_ESaIS3_EE6_M_endEv
FNDA:0,_ZNSt8_Rb_treeIPKvSt4pairIKS1_N7testing12_GLOBAL__N_115MockObjectStateEESt10_Select1stIS7_ESt4lessIS1_ESaIS7_EE6_M_endEv
FNDA:0,_ZNSt8_Rb_treeIPKvSt4pairIKS1_N7testing8internal12CallReactionEESt10_Select1stIS7_ESt4lessIS1_ESaIS7_EE6_M_endEv
FNDA:0,_ZNSt8_Rb_treeIN7testing11ExpectationES1_St9_IdentityIS1_ENS1_4LessESaIS1_EE6_M_endEv
FNDA:0,_ZNKSt8_Rb_treeIPKvSt4pairIKS1_N7testing12_GLOBAL__N_115MockObjectStateEESt10_Select1stIS7_ESt4lessIS1_ESaIS7_EE6_M_endEv
FNDA:0,_ZNKSt8_Rb_treeIPKvSt4pairIKS1_N7testing8internal12CallReactionEESt10_Select1stIS7_ESt4lessIS1_ESaIS7_EE6_M_endEv
FNDA:0,_ZNSt8_Rb_treeIPN7testing8internal25UntypedFunctionMockerBaseES3_St9_IdentityIS3_ESt4lessIS3_ESaIS3_EE8_S_valueEPKSt13_Rb_tree_nodeIS3_E
FNDA:0,_ZNSt8_Rb_treeIN7testing11ExpectationES1_St9_IdentityIS1_ENS1_4LessESaIS1_EE8_S_valueEPKSt13_Rb_tree_nodeIS1_E
FNDA:0,_ZNSt8_Rb_treeIPKvSt4pairIKS1_N7testing12_GLOBAL__N_115MockObjectStateEESt10_Select1stIS7_ESt4lessIS1_ESaIS7_EE8_S_valueEPKSt13_Rb_tree_nodeIS7_E
FNDA:0,_ZNSt8_Rb_treeIPKvSt4pairIKS1_N7testing8internal12CallReactionEESt10_Select1stIS7_ESt4lessIS1_ESaIS7_EE8_S_valueEPKSt13_Rb_tree_nodeIS7_E
FNDA:0,_ZNSt8_Rb_treeIPN7testing8internal25UntypedFunctionMockerBaseES3_St9_IdentityIS3_ESt4lessIS3_ESaIS3_EE6_S_keyEPKSt13_Rb_tree_nodeIS3_E
FNDA:0,_ZNSt8_Rb_treeIN7testing11ExpectationES1_St9_IdentityIS1_ENS1_4LessESaIS1_EE6_S_keyEPKSt13_Rb_tree_nodeIS1_E
FNDA:0,_ZNSt8_Rb_treeIPKvSt4pairIKS1_N7testing12_GLOBAL__N_115MockObjectStateEESt10_Select1stIS7_ESt4lessIS1_ESaIS7_EE6_S_keyEPKSt13_Rb_tree_nodeIS7_E
FNDA:0,_ZNSt8_Rb_treeIPKvSt4pairIKS1_N7testing8internal12CallReactionEESt10_Select1stIS7_ESt4lessIS1_ESaIS7_EE6_S_keyEPKSt13_Rb_tree_nodeIS7_E
FNDA:0,_ZNSt8_Rb_treeIPKvSt4pairIKS1_N7testing8internal12CallReactionEESt10_Select1stIS7_ESt4lessIS1_ESaIS7_EE7_S_leftEPSt18_Rb_tree_node_base
FNDA:0,_ZNSt8_Rb_treeIPKvSt4pairIKS1_N7testing12_GLOBAL__N_115MockObjectStateEESt10_Select1stIS7_ESt4lessIS1_ESaIS7_EE7_S_leftEPSt18_Rb_tree_node_base
FNDA:0,_ZNSt8_Rb_treeIPN7testing8internal25UntypedFunctionMockerBaseES3_St9_IdentityIS3_ESt4lessIS3_ESaIS3_EE7_S_leftEPSt18_Rb_tree_node_base
FNDA:0,_ZNSt8_Rb_treeIN7testing11ExpectationES1_St9_IdentityIS1_ENS1_4LessESaIS1_EE7_S_leftEPSt18_Rb_tree_node_base
FNDA:0,_ZNSt8_Rb_treeIPKvSt4pairIKS1_N7testing12_GLOBAL__N_115MockObjectStateEESt10_Select1stIS7_ESt4lessIS1_ESaIS7_EE7_S_leftEPKSt18_Rb_tree_node_base
FNDA:0,_ZNSt8_Rb_treeIPKvSt4pairIKS1_N7testing8internal12CallReactionEESt10_Select1stIS7_ESt4lessIS1_ESaIS7_EE7_S_leftEPKSt18_Rb_tree_node_base
FNDA:0,_ZNSt8_Rb_treeIPKvSt4pairIKS1_N7testing8internal12CallReactionEESt10_Select1stIS7_ESt4lessIS1_ESaIS7_EE8_S_rightEPSt18_Rb_tree_node_base
FNDA:0,_ZNSt8_Rb_treeIPKvSt4pairIKS1_N7testing12_GLOBAL__N_115MockObjectStateEESt10_Select1stIS7_ESt4lessIS1_ESaIS7_EE8_S_rightEPSt18_Rb_tree_node_base
FNDA:0,_ZNSt8_Rb_treeIPN7testing8internal25UntypedFunctionMockerBaseES3_St9_IdentityIS3_ESt4lessIS3_ESaIS3_EE8_S_rightEPSt18_Rb_tree_node_base
FNDA:0,_ZNSt8_Rb_treeIN7testing11ExpectationES1_St9_IdentityIS1_ENS1_4LessESaIS1_EE8_S_rightEPSt18_Rb_tree_node_base
FNDA:0,_ZNSt8_Rb_treeIPKvSt4pairIKS1_N7testing12_GLOBAL__N_115MockObjectStateEESt10_Select1stIS7_ESt4lessIS1_ESaIS7_EE8_S_rightEPKSt18_Rb_tree_node_base
FNDA:0,_ZNSt8_Rb_treeIPKvSt4pairIKS1_N7testing8internal12CallReactionEESt10_Select1stIS7_ESt4lessIS1_ESaIS7_EE8_S_rightEPKSt18_Rb_tree_node_base
FNDA:0,_ZNSt8_Rb_treeIPN7testing8internal25UntypedFunctionMockerBaseES3_St9_IdentityIS3_ESt4lessIS3_ESaIS3_EE8_S_valueEPKSt18_Rb_tree_node_base
FNDA:0,_ZNSt8_Rb_treeIN7testing11ExpectationES1_St9_IdentityIS1_ENS1_4LessESaIS1_EE8_S_valueEPKSt18_Rb_tree_node_base
FNDA:0,_ZNSt8_Rb_treeIPKvSt4pairIKS1_N7testing12_GLOBAL__N_115MockObjectStateEESt10_Select1stIS7_ESt4lessIS1_ESaIS7_EE8_S_valueEPKSt18_Rb_tree_node_base
FNDA:0,_ZNSt8_Rb_treeIPKvSt4pairIKS1_N7testing8internal12CallReactionEESt10_Select1stIS7_ESt4lessIS1_ESaIS7_EE8_S_valueEPKSt18_Rb_tree_node_base
FNDA:0,_ZNSt8_Rb_treeIPN7testing8internal25UntypedFunctionMockerBaseES3_St9_IdentityIS3_ESt4lessIS3_ESaIS3_EE6_S_keyEPKSt18_Rb_tree_node_base
FNDA:0,_ZNSt8_Rb_treeIN7testing11ExpectationES1_St9_IdentityIS1_ENS1_4LessESaIS1_EE6_S_keyEPKSt18_Rb_tree_node_base
FNDA:0,_ZNSt8_Rb_treeIPKvSt4pairIKS1_N7testing12_GLOBAL__N_115MockObjectStateEESt10_Select1stIS7_ESt4lessIS1_ESaIS7_EE6_S_keyEPKSt18_Rb_tree_node_base
FNDA:0,_ZNSt8_Rb_treeIPKvSt4pairIKS1_N7testing8internal12CallReactionEESt10_Select1stIS7_ESt4lessIS1_ESaIS7_EE6_S_keyEPKSt18_Rb_tree_node_base
FNDA:1,_ZNSt8_Rb_treeIPKvSt4pairIKS1_N7testing8internal12CallReactionEESt10_Select1stIS7_ESt4lessIS1_ESaIS7_EEC2Ev
FNDA:1,_ZNSt8_Rb_treeIPKvSt4pairIKS1_N7testing12_GLOBAL__N_115MockObjectStateEESt10_Select1stIS7_ESt4lessIS1_ESaIS7_EEC2Ev
FNDA:0,_ZNSt8_Rb_treeIPN7testing8internal25UntypedFunctionMockerBaseES3_St9_IdentityIS3_ESt4lessIS3_ESaIS3_EEC2Ev
FNDA:0,_ZNSt8_Rb_treeIN7testing11ExpectationES1_St9_IdentityIS1_ENS1_4LessESaIS1_EEC2Ev
FNDA:1,_ZNSt8_Rb_treeIPKvSt4pairIKS1_N7testing8internal12CallReactionEESt10_Select1stIS7_ESt4lessIS1_ESaIS7_EED2Ev
FNDA:1,_ZNSt8_Rb_treeIPKvSt4pairIKS1_N7testing12_GLOBAL__N_115MockObjectStateEESt10_Select1stIS7_ESt4lessIS1_ESaIS7_EED2Ev
FNDA:0,_ZNSt8_Rb_treeIPN7testing8internal25UntypedFunctionMockerBaseES3_St9_IdentityIS3_ESt4lessIS3_ESaIS3_EED2Ev
FNDA:0,_ZNSt8_Rb_treeIN7testing11ExpectationES1_St9_IdentityIS1_ENS1_4LessESaIS1_EED2Ev
FNDA:0,_ZNKSt8_Rb_treeIPKvSt4pairIKS1_N7testing12_GLOBAL__N_115MockObjectStateEESt10_Select1stIS7_ESt4lessIS1_ESaIS7_EE8key_compEv
FNDA:0,_ZNKSt8_Rb_treeIPKvSt4pairIKS1_N7testing8internal12CallReactionEESt10_Select1stIS7_ESt4lessIS1_ESaIS7_EE8key_compEv
FNDA:0,_ZNSt8_Rb_treeIPKvSt4pairIKS1_N7testing8internal12CallReactionEESt10_Select1stIS7_ESt4lessIS1_ESaIS7_EE5beginEv
FNDA:0,_ZNSt8_Rb_treeIPN7testing8internal25UntypedFunctionMockerBaseES3_St9_IdentityIS3_ESt4lessIS3_ESaIS3_EE5beginEv
FNDA:0,_ZNSt8_Rb_treeIN7testing11ExpectationES1_St9_IdentityIS1_ENS1_4LessESaIS1_EE5beginEv
FNDA:1,_ZNSt8_Rb_treeIPKvSt4pairIKS1_N7testing12_GLOBAL__N_115MockObjectStateEESt10_Select1stIS7_ESt4lessIS1_ESaIS7_EE5beginEv
FNDA:0,_ZNKSt8_Rb_treeIPN7testing8internal25UntypedFunctionMockerBaseES3_St9_IdentityIS3_ESt4lessIS3_ESaIS3_EE5beginEv
FNDA:0,_ZNKSt8_Rb_treeIN7testing11ExpectationES1_St9_IdentityIS1_ENS1_4LessESaIS1_EE5beginEv
FNDA:0,_ZNSt8_Rb_treeIPN7testing8internal25UntypedFunctionMockerBaseES3_St9_IdentityIS3_ESt4lessIS3_ESaIS3_EE3endEv
FNDA:0,_ZNSt8_Rb_treeIPKvSt4pairIKS1_N7testing8internal12CallReactionEESt10_Select1stIS7_ESt4lessIS1_ESaIS7_EE3endEv
FNDA:1,_ZNSt8_Rb_treeIPKvSt4pairIKS1_N7testing12_GLOBAL__N_115MockObjectStateEESt10_Select1stIS7_ESt4lessIS1_ESaIS7_EE3endEv
FNDA:0,_ZNKSt8_Rb_treeIPN7testing8internal25UntypedFunctionMockerBaseES3_St9_IdentityIS3_ESt4lessIS3_ESaIS3_EE3endEv
FNDA:0,_ZNKSt8_Rb_treeIPKvSt4pairIKS1_N7testing12_GLOBAL__N_115MockObjectStateEESt10_Select1stIS7_ESt4lessIS1_ESaIS7_EE3endEv
FNDA:0,_ZNKSt8_Rb_treeIPKvSt4pairIKS1_N7testing8internal12CallReactionEESt10_Select1stIS7_ESt4lessIS1_ESaIS7_EE3endEv
FNDA:0,_ZNKSt8_Rb_treeIN7testing11ExpectationES1_St9_IdentityIS1_ENS1_4LessESaIS1_EE3endEv
FNDA:0,_ZNKSt8_Rb_treeIPN7testing8internal25UntypedFunctionMockerBaseES3_St9_IdentityIS3_ESt4lessIS3_ESaIS3_EE5emptyEv
FNDA:0,_ZNKSt8_Rb_treeIPKvSt4pairIKS1_N7testing12_GLOBAL__N_115MockObjectStateEESt10_Select1stIS7_ESt4lessIS1_ESaIS7_EE4sizeEv
FNDA:0,_ZNKSt8_Rb_treeIPN7testing8internal25UntypedFunctionMockerBaseES3_St9_IdentityIS3_ESt4lessIS3_ESaIS3_EE4sizeEv
FNDA:0,_ZNKSt8_Rb_treeIPKvSt4pairIKS1_N7testing8internal12CallReactionEESt10_Select1stIS7_ESt4lessIS1_ESaIS7_EE4sizeEv
FNDA:0,_ZNSt8_Rb_treeIPN7testing8internal25UntypedFunctionMockerBaseES3_St9_IdentityIS3_ESt4lessIS3_ESaIS3_EE5eraseB5cxx11ESt23_Rb_tree_const_iteratorIS3_E
FNDA:0,_ZNSt8_Rb_treeIPKvSt4pairIKS1_N7testing8internal12CallReactionEESt10_Select1stIS7_ESt4lessIS1_ESaIS7_EE5eraseB5cxx11ESt23_Rb_tree_const_iteratorIS7_E
FNDA:0,_ZNSt8_Rb_treeIPKvSt4pairIKS1_N7testing12_GLOBAL__N_115MockObjectStateEESt10_Select1stIS7_ESt4lessIS1_ESaIS7_EE5eraseB5cxx11ESt17_Rb_tree_iteratorIS7_E
FNDA:0,_ZNSt8_Rb_treeIPN7testing8internal25UntypedFunctionMockerBaseES3_St9_IdentityIS3_ESt4lessIS3_ESaIS3_EE5eraseB5cxx11ESt23_Rb_tree_const_iteratorIS3_ESB_
FNDA:0,_ZNSt8_Rb_treeIPKvSt4pairIKS1_N7testing8internal12CallReactionEESt10_Select1stIS7_ESt4lessIS1_ESaIS7_EE5eraseB5cxx11ESt23_Rb_tree_const_iteratorIS7_ESF_
FNDA:0,_ZNSt8_Rb_treeIPN7testing8internal25UntypedFunctionMockerBaseES3_St9_IdentityIS3_ESt4lessIS3_ESaIS3_EE5clearEv
FNDA:0,_ZNSt8_Rb_treeIPKvSt4pairIKS1_N7testing8internal12CallReactionEESt10_Select1stIS7_ESt4lessIS1_ESaIS7_EE5clearEv
FNDA:0,_ZNSt8_Rb_treeIPKvSt4pairIKS1_N7testing12_GLOBAL__N_115MockObjectStateEESt10_Select1stIS7_ESt4lessIS1_ESaIS7_EE11lower_boundERS3_
FNDA:0,_ZNSt8_Rb_treeIPKvSt4pairIKS1_N7testing8internal12CallReactionEESt10_Select1stIS7_ESt4lessIS1_ESaIS7_EE11lower_boundERS3_
FNDA:0,_ZNSt8_Rb_treeIPN7testing8internal25UntypedFunctionMockerBaseES3_St9_IdentityIS3_ESt4lessIS3_ESaIS3_EE10_M_insert_IRKS3_EESt17_Rb_tree_iteratorIS3_EPSt18_Rb_tree_node_baseSG_OT_
FNDA:0,_ZNSt8_Rb_treeIN7testing11ExpectationES1_St9_IdentityIS1_ENS1_4LessESaIS1_EE10_M_insert_IRKS1_EESt17_Rb_tree_iteratorIS1_EPSt18_Rb_tree_node_baseSD_OT_
FNDA:1,_ZNSt8_Rb_treeIPKvSt4pairIKS1_N7testing8internal12CallReactionEESt10_Select1stIS7_ESt4lessIS1_ESaIS7_EE8_M_eraseEPSt13_Rb_tree_nodeIS7_E
FNDA:1,_ZNSt8_Rb_treeIPKvSt4pairIKS1_N7testing12_GLOBAL__N_115MockObjectStateEESt10_Select1stIS7_ESt4lessIS1_ESaIS7_EE8_M_eraseEPSt13_Rb_tree_nodeIS7_E
FNDA:0,_ZNSt8_Rb_treeIPN7testing8internal25UntypedFunctionMockerBaseES3_St9_IdentityIS3_ESt4lessIS3_ESaIS3_EE8_M_eraseEPSt13_Rb_tree_nodeIS3_E
FNDA:0,_ZNSt8_Rb_treeIN7testing11ExpectationES1_St9_IdentityIS1_ENS1_4LessESaIS1_EE8_M_eraseEPSt13_Rb_tree_nodeIS1_E
FNDA:0,_ZNSt8_Rb_treeIPN7testing8internal25UntypedFunctionMockerBaseES3_St9_IdentityIS3_ESt4lessIS3_ESaIS3_EE14_M_lower_boundEPSt13_Rb_tree_nodeIS3_ESC_RKS3_
FNDA:0,_ZNSt8_Rb_treeIPKvSt4pairIKS1_N7testing12_GLOBAL__N_115MockObjectStateEESt10_Select1stIS7_ESt4lessIS1_ESaIS7_EE14_M_lower_boundEPSt13_Rb_tree_nodeIS7_ESG_RS3_
FNDA:0,_ZNSt8_Rb_treeIPKvSt4pairIKS1_N7testing8internal12CallReactionEESt10_Select1stIS7_ESt4lessIS1_ESaIS7_EE14_M_lower_boundEPSt13_Rb_tree_nodeIS7_ESG_RS3_
FNDA:0,_ZNKSt8_Rb_treeIPKvSt4pairIKS1_N7testing12_GLOBAL__N_115MockObjectStateEESt10_Select1stIS7_ESt4lessIS1_ESaIS7_EE14_M_lower_boundEPKSt13_Rb_tree_nodeIS7_ESH_RS3_
FNDA:0,_ZNKSt8_Rb_treeIPKvSt4pairIKS1_N7testing8internal12CallReactionEESt10_Select1stIS7_ESt4lessIS1_ESaIS7_EE14_M_lower_boundEPKSt13_Rb_tree_nodeIS7_ESH_RS3_
FNDA:0,_ZNSt8_Rb_treeIPN7testing8internal25UntypedFunctionMockerBaseES3_St9_IdentityIS3_ESt4lessIS3_ESaIS3_EE14_M_upper_boundEPSt13_Rb_tree_nodeIS3_ESC_RKS3_
FNDA:0,_ZNSt8_Rb_treeIPKvSt4pairIKS1_N7testing8internal12CallReactionEESt10_Select1stIS7_ESt4lessIS1_ESaIS7_EE14_M_upper_boundEPSt13_Rb_tree_nodeIS7_ESG_RS3_
FNDA:0,_ZNSt8_Rb_treeIPN7testing8internal25UntypedFunctionMockerBaseES3_St9_IdentityIS3_ESt4lessIS3_ESaIS3_EE11equal_rangeERKS3_
FNDA:0,_ZNSt8_Rb_treeIPKvSt4pairIKS1_N7testing8internal12CallReactionEESt10_Select1stIS7_ESt4lessIS1_ESaIS7_EE11equal_rangeERS3_
FNDA:0,_ZNSt8_Rb_treeIPKvSt4pairIKS1_N7testing12_GLOBAL__N_115MockObjectStateEESt10_Select1stIS7_ESt4lessIS1_ESaIS7_EE24_M_get_insert_unique_posERS3_
FNDA:0,_ZNSt8_Rb_treeIPKvSt4pairIKS1_N7testing8internal12CallReactionEESt10_Select1stIS7_ESt4lessIS1_ESaIS7_EE24_M_get_insert_unique_posERS3_
FNDA:0,_ZNSt8_Rb_treeIPN7testing8internal25UntypedFunctionMockerBaseES3_St9_IdentityIS3_ESt4lessIS3_ESaIS3_EE24_M_get_insert_unique_posERKS3_
FNDA:0,_ZNSt8_Rb_treeIN7testing11ExpectationES1_St9_IdentityIS1_ENS1_4LessESaIS1_EE24_M_get_insert_unique_posERKS1_
FNDA:0,_ZNSt8_Rb_treeIPN7testing8internal25UntypedFunctionMockerBaseES3_St9_IdentityIS3_ESt4lessIS3_ESaIS3_EE16_M_insert_uniqueIRKS3_EESt4pairISt17_Rb_tree_iteratorIS3_EbEOT_
FNDA:0,_ZNSt8_Rb_treeIN7testing11ExpectationES1_St9_IdentityIS1_ENS1_4LessESaIS1_EE16_M_insert_uniqueIRKS1_EESt4pairISt17_Rb_tree_iteratorIS1_EbEOT_
FNDA:0,_ZNSt8_Rb_treeIPKvSt4pairIKS1_N7testing12_GLOBAL__N_115MockObjectStateEESt10_Select1stIS7_ESt4lessIS1_ESaIS7_EE29_M_get_insert_hint_unique_posESt23_Rb_tree_const_iteratorIS7_ERS3_
FNDA:0,_ZNSt8_Rb_treeIPKvSt4pairIKS1_N7testing8internal12CallReactionEESt10_Select1stIS7_ESt4lessIS1_ESaIS7_EE29_M_get_insert_hint_unique_posESt23_Rb_tree_const_iteratorIS7_ERS3_
FNDA:0,_ZNSt8_Rb_treeIPKvSt4pairIKS1_N7testing12_GLOBAL__N_115MockObjectStateEESt10_Select1stIS7_ESt4lessIS1_ESaIS7_EE14_M_insert_nodeEPSt18_Rb_tree_node_baseSF_PSt13_Rb_tree_nodeIS7_E
FNDA:0,_ZNSt8_Rb_treeIPKvSt4pairIKS1_N7testing8internal12CallReactionEESt10_Select1stIS7_ESt4lessIS1_ESaIS7_EE14_M_insert_nodeEPSt18_Rb_tree_node_baseSF_PSt13_Rb_tree_nodeIS7_E
FNDA:0,_ZNSt8_Rb_treeIPKvSt4pairIKS1_N7testing12_GLOBAL__N_115MockObjectStateEESt10_Select1stIS7_ESt4lessIS1_ESaIS7_EE22_M_emplace_hint_uniqueIIRKSt21piecewise_construct_tSt5tupleIIOS1_EESI_IIEEEEESt17_Rb_tree_iteratorIS7_ESt23_Rb_tree_const_iteratorIS7_EDpOT_
FNDA:0,_ZNSt8_Rb_treeIPKvSt4pairIKS1_N7testing12_GLOBAL__N_115MockObjectStateEESt10_Select1stIS7_ESt4lessIS1_ESaIS7_EE22_M_emplace_hint_uniqueIIRKSt21piecewise_construct_tSt5tupleIIRS3_EESI_IIEEEEESt17_Rb_tree_iteratorIS7_ESt23_Rb_tree_const_iteratorIS7_EDpOT_
FNDA:0,_ZNSt8_Rb_treeIPKvSt4pairIKS1_N7testing8internal12CallReactionEESt10_Select1stIS7_ESt4lessIS1_ESaIS7_EE22_M_emplace_hint_uniqueIIRKSt21piecewise_construct_tSt5tupleIIRS3_EESI_IIEEEEESt17_Rb_tree_iteratorIS7_ESt23_Rb_tree_const_iteratorIS7_EDpOT_
FNDA:0,_ZNSt8_Rb_treeIPN7testing8internal25UntypedFunctionMockerBaseES3_St9_IdentityIS3_ESt4lessIS3_ESaIS3_EE12_M_erase_auxESt23_Rb_tree_const_iteratorIS3_E
FNDA:0,_ZNSt8_Rb_treeIPKvSt4pairIKS1_N7testing8internal12CallReactionEESt10_Select1stIS7_ESt4lessIS1_ESaIS7_EE12_M_erase_auxESt23_Rb_tree_const_iteratorIS7_E
FNDA:0,_ZNSt8_Rb_treeIPKvSt4pairIKS1_N7testing12_GLOBAL__N_115MockObjectStateEESt10_Select1stIS7_ESt4lessIS1_ESaIS7_EE12_M_erase_auxESt23_Rb_tree_const_iteratorIS7_E
FNDA:0,_ZNSt8_Rb_treeIPN7testing8internal25UntypedFunctionMockerBaseES3_St9_IdentityIS3_ESt4lessIS3_ESaIS3_EE12_M_erase_auxESt23_Rb_tree_const_iteratorIS3_ESB_
FNDA:0,_ZNSt8_Rb_treeIPKvSt4pairIKS1_N7testing8internal12CallReactionEESt10_Select1stIS7_ESt4lessIS1_ESaIS7_EE12_M_erase_auxESt23_Rb_tree_const_iteratorIS7_ESF_
FNDA:0,_ZNSt8_Rb_treeIPN7testing8internal25UntypedFunctionMockerBaseES3_St9_IdentityIS3_ESt4lessIS3_ESaIS3_EE5eraseERKS3_
FNDA:0,_ZNSt8_Rb_treeIPKvSt4pairIKS1_N7testing8internal12CallReactionEESt10_Select1stIS7_ESt4lessIS1_ESaIS7_EE5eraseERS3_
FNDA:0,_ZNKSt8_Rb_treeIPKvSt4pairIKS1_N7testing12_GLOBAL__N_115MockObjectStateEESt10_Select1stIS7_ESt4lessIS1_ESaIS7_EE4findERS3_
FNDA:0,_ZNKSt8_Rb_treeIPKvSt4pairIKS1_N7testing8internal12CallReactionEESt10_Select1stIS7_ESt4lessIS1_ESaIS7_EE4findERS3_
FNF:207
FNH:19
DA:131,0
DA:138,0
DA:140,0
DA:174,2
DA:175,2
DA:178,0
DA:179,0
DA:182,0
DA:184,0
DA:187,0
DA:189,0
DA:190,0
DA:202,0
DA:204,0
DA:205,0
DA:217,0
DA:218,0
DA:221,0
DA:222,0
DA:247,0
DA:248,0
DA:250,2
DA:251,2
DA:254,0
DA:256,0
DA:259,0
DA:260,0
DA:263,0
DA:265,0
DA:268,0
DA:270,0
DA:271,0
DA:275,0
DA:277,0
DA:278,0
DA:279,0
DA:298,0
DA:299,0
DA:302,1
DA:303,1
DA:356,0
DA:357,0
DA:369,0
DA:370,0
DA:373,0
DA:374,0
DA:401,0
DA:403,0
DA:406,0
DA:407,0
DA:408,0
DA:410,0
DA:412,0
DA:413,0
DA:415,0
DA:419,0
DA:421,0
DA:422,0
DA:423,0
DA:439,2
DA:445,2
DA:447,2
DA:448,2
DA:464,2
DA:466,2
DA:467,2
DA:468,2
DA:469,2
DA:470,2
DA:477,0
DA:478,0
DA:485,0
DA:486,0
DA:493,0
DA:494,0
DA:501,2
DA:502,2
DA:505,0
DA:508,0
DA:512,0
DA:513,0
DA:516,0
DA:517,0
DA:520,0
DA:521,0
DA:524,0
DA:525,0
DA:528,0
DA:529,0
DA:532,0
DA:533,0
DA:536,0
DA:537,0
DA:540,0
DA:541,0
DA:544,0
DA:545,0
DA:548,0
DA:549,0
DA:648,2
DA:670,2
DA:671,2
DA:678,0
DA:679,0
DA:682,1
DA:685,1
DA:689,0
DA:692,0
DA:696,1
DA:697,1
DA:700,0
DA:703,0
DA:723,0
DA:724,0
DA:727,0
DA:728,0
DA:805,0
DA:807,0
DA:808,0
DA:809,0
DA:810,0
DA:816,0
DA:818,0
DA:819,0
DA:820,0
DA:821,0
DA:840,0
DA:842,0
DA:843,0
DA:858,0
DA:860,0
DA:861,0
DA:862,0
DA:863,0
DA:864,0
DA:865,0
DA:878,0
DA:879,0
DA:1012,0
DA:1019,0
DA:1020,0
DA:1021,0
DA:1023,0
DA:1025,0
DA:1026,0
DA:1027,0
DA:1028,0
DA:1119,2
DA:1123,4
DA:1125,0
DA:1126,0
DA:1127,0
DA:1128,0
DA:1130,2
DA:1136,0
DA:1140,0
DA:1141,0
DA:1142,0
DA:1144,0
DA:1145,0
DA:1152,0
DA:1156,0
DA:1157,0
DA:1158,0
DA:1160,0
DA:1161,0
DA:1168,0
DA:1172,0
DA:1173,0
DA:1174,0
DA:1176,0
DA:1177,0
DA:1202,0
DA:1205,0
DA:1206,0
DA:1207,0
DA:1209,0
DA:1210,0
DA:1211,0
DA:1212,0
DA:1215,0
DA:1216,0
DA:1217,0
DA:1220,0
DA:1224,0
DA:1314,0
DA:1318,0
DA:1319,0
DA:1320,0
DA:1321,0
DA:1323,0
DA:1324,0
DA:1325,0
DA:1327,0
DA:1328,0
DA:1330,0
DA:1331,0
DA:1333,0
DA:1335,0
DA:1336,0
DA:1337,0
DA:1368,0
DA:1377,0
DA:1379,0
DA:1381,0
DA:1382,0
DA:1384,0
DA:1411,0
DA:1415,0
DA:1419,0
DA:1421,0
DA:1422,0
DA:1423,0
DA:1425,0
DA:1427,0
DA:1430,0
DA:1431,0
DA:1432,0
DA:1433,0
DA:1435,0
DA:1436,0
DA:1438,0
DA:1441,0
DA:1443,0
DA:1446,0
DA:1447,0
DA:1448,0
DA:1449,0
DA:1451,0
DA:1452,0
DA:1454,0
DA:1457,0
DA:1461,0
DA:1568,0
DA:1571,0
DA:1572,0
DA:1573,0
DA:1575,0
DA:1576,0
DA:1577,0
DA:1578,0
DA:1666,0
DA:1669,0
DA:1673,0
DA:1675,0
DA:1676,0
DA:1678,0
DA:1679,0
DA:1681,0
DA:1683,0
DA:1684,0
DA:1739,0
DA:1745,0
DA:1746,0
DA:1747,0
DA:1748,0
DA:1753,0
DA:1756,0
DA:1757,0
DA:1759,0
DA:1760,0
DA:1761,0
DA:1766,0
DA:1769,0
DA:1770,0
DA:1771,0
DA:1772,0
DA:1802,0
DA:1805,0
DA:1806,0
DA:1807,0
DA:1808,0
LF:272
LH:28
end_of_record
SF:/usr/include/c++/4.8.2/bits/stl_uninitialized.h
FN:68,_ZNSt20__uninitialized_copyILb0EE13__uninit_copyISt13move_iteratorIPSt4pairImmEES5_EET0_T_S8_S7_
FN:107,_ZSt18uninitialized_copyISt13move_iteratorIPSt4pairImmEES3_ET0_T_S6_S5_
FN:202,_ZNSt22__uninitialized_fill_nILb1EE15__uninit_fill_nIPmmmEEvT_T0_RKT1_
FN:202,_ZNSt22__uninitialized_fill_nILb1EE15__uninit_fill_nIPcmcEEvT_T0_RKT1_
FN:218,_ZSt20uninitialized_fill_nIPmmmEvT_T0_RKT1_
FN:218,_ZSt20uninitialized_fill_nIPcmcEvT_T0_RKT1_
FN:256,_ZSt22__uninitialized_copy_aISt13move_iteratorIPSt4pairImmEES3_S2_ET0_T_S6_S5_RSaIT1_E
FN:274,_ZSt34__uninitialized_move_if_noexcept_aIPSt4pairImmES2_SaIS1_EET0_T_S5_S4_RT1_
FN:332,_ZSt24__uninitialized_fill_n_aIPmmmmEvT_T0_RKT1_RSaIT2_E
FN:332,_ZSt24__uninitialized_fill_n_aIPcmccEvT_T0_RKT1_RSaIT2_E
FNDA:0,_ZNSt20__uninitialized_copyILb0EE13__uninit_copyISt13move_iteratorIPSt4pairImmEES5_EET0_T_S8_S7_
FNDA:0,_ZSt18uninitialized_copyISt13move_iteratorIPSt4pairImmEES3_ET0_T_S6_S5_
FNDA:0,_ZNSt22__uninitialized_fill_nILb1EE15__uninit_fill_nIPmmmEEvT_T0_RKT1_
FNDA:0,_ZNSt22__uninitialized_fill_nILb1EE15__uninit_fill_nIPcmcEEvT_T0_RKT1_
FNDA:0,_ZSt20uninitialized_fill_nIPmmmEvT_T0_RKT1_
FNDA:0,_ZSt20uninitialized_fill_nIPcmcEvT_T0_RKT1_
FNDA:0,_ZSt22__uninitialized_copy_aISt13move_iteratorIPSt4pairImmEES3_S2_ET0_T_S6_S5_RSaIT1_E
FNDA:0,_ZSt34__uninitialized_move_if_noexcept_aIPSt4pairImmES2_SaIS1_EET0_T_S5_S4_RT1_
FNDA:0,_ZSt24__uninitialized_fill_n_aIPmmmmEvT_T0_RKT1_RSaIT2_E
FNDA:0,_ZSt24__uninitialized_fill_n_aIPcmccEvT_T0_RKT1_RSaIT2_E
FNF:10
FNH:0
DA:68,0
DA:71,0
DA:74,0
DA:75,0
DA:76,0
DA:78,0
DA:80,0
DA:81,0
DA:107,0
DA:117,0
DA:202,0
DA:204,0
DA:218,0
DA:223,0
DA:225,0
DA:256,0
DA:258,0
DA:274,0
DA:281,0
DA:332,0
DA:334,0
LF:21
LH:0
end_of_record
SF:/usr/include/c++/4.8.2/bits/stl_vector.h
FN:79,_ZNSt12_Vector_baseIN7testing8internal10linked_ptrINS1_15ExpectationBaseEEESaIS4_EE12_Vector_implD2Ev
FN:79,_ZNSt12_Vector_baseIPKvSaIS1_EE12_Vector_implD2Ev
FN:79,_ZNSt12_Vector_baseISt4pairImmESaIS1_EE12_Vector_implD2Ev
FN:79,_ZNSt12_Vector_baseIcSaIcEE12_Vector_implD2Ev
FN:79,_ZNSt12_Vector_baseImSaImEE12_Vector_implD2Ev
FN:86,_ZNSt12_Vector_baseISt4pairImmESaIS1_EE12_Vector_implC2Ev
FN:86,_ZNSt12_Vector_baseIPKvSaIS1_EE12_Vector_implC2Ev
FN:86,_ZNSt12_Vector_baseIcSaIcEE12_Vector_implC2Ev
FN:86,_ZNSt12_Vector_baseIN7testing8internal10linked_ptrINS1_15ExpectationBaseEEESaIS4_EE12_Vector_implC2Ev
FN:90,_ZNSt12_Vector_baseImSaImEE12_Vector_implC2ERKS0_
FN:90,_ZNSt12_Vector_baseIcSaIcEE12_Vector_implC2ERKS0_
FN:101,_ZNSt12_Vector_baseIN7testing8internal10linked_ptrINS1_15ExpectationBaseEEESaIS4_EE12_Vector_impl12_M_swap_dataERS7_
FN:101,_ZNSt12_Vector_baseIcSaIcEE12_Vector_impl12_M_swap_dataERS2_
FN:113,_ZNSt12_Vector_baseIcSaIcEE19_M_get_Tp_allocatorEv
FN:113,_ZNSt12_Vector_baseImSaImEE19_M_get_Tp_allocatorEv
FN:113,_ZNSt12_Vector_baseISt4pairImmESaIS1_EE19_M_get_Tp_allocatorEv
FN:113,_ZNSt12_Vector_baseIPKvSaIS1_EE19_M_get_Tp_allocatorEv
FN:113,_ZNSt12_Vector_baseIN7testing8internal10linked_ptrINS1_15ExpectationBaseEEESaIS4_EE19_M_get_Tp_allocatorEv
FN:117,_ZNKSt12_Vector_baseISt4pairImmESaIS1_EE19_M_get_Tp_allocatorEv
FN:124,_ZNSt12_Vector_baseIcSaIcEEC2Ev
FN:124,_ZNSt12_Vector_baseIPKvSaIS1_EEC2Ev
FN:124,_ZNSt12_Vector_baseISt4pairImmESaIS1_EEC2Ev
FN:124,_ZNSt12_Vector_baseIN7testing8internal10linked_ptrINS1_15ExpectationBaseEEESaIS4_EEC2Ev
FN:134,_ZNSt12_Vector_baseImSaImEEC2EmRKS0_
FN:134,_ZNSt12_Vector_baseIcSaIcEEC2EmRKS0_
FN:159,_ZNSt12_Vector_baseIcSaIcEED2Ev
FN:159,_ZNSt12_Vector_baseImSaImEED2Ev
FN:159,_ZNSt12_Vector_baseIPKvSaIS1_EED2Ev
FN:159,_ZNSt12_Vector_baseISt4pairImmESaIS1_EED2Ev
FN:159,_ZNSt12_Vector_baseIN7testing8internal10linked_ptrINS1_15ExpectationBaseEEESaIS4_EED2Ev
FN:167,_ZNSt12_Vector_baseImSaImEE11_M_allocateEm
FN:167,_ZNSt12_Vector_baseISt4pairImmESaIS1_EE11_M_allocateEm
FN:167,_ZNSt12_Vector_baseIcSaIcEE11_M_allocateEm
FN:171,_ZNSt12_Vector_baseImSaImEE13_M_deallocateEPmm
FN:171,_ZNSt12_Vector_baseIcSaIcEE13_M_deallocateEPcm
FN:171,_ZNSt12_Vector_baseISt4pairImmESaIS1_EE13_M_deallocateEPS1_m
FN:171,_ZNSt12_Vector_baseIPKvSaIS1_EE13_M_deallocateEPS1_m
FN:171,_ZNSt12_Vector_baseIN7testing8internal10linked_ptrINS1_15ExpectationBaseEEESaIS4_EE13_M_deallocateEPS4_m
FN:179,_ZNSt12_Vector_baseIcSaIcEE17_M_create_storageEm
FN:179,_ZNSt12_Vector_baseImSaImEE17_M_create_storageEm
FN:248,_ZNSt6vectorIPKvSaIS1_EEC2Ev
FN:248,_ZNSt6vectorIN7testing8internal10linked_ptrINS1_15ExpectationBaseEEESaIS4_EEC2Ev
FN:248,_ZNSt6vectorIcSaIcEEC2Ev
FN:248,_ZNSt6vectorISt4pairImmESaIS1_EEC2Ev
FN:281,_ZNSt6vectorIcSaIcEEC2EmRKcRKS0_
FN:281,_ZNSt6vectorImSaImEEC2EmRKmRKS0_
FN:414,_ZNSt6vectorISt4pairImmESaIS1_EED2Ev
FN:414,_ZNSt6vectorIN7testing8internal10linked_ptrINS1_15ExpectationBaseEEESaIS4_EED2Ev
FN:414,_ZNSt6vectorIPKvSaIS1_EED2Ev
FN:414,_ZNSt6vectorImSaImEED2Ev
FN:414,_ZNSt6vectorIcSaIcEED2Ev
FN:479,_ZNSt6vectorIcSaIcEE6assignEmRKc
FN:538,_ZNSt6vectorIN7testing8internal10linked_ptrINS1_15ExpectationBaseEEESaIS4_EE5beginEv
FN:538,_ZNSt6vectorIcSaIcEE5beginEv
FN:547,_ZNKSt6vectorISt4pairImmESaIS1_EE5beginEv
FN:547,_ZNKSt6vectorIPKN7testing25MatcherDescriberInterfaceESaIS3_EE5beginEv
FN:556,_ZNSt6vectorIcSaIcEE3endEv
FN:556,_ZNSt6vectorIN7testing8internal10linked_ptrINS1_15ExpectationBaseEEESaIS4_EE3endEv
FN:565,_ZNKSt6vectorISt4pairImmESaIS1_EE3endEv
FN:565,_ZNKSt6vectorIPKN7testing25MatcherDescriberInterfaceESaIS3_EE3endEv
FN:645,_ZNKSt6vectorIPKN7testing25MatcherDescriberInterfaceESaIS3_EE4sizeEv
FN:645,_ZNKSt6vectorIPKvSaIS1_EE4sizeEv
FN:645,_ZNKSt6vectorISsSaISsEE4sizeEv
FN:645,_ZNKSt6vectorIcSaIcEE4sizeEv
FN:645,_ZNKSt6vectorImSaImEE4sizeEv
FN:645,_ZNKSt6vectorISt4pairImmESaIS1_EE4sizeEv
FN:645,_ZNKSt6vectorIN7testing8internal10linked_ptrINS1_15ExpectationBaseEEESaIS4_EE4sizeEv
FN:650,_ZNKSt6vectorISt4pairImmESaIS1_EE8max_sizeEv
FN:725,_ZNKSt6vectorIcSaIcEE8capacityEv
FN:734,_ZNKSt6vectorIPKN7testing25MatcherDescriberInterfaceESaIS3_EE5emptyEv
FN:770,_ZNSt6vectorIcSaIcEEixEm
FN:770,_ZNSt6vectorISt4pairImmESaIS1_EEixEm
FN:770,_ZNSt6vectorImSaImEEixEm
FN:785,_ZNKSt6vectorISsSaISsEEixEm
FN:785,_ZNKSt6vectorIcSaIcEEixEm
FN:785,_ZNKSt6vectorIPKN7testing25MatcherDescriberInterfaceESaIS3_EEixEm
FN:919,_ZNSt6vectorISt4pairImmESaIS1_EE9push_backEOS1_
FN:1108,_ZNSt6vectorIcSaIcEE4swapERS1_
FN:1108,_ZNSt6vectorIN7testing8internal10linked_ptrINS1_15ExpectationBaseEEESaIS4_EE4swapERS6_
FN:1125,_ZNSt6vectorIN7testing8internal10linked_ptrINS1_15ExpectationBaseEEESaIS4_EE5clearEv
FN:1212,_ZNSt6vectorImSaImEE18_M_fill_initializeEmRKm
FN:1212,_ZNSt6vectorIcSaIcEE18_M_fill_initializeEmRKc
FN:1336,_ZNKSt6vectorISt4pairImmESaIS1_EE12_M_check_lenEmPKc
FN:1350,_ZNSt6vectorIcSaIcEE15_M_erase_at_endEPc
FN:1350,_ZNSt6vectorIN7testing8internal10linked_ptrINS1_15ExpectationBaseEEESaIS4_EE15_M_erase_at_endEPS4_
FNDA:0,_ZNSt12_Vector_baseIN7testing8internal10linked_ptrINS1_15ExpectationBaseEEESaIS4_EE12_Vector_implD2Ev
FNDA:0,_ZNSt12_Vector_baseIPKvSaIS1_EE12_Vector_implD2Ev
FNDA:0,_ZNSt12_Vector_baseISt4pairImmESaIS1_EE12_Vector_implD2Ev
FNDA:0,_ZNSt12_Vector_baseImSaImEE12_Vector_implD2Ev
FNDA:0,_ZNSt12_Vector_baseIcSaIcEE12_Vector_implD2Ev
FNDA:0,_ZNSt12_Vector_baseIN7testing8internal10linked_ptrINS1_15ExpectationBaseEEESaIS4_EE12_Vector_implC2Ev
FNDA:0,_ZNSt12_Vector_baseIPKvSaIS1_EE12_Vector_implC2Ev
FNDA:0,_ZNSt12_Vector_baseISt4pairImmESaIS1_EE12_Vector_implC2Ev
FNDA:0,_ZNSt12_Vector_baseIcSaIcEE12_Vector_implC2Ev
FNDA:0,_ZNSt12_Vector_baseImSaImEE12_Vector_implC2ERKS0_
FNDA:0,_ZNSt12_Vector_baseIcSaIcEE12_Vector_implC2ERKS0_
FNDA:0,_ZNSt12_Vector_baseIcSaIcEE12_Vector_impl12_M_swap_dataERS2_
FNDA:0,_ZNSt12_Vector_baseIN7testing8internal10linked_ptrINS1_15ExpectationBaseEEESaIS4_EE12_Vector_impl12_M_swap_dataERS7_
FNDA:0,_ZNSt12_Vector_baseIN7testing8internal10linked_ptrINS1_15ExpectationBaseEEESaIS4_EE19_M_get_Tp_allocatorEv
FNDA:0,_ZNSt12_Vector_baseIPKvSaIS1_EE19_M_get_Tp_allocatorEv
FNDA:0,_ZNSt12_Vector_baseISt4pairImmESaIS1_EE19_M_get_Tp_allocatorEv
FNDA:0,_ZNSt12_Vector_baseImSaImEE19_M_get_Tp_allocatorEv
FNDA:0,_ZNSt12_Vector_baseIcSaIcEE19_M_get_Tp_allocatorEv
FNDA:0,_ZNKSt12_Vector_baseISt4pairImmESaIS1_EE19_M_get_Tp_allocatorEv
FNDA:0,_ZNSt12_Vector_baseIN7testing8internal10linked_ptrINS1_15ExpectationBaseEEESaIS4_EEC2Ev
FNDA:0,_ZNSt12_Vector_baseIPKvSaIS1_EEC2Ev
FNDA:0,_ZNSt12_Vector_baseISt4pairImmESaIS1_EEC2Ev
FNDA:0,_ZNSt12_Vector_baseIcSaIcEEC2Ev
FNDA:0,_ZNSt12_Vector_baseImSaImEEC2EmRKS0_
FNDA:0,_ZNSt12_Vector_baseIcSaIcEEC2EmRKS0_
FNDA:0,_ZNSt12_Vector_baseIN7testing8internal10linked_ptrINS1_15ExpectationBaseEEESaIS4_EED2Ev
FNDA:0,_ZNSt12_Vector_baseIPKvSaIS1_EED2Ev
FNDA:0,_ZNSt12_Vector_baseISt4pairImmESaIS1_EED2Ev
FNDA:0,_ZNSt12_Vector_baseImSaImEED2Ev
FNDA:0,_ZNSt12_Vector_baseIcSaIcEED2Ev
FNDA:0,_ZNSt12_Vector_baseISt4pairImmESaIS1_EE11_M_allocateEm
FNDA:0,_ZNSt12_Vector_baseImSaImEE11_M_allocateEm
FNDA:0,_ZNSt12_Vector_baseIcSaIcEE11_M_allocateEm
FNDA:0,_ZNSt12_Vector_baseIN7testing8internal10linked_ptrINS1_15ExpectationBaseEEESaIS4_EE13_M_deallocateEPS4_m
FNDA:0,_ZNSt12_Vector_baseIPKvSaIS1_EE13_M_deallocateEPS1_m
FNDA:0,_ZNSt12_Vector_baseISt4pairImmESaIS1_EE13_M_deallocateEPS1_m
FNDA:0,_ZNSt12_Vector_baseImSaImEE13_M_deallocateEPmm
FNDA:0,_ZNSt12_Vector_baseIcSaIcEE13_M_deallocateEPcm
FNDA:0,_ZNSt12_Vector_baseImSaImEE17_M_create_storageEm
FNDA:0,_ZNSt12_Vector_baseIcSaIcEE17_M_create_storageEm
FNDA:0,_ZNSt6vectorIN7testing8internal10linked_ptrINS1_15ExpectationBaseEEESaIS4_EEC2Ev
FNDA:0,_ZNSt6vectorIPKvSaIS1_EEC2Ev
FNDA:0,_ZNSt6vectorISt4pairImmESaIS1_EEC2Ev
FNDA:0,_ZNSt6vectorIcSaIcEEC2Ev
FNDA:0,_ZNSt6vectorImSaImEEC2EmRKmRKS0_
FNDA:0,_ZNSt6vectorIcSaIcEEC2EmRKcRKS0_
FNDA:0,_ZNSt6vectorIN7testing8internal10linked_ptrINS1_15ExpectationBaseEEESaIS4_EED2Ev
FNDA:0,_ZNSt6vectorIPKvSaIS1_EED2Ev
FNDA:0,_ZNSt6vectorISt4pairImmESaIS1_EED2Ev
FNDA:0,_ZNSt6vectorImSaImEED2Ev
FNDA:0,_ZNSt6vectorIcSaIcEED2Ev
FNDA:0,_ZNSt6vectorIcSaIcEE6assignEmRKc
FNDA:0,_ZNSt6vectorIcSaIcEE5beginEv
FNDA:0,_ZNSt6vectorIN7testing8internal10linked_ptrINS1_15ExpectationBaseEEESaIS4_EE5beginEv
FNDA:0,_ZNKSt6vectorIPKN7testing25MatcherDescriberInterfaceESaIS3_EE5beginEv
FNDA:0,_ZNKSt6vectorISt4pairImmESaIS1_EE5beginEv
FNDA:0,_ZNSt6vectorIcSaIcEE3endEv
FNDA:0,_ZNSt6vectorIN7testing8internal10linked_ptrINS1_15ExpectationBaseEEESaIS4_EE3endEv
FNDA:0,_ZNKSt6vectorIPKN7testing25MatcherDescriberInterfaceESaIS3_EE3endEv
FNDA:0,_ZNKSt6vectorISt4pairImmESaIS1_EE3endEv
FNDA:0,_ZNKSt6vectorIN7testing8internal10linked_ptrINS1_15ExpectationBaseEEESaIS4_EE4sizeEv
FNDA:0,_ZNKSt6vectorIPKvSaIS1_EE4sizeEv
FNDA:0,_ZNKSt6vectorIcSaIcEE4sizeEv
FNDA:0,_ZNKSt6vectorIPKN7testing25MatcherDescriberInterfaceESaIS3_EE4sizeEv
FNDA:0,_ZNKSt6vectorISt4pairImmESaIS1_EE4sizeEv
FNDA:0,_ZNKSt6vectorImSaImEE4sizeEv
FNDA:0,_ZNKSt6vectorISsSaISsEE4sizeEv
FNDA:0,_ZNKSt6vectorISt4pairImmESaIS1_EE8max_sizeEv
FNDA:0,_ZNKSt6vectorIcSaIcEE8capacityEv
FNDA:0,_ZNKSt6vectorIPKN7testing25MatcherDescriberInterfaceESaIS3_EE5emptyEv
FNDA:0,_ZNSt6vectorISt4pairImmESaIS1_EEixEm
FNDA:0,_ZNSt6vectorImSaImEEixEm
FNDA:0,_ZNSt6vectorIcSaIcEEixEm
FNDA:0,_ZNKSt6vectorIPKN7testing25MatcherDescriberInterfaceESaIS3_EEixEm
FNDA:0,_ZNKSt6vectorISsSaISsEEixEm
FNDA:0,_ZNKSt6vectorIcSaIcEEixEm
FNDA:0,_ZNSt6vectorISt4pairImmESaIS1_EE9push_backEOS1_
FNDA:0,_ZNSt6vectorIcSaIcEE4swapERS1_
FNDA:0,_ZNSt6vectorIN7testing8internal10linked_ptrINS1_15ExpectationBaseEEESaIS4_EE4swapERS6_
FNDA:0,_ZNSt6vectorIN7testing8internal10linked_ptrINS1_15ExpectationBaseEEESaIS4_EE5clearEv
FNDA:0,_ZNSt6vectorImSaImEE18_M_fill_initializeEmRKm
FNDA:0,_ZNSt6vectorIcSaIcEE18_M_fill_initializeEmRKc
FNDA:0,_ZNKSt6vectorISt4pairImmESaIS1_EE12_M_check_lenEmPKc
FNDA:0,_ZNSt6vectorIcSaIcEE15_M_erase_at_endEPc
FNDA:0,_ZNSt6vectorIN7testing8internal10linked_ptrINS1_15ExpectationBaseEEESaIS4_EE15_M_erase_at_endEPS4_
FNF:85
FNH:0
DA:79,0
DA:86,0
DA:87,0
DA:88,0
DA:90,0
DA:91,0
DA:92,0
DA:101,0
DA:103,0
DA:104,0
DA:105,0
DA:106,0
DA:113,0
DA:114,0
DA:117,0
DA:118,0
DA:124,0
DA:125,0
DA:134,0
DA:135,0
DA:136,0
DA:159,0
DA:160,0
DA:161,0
DA:167,0
DA:168,0
DA:171,0
DA:173,0
DA:174,0
DA:175,0
DA:179,0
DA:181,0
DA:182,0
DA:183,0
DA:184,0
DA:248,0
DA:249,0
DA:281,0
DA:283,0
DA:284,0
DA:414,0
DA:415,0
DA:416,0
DA:479,0
DA:480,0
DA:538,0
DA:539,0
DA:547,0
DA:548,0
DA:556,0
DA:557,0
DA:565,0
DA:566,0
DA:645,0
DA:646,0
DA:650,0
DA:651,0
DA:725,0
DA:727,0
DA:734,0
DA:735,0
DA:770,0
DA:771,0
DA:785,0
DA:786,0
DA:919,0
DA:920,0
DA:1108,0
DA:1113,0
DA:1114,0
DA:1115,0
DA:1116,0
DA:1125,0
DA:1126,0
DA:1212,0
DA:1214,0
DA:1215,0
DA:1216,0
DA:1217,0
DA:1336,0
DA:1338,0
DA:1339,0
DA:1341,0
DA:1342,0
DA:1350,0
DA:1352,0
DA:1353,0
DA:1354,0
LF:88
LH:0
end_of_record
SF:/usr/include/c++/4.8.2/bits/vector.tcc
FN:91,_ZNSt6vectorISt4pairImmESaIS1_EE12emplace_backIIS1_EEEvDpOT_
FN:218,_ZNSt6vectorIcSaIcEE14_M_fill_assignEmRKc
FN:399,_ZNSt6vectorISt4pairImmESaIS1_EE19_M_emplace_back_auxIIS1_EEEvDpOT_
FNDA:0,_ZNSt6vectorISt4pairImmESaIS1_EE12emplace_backIIS1_EEEvDpOT_
FNDA:0,_ZNSt6vectorIcSaIcEE14_M_fill_assignEmRKc
FNDA:0,_ZNSt6vectorISt4pairImmESaIS1_EE19_M_emplace_back_auxIIS1_EEEvDpOT_
FNF:3
FNH:0
DA:91,0
DA:94,0
DA:96,0
DA:97,0
DA:98,0
DA:101,0
DA:102,0
DA:218,0
DA:221,0
DA:223,0
DA:224,0
DA:226,0
DA:228,0
DA:229,0
DA:230,0
DA:231,0
DA:232,0
DA:235,0
DA:236,0
DA:399,0
DA:403,0
DA:404,0
DA:405,0
DA:408,0
DA:409,0
DA:410,0
DA:412,0
DA:415,0
DA:417,0
DA:419,0
DA:421,0
DA:422,0
DA:424,0
DA:425,0
DA:426,0
DA:428,0
DA:429,0
DA:430,0
DA:432,0
DA:433,0
DA:434,0
DA:435,0
DA:436,0
LF:43
LH:0
end_of_record
SF:/usr/include/c++/4.8.2/ext/alloc_traits.h
FN:169,_ZN9__gnu_cxx14__alloc_traitsISaIcEE10_S_on_swapERS1_S3_
FN:169,_ZN9__gnu_cxx14__alloc_traitsISaIN7testing8internal10linked_ptrINS2_15ExpectationBaseEEEEE10_S_on_swapERS6_S8_
FNDA:0,_ZN9__gnu_cxx14__alloc_traitsISaIcEE10_S_on_swapERS1_S3_
FNDA:0,_ZN9__gnu_cxx14__alloc_traitsISaIN7testing8internal10linked_ptrINS2_15ExpectationBaseEEEEE10_S_on_swapERS6_S8_
FNF:2
FNH:0
DA:169,0
DA:170,0
LF:2
LH:0
end_of_record
SF:/usr/include/c++/4.8.2/ext/atomicity.h
FN:48,_ZN9__gnu_cxxL18__exchange_and_addEPVii
FN:65,_ZN9__gnu_cxxL25__exchange_and_add_singleEPii
FN:78,_ZN9__gnu_cxxL27__exchange_and_add_dispatchEPii
FNDA:0,_ZN9__gnu_cxxL18__exchange_and_addEPVii
FNDA:0,_ZN9__gnu_cxxL25__exchange_and_add_singleEPii
FNDA:0,_ZN9__gnu_cxxL27__exchange_and_add_dispatchEPii
FNF:3
FNH:0
DA:48,0
DA:49,0
DA:65,0
DA:67,0
DA:68,0
DA:69,0
DA:78,0
DA:81,0
DA:82,0
DA:84,0
LF:10
LH:0
end_of_record
SF:/usr/include/c++/4.8.2/ext/new_allocator.h
FN:79,_ZN9__gnu_cxx13new_allocatorISt4pairImmEEC2Ev
FN:79,_ZN9__gnu_cxx13new_allocatorIN7testing8internal10linked_ptrINS2_15ExpectationBaseEEEEC2Ev
FN:79,_ZN9__gnu_cxx13new_allocatorIPKvEC2Ev
FN:79,_ZN9__gnu_cxx13new_allocatorISt13_Rb_tree_nodeISt4pairIKPKvN7testing8internal12CallReactionEEEEC2Ev
FN:79,_ZN9__gnu_cxx13new_allocatorISt13_Rb_tree_nodeISt4pairIKPKvN7testing12_GLOBAL__N_115MockObjectStateEEEEC2Ev
FN:79,_ZN9__gnu_cxx13new_allocatorImEC2Ev
FN:79,_ZN9__gnu_cxx13new_allocatorISt13_Rb_tree_nodeIN7testing11ExpectationEEEC2Ev
FN:79,_ZN9__gnu_cxx13new_allocatorISt13_Rb_tree_nodeIPN7testing8internal25UntypedFunctionMockerBaseEEEC2Ev
FN:79,_ZN9__gnu_cxx13new_allocatorIcEC2Ev
FN:81,_ZN9__gnu_cxx13new_allocatorImEC2ERKS1_
FN:81,_ZN9__gnu_cxx13new_allocatorIcEC2ERKS1_
FN:86,_ZN9__gnu_cxx13new_allocatorIPKvED2Ev
FN:86,_ZN9__gnu_cxx13new_allocatorISt13_Rb_tree_nodeISt4pairIKPKvN7testing12_GLOBAL__N_115MockObjectStateEEEED2Ev
FN:86,_ZN9__gnu_cxx13new_allocatorISt13_Rb_tree_nodeIN7testing11ExpectationEEED2Ev
FN:86,_ZN9__gnu_cxx13new_allocatorImED2Ev
FN:86,_ZN9__gnu_cxx13new_allocatorIcED2Ev
FN:86,_ZN9__gnu_cxx13new_allocatorISt13_Rb_tree_nodeIPN7testing8internal25UntypedFunctionMockerBaseEEED2Ev
FN:86,_ZN9__gnu_cxx13new_allocatorISt13_Rb_tree_nodeISt4pairIKPKvN7testing8internal12CallReactionEEEED2Ev
FN:86,_ZN9__gnu_cxx13new_allocatorIN7testing8internal10linked_ptrINS2_15ExpectationBaseEEEED2Ev
FN:86,_ZN9__gnu_cxx13new_allocatorISt4pairImmEED2Ev
FN:99,_ZN9__gnu_cxx13new_allocatorISt13_Rb_tree_nodeIPN7testing8internal25UntypedFunctionMockerBaseEEE8allocateEmPKv
FN:99,_ZN9__gnu_cxx13new_allocatorISt4pairImmEE8allocateEmPKv
FN:99,_ZN9__gnu_cxx13new_allocatorISt13_Rb_tree_nodeISt4pairIKPKvN7testing12_GLOBAL__N_115MockObjectStateEEEE8allocateEmS4_
FN:99,_ZN9__gnu_cxx13new_allocatorIcE8allocateEmPKv
FN:99,_ZN9__gnu_cxx13new_allocatorISt13_Rb_tree_nodeISt4pairIKPKvN7testing8internal12CallReactionEEEE8allocateEmS4_
FN:99,_ZN9__gnu_cxx13new_allocatorImE8allocateEmPKv
FN:99,_ZN9__gnu_cxx13new_allocatorISt13_Rb_tree_nodeIN7testing11ExpectationEEE8allocateEmPKv
FN:109,_ZN9__gnu_cxx13new_allocatorIN7testing8internal10linked_ptrINS2_15ExpectationBaseEEEE10deallocateEPS5_m
FN:109,_ZN9__gnu_cxx13new_allocatorIcE10deallocateEPcm
FN:109,_ZN9__gnu_cxx13new_allocatorISt13_Rb_tree_nodeIN7testing11ExpectationEEE10deallocateEPS4_m
FN:109,_ZN9__gnu_cxx13new_allocatorImE10deallocateEPmm
FN:109,_ZN9__gnu_cxx13new_allocatorISt4pairImmEE10deallocateEPS2_m
FN:109,_ZN9__gnu_cxx13new_allocatorISt13_Rb_tree_nodeIPN7testing8internal25UntypedFunctionMockerBaseEEE10deallocateEPS6_m
FN:109,_ZN9__gnu_cxx13new_allocatorISt13_Rb_tree_nodeISt4pairIKPKvN7testing8internal12CallReactionEEEE10deallocateEPSA_m
FN:109,_ZN9__gnu_cxx13new_allocatorIPKvE10deallocateEPS2_m
FN:109,_ZN9__gnu_cxx13new_allocatorISt13_Rb_tree_nodeISt4pairIKPKvN7testing12_GLOBAL__N_115MockObjectStateEEEE10deallocateEPSA_m
FN:113,_ZNK9__gnu_cxx13new_allocatorImE8max_sizeEv
FN:113,_ZNK9__gnu_cxx13new_allocatorIcE8max_sizeEv
FN:113,_ZNK9__gnu_cxx13new_allocatorISt13_Rb_tree_nodeISt4pairIKPKvN7testing12_GLOBAL__N_115MockObjectStateEEEE8max_sizeEv
FN:113,_ZNK9__gnu_cxx13new_allocatorISt13_Rb_tree_nodeISt4pairIKPKvN7testing8internal12CallReactionEEEE8max_sizeEv
FN:113,_ZNK9__gnu_cxx13new_allocatorISt13_Rb_tree_nodeIPN7testing8internal25UntypedFunctionMockerBaseEEE8max_sizeEv
FN:113,_ZNK9__gnu_cxx13new_allocatorISt13_Rb_tree_nodeIN7testing11ExpectationEEE8max_sizeEv
FN:113,_ZNK9__gnu_cxx13new_allocatorISt4pairImmEE8max_sizeEv
FN:119,_ZN9__gnu_cxx13new_allocatorISt13_Rb_tree_nodeIN7testing11ExpectationEEE9constructIS4_IRKS3_EEEvPT_DpOT0_
FN:119,_ZN9__gnu_cxx13new_allocatorISt13_Rb_tree_nodeISt4pairIKPKvN7testing12_GLOBAL__N_115MockObjectStateEEEE9constructISA_IRKSt21piecewise_construct_tSt5tupleIIOS4_EESG_IIEEEEEvPT_DpOT0_
FN:119,_ZN9__gnu_cxx13new_allocatorISt13_Rb_tree_nodeISt4pairIKPKvN7testing12_GLOBAL__N_115MockObjectStateEEEE9constructISA_IRKSt21piecewise_construct_tSt5tupleIIRS5_EESG_IIEEEEEvPT_DpOT0_
FN:119,_ZN9__gnu_cxx13new_allocatorISt13_Rb_tree_nodeIPN7testing8internal25UntypedFunctionMockerBaseEEE9constructIS6_IRKS5_EEEvPT_DpOT0_
FN:119,_ZN9__gnu_cxx13new_allocatorISt13_Rb_tree_nodeISt4pairIKPKvN7testing8internal12CallReactionEEEE9constructISA_IRKSt21piecewise_construct_tSt5tupleIIRS5_EESG_IIEEEEEvPT_DpOT0_
FN:119,_ZN9__gnu_cxx13new_allocatorISt4pairImmEE9constructIS2_IS2_EEEvPT_DpOT0_
FN:124,_ZN9__gnu_cxx13new_allocatorISt13_Rb_tree_nodeIPN7testing8internal25UntypedFunctionMockerBaseEEE7destroyIS6_EEvPT_
FN:124,_ZN9__gnu_cxx13new_allocatorISt13_Rb_tree_nodeISt4pairIKPKvN7testing8internal12CallReactionEEEE7destroyISA_EEvPT_
FN:124,_ZN9__gnu_cxx13new_allocatorISt4pairImmEE7destroyIS2_EEvPT_
FN:124,_ZN9__gnu_cxx13new_allocatorISt13_Rb_tree_nodeIN7testing11ExpectationEEE7destroyIS4_EEvPT_
FN:124,_ZN9__gnu_cxx13new_allocatorISt13_Rb_tree_nodeISt4pairIKPKvN7testing12_GLOBAL__N_115MockObjectStateEEEE7destroyISA_EEvPT_
FNDA:1,_ZN9__gnu_cxx13new_allocatorISt13_Rb_tree_nodeISt4pairIKPKvN7testing8internal12CallReactionEEEEC2Ev
FNDA:1,_ZN9__gnu_cxx13new_allocatorISt13_Rb_tree_nodeISt4pairIKPKvN7testing12_GLOBAL__N_115MockObjectStateEEEEC2Ev
FNDA:0,_ZN9__gnu_cxx13new_allocatorISt13_Rb_tree_nodeIPN7testing8internal25UntypedFunctionMockerBaseEEEC2Ev
FNDA:0,_ZN9__gnu_cxx13new_allocatorIN7testing8internal10linked_ptrINS2_15ExpectationBaseEEEEC2Ev
FNDA:0,_ZN9__gnu_cxx13new_allocatorIPKvEC2Ev
FNDA:0,_ZN9__gnu_cxx13new_allocatorISt4pairImmEEC2Ev
FNDA:0,_ZN9__gnu_cxx13new_allocatorISt13_Rb_tree_nodeIN7testing11ExpectationEEEC2Ev
FNDA:0,_ZN9__gnu_cxx13new_allocatorImEC2Ev
FNDA:0,_ZN9__gnu_cxx13new_allocatorIcEC2Ev
FNDA:0,_ZN9__gnu_cxx13new_allocatorImEC2ERKS1_
FNDA:0,_ZN9__gnu_cxx13new_allocatorIcEC2ERKS1_
FNDA:1,_ZN9__gnu_cxx13new_allocatorISt13_Rb_tree_nodeISt4pairIKPKvN7testing8internal12CallReactionEEEED2Ev
FNDA:0,_ZN9__gnu_cxx13new_allocatorIN7testing8internal10linked_ptrINS2_15ExpectationBaseEEEED2Ev
FNDA:0,_ZN9__gnu_cxx13new_allocatorIPKvED2Ev
FNDA:0,_ZN9__gnu_cxx13new_allocatorISt4pairImmEED2Ev
FNDA:1,_ZN9__gnu_cxx13new_allocatorISt13_Rb_tree_nodeISt4pairIKPKvN7testing12_GLOBAL__N_115MockObjectStateEEEED2Ev
FNDA:0,_ZN9__gnu_cxx13new_allocatorISt13_Rb_tree_nodeIPN7testing8internal25UntypedFunctionMockerBaseEEED2Ev
FNDA:0,_ZN9__gnu_cxx13new_allocatorISt13_Rb_tree_nodeIN7testing11ExpectationEEED2Ev
FNDA:0,_ZN9__gnu_cxx13new_allocatorImED2Ev
FNDA:0,_ZN9__gnu_cxx13new_allocatorIcED2Ev
FNDA:0,_ZN9__gnu_cxx13new_allocatorISt13_Rb_tree_nodeIPN7testing8internal25UntypedFunctionMockerBaseEEE8allocateEmPKv
FNDA:0,_ZN9__gnu_cxx13new_allocatorISt13_Rb_tree_nodeIN7testing11ExpectationEEE8allocateEmPKv
FNDA:0,_ZN9__gnu_cxx13new_allocatorISt13_Rb_tree_nodeISt4pairIKPKvN7testing12_GLOBAL__N_115MockObjectStateEEEE8allocateEmS4_
FNDA:0,_ZN9__gnu_cxx13new_allocatorISt13_Rb_tree_nodeISt4pairIKPKvN7testing8internal12CallReactionEEEE8allocateEmS4_
FNDA:0,_ZN9__gnu_cxx13new_allocatorISt4pairImmEE8allocateEmPKv
FNDA:0,_ZN9__gnu_cxx13new_allocatorImE8allocateEmPKv
FNDA:0,_ZN9__gnu_cxx13new_allocatorIcE8allocateEmPKv
FNDA:0,_ZN9__gnu_cxx13new_allocatorISt13_Rb_tree_nodeISt4pairIKPKvN7testing8internal12CallReactionEEEE10deallocateEPSA_m
FNDA:0,_ZN9__gnu_cxx13new_allocatorISt13_Rb_tree_nodeISt4pairIKPKvN7testing12_GLOBAL__N_115MockObjectStateEEEE10deallocateEPSA_m
FNDA:0,_ZN9__gnu_cxx13new_allocatorISt13_Rb_tree_nodeIPN7testing8internal25UntypedFunctionMockerBaseEEE10deallocateEPS6_m
FNDA:0,_ZN9__gnu_cxx13new_allocatorISt13_Rb_tree_nodeIN7testing11ExpectationEEE10deallocateEPS4_m
FNDA:0,_ZN9__gnu_cxx13new_allocatorIN7testing8internal10linked_ptrINS2_15ExpectationBaseEEEE10deallocateEPS5_m
FNDA:0,_ZN9__gnu_cxx13new_allocatorIPKvE10deallocateEPS2_m
FNDA:0,_ZN9__gnu_cxx13new_allocatorISt4pairImmEE10deallocateEPS2_m
FNDA:0,_ZN9__gnu_cxx13new_allocatorImE10deallocateEPmm
FNDA:0,_ZN9__gnu_cxx13new_allocatorIcE10deallocateEPcm
FNDA:0,_ZNK9__gnu_cxx13new_allocatorISt13_Rb_tree_nodeIPN7testing8internal25UntypedFunctionMockerBaseEEE8max_sizeEv
FNDA:0,_ZNK9__gnu_cxx13new_allocatorISt13_Rb_tree_nodeIN7testing11ExpectationEEE8max_sizeEv
FNDA:0,_ZNK9__gnu_cxx13new_allocatorISt13_Rb_tree_nodeISt4pairIKPKvN7testing12_GLOBAL__N_115MockObjectStateEEEE8max_sizeEv
FNDA:0,_ZNK9__gnu_cxx13new_allocatorISt13_Rb_tree_nodeISt4pairIKPKvN7testing8internal12CallReactionEEEE8max_sizeEv
FNDA:0,_ZNK9__gnu_cxx13new_allocatorISt4pairImmEE8max_sizeEv
FNDA:0,_ZNK9__gnu_cxx13new_allocatorImE8max_sizeEv
FNDA:0,_ZNK9__gnu_cxx13new_allocatorIcE8max_sizeEv
FNDA:0,_ZN9__gnu_cxx13new_allocatorISt13_Rb_tree_nodeIPN7testing8internal25UntypedFunctionMockerBaseEEE9constructIS6_IRKS5_EEEvPT_DpOT0_
FNDA:0,_ZN9__gnu_cxx13new_allocatorISt13_Rb_tree_nodeIN7testing11ExpectationEEE9constructIS4_IRKS3_EEEvPT_DpOT0_
FNDA:0,_ZN9__gnu_cxx13new_allocatorISt13_Rb_tree_nodeISt4pairIKPKvN7testing12_GLOBAL__N_115MockObjectStateEEEE9constructISA_IRKSt21piecewise_construct_tSt5tupleIIOS4_EESG_IIEEEEEvPT_DpOT0_
FNDA:0,_ZN9__gnu_cxx13new_allocatorISt13_Rb_tree_nodeISt4pairIKPKvN7testing12_GLOBAL__N_115MockObjectStateEEEE9constructISA_IRKSt21piecewise_construct_tSt5tupleIIRS5_EESG_IIEEEEEvPT_DpOT0_
FNDA:0,_ZN9__gnu_cxx13new_allocatorISt13_Rb_tree_nodeISt4pairIKPKvN7testing8internal12CallReactionEEEE9constructISA_IRKSt21piecewise_construct_tSt5tupleIIRS5_EESG_IIEEEEEvPT_DpOT0_
FNDA:0,_ZN9__gnu_cxx13new_allocatorISt4pairImmEE9constructIS2_IS2_EEEvPT_DpOT0_
FNDA:0,_ZN9__gnu_cxx13new_allocatorISt4pairImmEE7destroyIS2_EEvPT_
FNDA:0,_ZN9__gnu_cxx13new_allocatorISt13_Rb_tree_nodeISt4pairIKPKvN7testing8internal12CallReactionEEEE7destroyISA_EEvPT_
FNDA:0,_ZN9__gnu_cxx13new_allocatorISt13_Rb_tree_nodeISt4pairIKPKvN7testing12_GLOBAL__N_115MockObjectStateEEEE7destroyISA_EEvPT_
FNDA:0,_ZN9__gnu_cxx13new_allocatorISt13_Rb_tree_nodeIPN7testing8internal25UntypedFunctionMockerBaseEEE7destroyIS6_EEvPT_
FNDA:0,_ZN9__gnu_cxx13new_allocatorISt13_Rb_tree_nodeIN7testing11ExpectationEEE7destroyIS4_EEvPT_
FNF:54
FNH:4
DA:79,2
DA:81,0
DA:86,2
DA:99,0
DA:101,0
DA:102,0
DA:104,0
DA:109,0
DA:110,0
DA:113,0
DA:114,0
DA:119,0
DA:120,0
DA:124,0
LF:14
LH:2
end_of_record
SF:/usr/include/c++/4.8.2/ext/type_traits.h
FN:150,_ZN9__gnu_cxx17__is_null_pointerIcEEbPT_
FNDA:0,_ZN9__gnu_cxx17__is_null_pointerIcEEbPT_
FNF:1
FNH:0
DA:150,0
DA:151,0
LF:2
LH:0
end_of_record
SF:/usr/include/c++/4.8.2/iostream
DA:74,1
LF:1
LH:1
end_of_record
SF:/usr/include/c++/4.8.2/new
FN:109,_ZnwmPv
FN:115,_ZdlPvS_
FNDA:0,_ZnwmPv
FNDA:0,_ZdlPvS_
FNF:2
FNH:0
DA:109,0
DA:110,0
DA:115,0
LF:3
LH:0
end_of_record
SF:/usr/include/c++/4.8.2/sstream
FN:64,_ZNSt15basic_stringbufIcSt11char_traitsIcESaIcEED0Ev
FN:64,_ZNSt15basic_stringbufIcSt11char_traitsIcESaIcEED2Ev
FNDA:0,_ZNSt15basic_stringbufIcSt11char_traitsIcESaIcEED0Ev
FNDA:0,_ZNSt15basic_stringbufIcSt11char_traitsIcESaIcEED2Ev
FNF:2
FNH:0
DA:64,0
LF:1
LH:0
end_of_record
SF:/usr/include/c++/4.8.2/tuple
FN:134,_ZNSt10_Head_baseILm0ERKPKvLb0EEC2ES3_
FN:141,_ZNSt10_Head_baseILm0EOPKvLb0EEC2IS1_EEOT_
FN:169,_ZNSt10_Head_baseILm0ERKPKvLb0EE7_M_headERS4_
FN:169,_ZNSt10_Head_baseILm0EOPKvLb0EE7_M_headERS3_
FN:197,_ZNSt11_Tuple_implILm1EIEEC2Ev
FN:241,_ZNSt11_Tuple_implILm0EIRKPKvEE7_M_headERS4_
FN:241,_ZNSt11_Tuple_implILm0EIOPKvEE7_M_headERS3_
FN:247,_ZNSt11_Tuple_implILm0EIOPKvEE7_M_tailERS3_
FN:247,_ZNSt11_Tuple_implILm0EIRKPKvEE7_M_tailERS4_
FN:256,_ZNSt11_Tuple_implILm0EIRKPKvEEC2ES3_
FN:262,_ZNSt11_Tuple_implILm0EIOPKvEEC2IS1_IEvEEOT_DpOT0_
FN:269,_ZNSt11_Tuple_implILm0EIRKPKvEEC2EOS4_
FN:269,_ZNSt11_Tuple_implILm0EIOPKvEEC2EOS3_
FN:399,_ZNSt5tupleIIRKPKvEEC2ES3_
FN:406,_ZNSt5tupleIIOPKvEEC2IIS1_EvEEDpOT_
FN:411,_ZNSt5tupleIIOPKvEEC2EOS3_
FN:411,_ZNSt5tupleIIRKPKvEEC2EOS4_
FN:744,_ZSt12__get_helperILm0EOPKvIEENSt9__add_refIT0_E4typeERSt11_Tuple_implIXT_EIS4_DpT1_EE
FN:744,_ZSt12__get_helperILm0ERKPKvIEENSt9__add_refIT0_E4typeERSt11_Tuple_implIXT_EIS5_DpT1_EE
FN:759,_ZSt3getILm0EIRKPKvEENSt9__add_refINSt13tuple_elementIXT_ESt5tupleIIDpT0_EEE4typeEE4typeERS9_
FN:759,_ZSt3getILm0EIOPKvEENSt9__add_refINSt13tuple_elementIXT_ESt5tupleIIDpT0_EEE4typeEE4typeERS8_
FN:869,_ZSt16forward_as_tupleIIPKvEESt5tupleIIDpOT_EES5_
FN:1074,_ZNSt4pairIKPKvN7testing12_GLOBAL__N_115MockObjectStateEEC2IIRS2_EIEEESt21piecewise_construct_tSt5tupleIIDpT_EESA_IIDpT0_EE
FN:1074,_ZNSt4pairIKPKvN7testing12_GLOBAL__N_115MockObjectStateEEC2IIOS1_EIEEESt21piecewise_construct_tSt5tupleIIDpT_EESA_IIDpT0_EE
FN:1074,_ZNSt4pairIKPKvN7testing8internal12CallReactionEEC2IIRS2_EIEEESt21piecewise_construct_tSt5tupleIIDpT_EESA_IIDpT0_EE
FN:1086,_ZNSt4pairIKPKvN7testing12_GLOBAL__N_115MockObjectStateEEC2IIRS2_EILm0EEIEIEEERSt5tupleIIDpT_EERS9_IIDpT1_EESt12_Index_tupleIIXspT0_EEESI_IIXspT2_EEE
FN:1086,_ZNSt4pairIKPKvN7testing12_GLOBAL__N_115MockObjectStateEEC2IIOS1_EILm0EEIEIEEERSt5tupleIIDpT_EERS9_IIDpT1_EESt12_Index_tupleIIXspT0_EEESI_IIXspT2_EEE
FN:1086,_ZNSt4pairIKPKvN7testing8internal12CallReactionEEC2IIRS2_EILm0EEIEIEEERSt5tupleIIDpT_EERS9_IIDpT1_EESt12_Index_tupleIIXspT0_EEESI_IIXspT2_EEE
FNDA:0,_ZNSt10_Head_baseILm0ERKPKvLb0EEC2ES3_
FNDA:0,_ZNSt10_Head_baseILm0EOPKvLb0EEC2IS1_EEOT_
FNDA:0,_ZNSt10_Head_baseILm0ERKPKvLb0EE7_M_headERS4_
FNDA:0,_ZNSt10_Head_baseILm0EOPKvLb0EE7_M_headERS3_
FNDA:0,_ZNSt11_Tuple_implILm1EIEEC2Ev
FNDA:0,_ZNSt11_Tuple_implILm0EIRKPKvEE7_M_headERS4_
FNDA:0,_ZNSt11_Tuple_implILm0EIOPKvEE7_M_headERS3_
FNDA:0,_ZNSt11_Tuple_implILm0EIRKPKvEE7_M_tailERS4_
FNDA:0,_ZNSt11_Tuple_implILm0EIOPKvEE7_M_tailERS3_
FNDA:0,_ZNSt11_Tuple_implILm0EIRKPKvEEC2ES3_
FNDA:0,_ZNSt11_Tuple_implILm0EIOPKvEEC2IS1_IEvEEOT_DpOT0_
FNDA:0,_ZNSt11_Tuple_implILm0EIRKPKvEEC2EOS4_
FNDA:0,_ZNSt11_Tuple_implILm0EIOPKvEEC2EOS3_
FNDA:0,_ZNSt5tupleIIRKPKvEEC2ES3_
FNDA:0,_ZNSt5tupleIIOPKvEEC2IIS1_EvEEDpOT_
FNDA:0,_ZNSt5tupleIIRKPKvEEC2EOS4_
FNDA:0,_ZNSt5tupleIIOPKvEEC2EOS3_
FNDA:0,_ZSt12__get_helperILm0EOPKvIEENSt9__add_refIT0_E4typeERSt11_Tuple_implIXT_EIS4_DpT1_EE
FNDA:0,_ZSt12__get_helperILm0ERKPKvIEENSt9__add_refIT0_E4typeERSt11_Tuple_implIXT_EIS5_DpT1_EE
FNDA:0,_ZSt3getILm0EIOPKvEENSt9__add_refINSt13tuple_elementIXT_ESt5tupleIIDpT0_EEE4typeEE4typeERS8_
FNDA:0,_ZSt3getILm0EIRKPKvEENSt9__add_refINSt13tuple_elementIXT_ESt5tupleIIDpT0_EEE4typeEE4typeERS9_
FNDA:0,_ZSt16forward_as_tupleIIPKvEESt5tupleIIDpOT_EES5_
FNDA:0,_ZNSt4pairIKPKvN7testing12_GLOBAL__N_115MockObjectStateEEC2IIOS1_EIEEESt21piecewise_construct_tSt5tupleIIDpT_EESA_IIDpT0_EE
FNDA:0,_ZNSt4pairIKPKvN7testing12_GLOBAL__N_115MockObjectStateEEC2IIRS2_EIEEESt21piecewise_construct_tSt5tupleIIDpT_EESA_IIDpT0_EE
FNDA:0,_ZNSt4pairIKPKvN7testing8internal12CallReactionEEC2IIRS2_EIEEESt21piecewise_construct_tSt5tupleIIDpT_EESA_IIDpT0_EE
FNDA:0,_ZNSt4pairIKPKvN7testing12_GLOBAL__N_115MockObjectStateEEC2IIOS1_EILm0EEIEIEEERSt5tupleIIDpT_EERS9_IIDpT1_EESt12_Index_tupleIIXspT0_EEESI_IIXspT2_EEE
FNDA:0,_ZNSt4pairIKPKvN7testing12_GLOBAL__N_115MockObjectStateEEC2IIRS2_EILm0EEIEIEEERSt5tupleIIDpT_EERS9_IIDpT1_EESt12_Index_tupleIIXspT0_EEESI_IIXspT2_EEE
FNDA:0,_ZNSt4pairIKPKvN7testing8internal12CallReactionEEC2IIRS2_EILm0EEIEIEEERSt5tupleIIDpT_EERS9_IIDpT1_EESt12_Index_tupleIIXspT0_EEESI_IIXspT2_EEE
FNF:28
FNH:0
DA:134,0
DA:135,0
DA:141,0
DA:142,0
DA:169,0
DA:197,0
DA:241,0
DA:247,0
DA:256,0
DA:257,0
DA:262,0
DA:264,0
DA:269,0
DA:272,0
DA:273,0
DA:399,0
DA:400,0
DA:406,0
DA:407,0
DA:411,0
DA:744,0
DA:745,0
DA:759,0
DA:760,0
DA:869,0
DA:870,0
DA:1074,0
DA:1079,0
DA:1080,0
DA:1086,0
DA:1089,0
DA:1090,0
DA:1091,0
LF:33
LH:0
end_of_record
SF:/usr/include/c++/4.8.2/typeinfo
FN:120,_ZNKSt9type_infoeqERKS_
FNDA:0,_ZNKSt9type_infoeqERKS_
FNF:1
FNH:0
DA:120,0
DA:122,0
DA:123,0
DA:124,0
LF:4
LH:0
end_of_record
SF:/usr/include/c++/4.8.2/x86_64-redhat-linux/bits/gthr-default.h
FN:247,_ZL18__gthread_active_pv
FNDA:0,_ZL18__gthread_active_pv
FNF:1
FNH:0
DA:247,0
DA:251,0
LF:2
LH:0
end_of_record
SF:/home/vagrant/project/cleancode/201610/DupDetector/ut/tool/ut_framework/gmock/gmock/gtest/include/gtest/gtest-message.h
FN:85,_ZN7testing7MessageD2Ev
FN:96,_ZN7testing7MessageC2ERKS0_
FN:115,_ZN7testing7MessagelsImEERS0_RKT_
FN:115,_ZN7testing7MessagelsIA9_cEERS0_RKT_
FN:149,_ZN7testing7MessagelsIKcEERS0_RKPT_
FN:149,_ZN7testing7MessagelsIcEERS0_RKPT_
FN:232,_ZN7testinglsERSoRKNS_7MessageE
FN:243,_ZN7testing8internal18StreamableToStringIPcEESsRKT_
FN:243,_ZN7testing8internal18StreamableToStringIPwEESsRKT_
FNDA:0,_ZN7testing7MessageD2Ev
FNDA:0,_ZN7testing7MessageC2ERKS0_
FNDA:0,_ZN7testing7MessagelsIA9_cEERS0_RKT_
FNDA:0,_ZN7testing7MessagelsImEERS0_RKT_
FNDA:0,_ZN7testing7MessagelsIcEERS0_RKPT_
FNDA:0,_ZN7testing7MessagelsIKcEERS0_RKPT_
FNDA:0,_ZN7testinglsERSoRKNS_7MessageE
FNDA:0,_ZN7testing8internal18StreamableToStringIPwEESsRKT_
FNDA:0,_ZN7testing8internal18StreamableToStringIPcEESsRKT_
FNF:9
FNH:0
DA:85,0
DA:96,0
DA:97,0
DA:98,0
DA:115,0
DA:131,0
DA:132,0
DA:149,0
DA:150,0
DA:151,0
DA:153,0
DA:155,0
DA:232,0
DA:233,0
DA:243,0
DA:244,0
LF:16
LH:0
end_of_record
SF:/home/vagrant/project/cleancode/201610/DupDetector/ut/tool/ut_framework/gmock/gmock/gtest/include/gtest/gtest-printers.h
FN:464,_ZN7testing8internal7PrintToERKSsPSo
FN:591,_ZN7testing8internal16UniversalPrinterISsE5PrintERKSsPSo
FN:752,_ZN7testing8internal14UniversalPrintISsEEvRKT_PSo
FNDA:0,_ZN7testing8internal7PrintToERKSsPSo
FNDA:0,_ZN7testing8internal16UniversalPrinterISsE5PrintERKSsPSo
FNDA:0,_ZN7testing8internal14UniversalPrintISsEEvRKT_PSo
FNF:3
FNH:0
DA:464,0
DA:465,0
DA:466,0
DA:591,0
DA:600,0
DA:601,0
DA:752,0
DA:756,0
DA:757,0
LF:9
LH:0
end_of_record
SF:/home/vagrant/project/cleancode/201610/DupDetector/ut/tool/ut_framework/gmock/gmock/gtest/include/gtest/gtest.h
FN:628,_ZNK7testing8TestInfo14test_case_nameEv
FN:631,_ZNK7testing8TestInfo4nameEv
FNDA:0,_ZNK7testing8TestInfo14test_case_nameEv
FNDA:0,_ZNK7testing8TestInfo4nameEv
FNF:2
FNH:0
DA:628,0
DA:631,0
LF:2
LH:0
end_of_record
SF:/home/vagrant/project/cleancode/201610/DupDetector/ut/tool/ut_framework/gmock/gmock/gtest/include/gtest/internal/gtest-linked_ptr.h
FN:92,_ZN7testing8internal19linked_ptr_internal8join_newEv
FN:108,_ZN7testing8internal19linked_ptr_internal4joinEPKS1_
FN:120,_ZN7testing8internal19linked_ptr_internal6departEv
FN:142,_ZN7testing8internal10linked_ptrIKNS_20CardinalityInterfaceEEC2EPS3_
FN:142,_ZN7testing8internal10linked_ptrINS_11ExpectationEEC2EPS2_
FN:142,_ZN7testing8internal10linked_ptrIKNS_16MatcherInterfaceISsEEEC2EPS4_
FN:142,_ZN7testing8internal10linked_ptrIKNS_16MatcherInterfaceIRKSsEEEC2EPS6_
FN:142,_ZN7testing8internal10linked_ptrINS0_15ExpectationBaseEEC2EPS2_
FN:143,_ZN7testing8internal10linked_ptrINS_11ExpectationEED2Ev
FN:143,_ZN7testing8internal10linked_ptrIKNS_16MatcherInterfaceIRKSsEEED2Ev
FN:143,_ZN7testing8internal10linked_ptrINS0_15ExpectationBaseEED2Ev
FN:143,_ZN7testing8internal10linked_ptrIKNS_20CardinalityInterfaceEED2Ev
FN:143,_ZN7testing8internal10linked_ptrIKNS_16MatcherInterfaceISsEEED2Ev
FN:147,_ZN7testing8internal10linked_ptrINS0_15ExpectationBaseEEC2ERKS3_
FN:159,_ZN7testing8internal10linked_ptrINS0_15ExpectationBaseEEaSERKS3_
FN:159,_ZN7testing8internal10linked_ptrIKNS_20CardinalityInterfaceEEaSERKS4_
FN:159,_ZN7testing8internal10linked_ptrIKNS_16MatcherInterfaceISsEEEaSERKS5_
FN:159,_ZN7testing8internal10linked_ptrIKNS_16MatcherInterfaceIRKSsEEEaSERKS7_
FN:172,_ZNK7testing8internal10linked_ptrIKNS_16MatcherInterfaceISsEEE3getEv
FN:172,_ZNK7testing8internal10linked_ptrINS0_15ExpectationBaseEE3getEv
FN:172,_ZNK7testing8internal10linked_ptrIKNS_20CardinalityInterfaceEE3getEv
FN:172,_ZNK7testing8internal10linked_ptrIKNS_16MatcherInterfaceIRKSsEEE3getEv
FN:173,_ZNK7testing8internal10linked_ptrIKNS_20CardinalityInterfaceEEptEv
FN:173,_ZNK7testing8internal10linked_ptrINS_11ExpectationEEptEv
FN:173,_ZNK7testing8internal10linked_ptrINS0_15ExpectationBaseEEptEv
FN:174,_ZNK7testing8internal10linked_ptrINS_11ExpectationEEdeEv
FN:177,_ZNK7testing8internal10linked_ptrINS0_15ExpectationBaseEEneEPS2_
FN:179,_ZNK7testing8internal10linked_ptrINS0_15ExpectationBaseEEeqIS2_EEbRKNS1_IT_EE
FN:194,_ZN7testing8internal10linked_ptrINS0_15ExpectationBaseEE6departEv
FN:194,_ZN7testing8internal10linked_ptrINS_11ExpectationEE6departEv
FN:194,_ZN7testing8internal10linked_ptrIKNS_20CardinalityInterfaceEE6departEv
FN:194,_ZN7testing8internal10linked_ptrIKNS_16MatcherInterfaceIRKSsEEE6departEv
FN:194,_ZN7testing8internal10linked_ptrIKNS_16MatcherInterfaceISsEEE6departEv
FN:198,_ZN7testing8internal10linked_ptrIKNS_16MatcherInterfaceISsEEE7captureEPS4_
FN:198,_ZN7testing8internal10linked_ptrINS_11ExpectationEE7captureEPS2_
FN:198,_ZN7testing8internal10linked_ptrIKNS_20CardinalityInterfaceEE7captureEPS3_
FN:198,_ZN7testing8internal10linked_ptrIKNS_16MatcherInterfaceIRKSsEEE7captureEPS6_
FN:198,_ZN7testing8internal10linked_ptrINS0_15ExpectationBaseEE7captureEPS2_
FN:203,_ZN7testing8internal10linked_ptrIKNS_16MatcherInterfaceISsEEE4copyIS4_EEvPKNS1_IT_EE
FN:203,_ZN7testing8internal10linked_ptrINS0_15ExpectationBaseEE4copyIS2_EEvPKNS1_IT_EE
FN:203,_ZN7testing8internal10linked_ptrIKNS_16MatcherInterfaceIRKSsEEE4copyIS6_EEvPKNS1_IT_EE
FN:203,_ZN7testing8internal10linked_ptrIKNS_20CardinalityInterfaceEE4copyIS3_EEvPKNS1_IT_EE
FNDA:0,_ZN7testing8internal19linked_ptr_internal8join_newEv
FNDA:0,_ZN7testing8internal19linked_ptr_internal4joinEPKS1_
FNDA:0,_ZN7testing8internal19linked_ptr_internal6departEv
FNDA:0,_ZN7testing8internal10linked_ptrIKNS_16MatcherInterfaceISsEEEC2EPS4_
FNDA:0,_ZN7testing8internal10linked_ptrIKNS_16MatcherInterfaceIRKSsEEEC2EPS6_
FNDA:0,_ZN7testing8internal10linked_ptrINS0_15ExpectationBaseEEC2EPS2_
FNDA:0,_ZN7testing8internal10linked_ptrINS_11ExpectationEEC2EPS2_
FNDA:0,_ZN7testing8internal10linked_ptrIKNS_20CardinalityInterfaceEEC2EPS3_
FNDA:0,_ZN7testing8internal10linked_ptrIKNS_16MatcherInterfaceISsEEED2Ev
FNDA:0,_ZN7testing8internal10linked_ptrIKNS_16MatcherInterfaceIRKSsEEED2Ev
FNDA:0,_ZN7testing8internal10linked_ptrINS0_15ExpectationBaseEED2Ev
FNDA:0,_ZN7testing8internal10linked_ptrINS_11ExpectationEED2Ev
FNDA:0,_ZN7testing8internal10linked_ptrIKNS_20CardinalityInterfaceEED2Ev
FNDA:0,_ZN7testing8internal10linked_ptrINS0_15ExpectationBaseEEC2ERKS3_
FNDA:0,_ZN7testing8internal10linked_ptrINS0_15ExpectationBaseEEaSERKS3_
FNDA:0,_ZN7testing8internal10linked_ptrIKNS_16MatcherInterfaceISsEEEaSERKS5_
FNDA:0,_ZN7testing8internal10linked_ptrIKNS_16MatcherInterfaceIRKSsEEEaSERKS7_
FNDA:0,_ZN7testing8internal10linked_ptrIKNS_20CardinalityInterfaceEEaSERKS4_
FNDA:0,_ZNK7testing8internal10linked_ptrIKNS_16MatcherInterfaceISsEEE3getEv
FNDA:0,_ZNK7testing8internal10linked_ptrIKNS_16MatcherInterfaceIRKSsEEE3getEv
FNDA:0,_ZNK7testing8internal10linked_ptrIKNS_20CardinalityInterfaceEE3getEv
FNDA:0,_ZNK7testing8internal10linked_ptrINS0_15ExpectationBaseEE3getEv
FNDA:0,_ZNK7testing8internal10linked_ptrINS_11ExpectationEEptEv
FNDA:0,_ZNK7testing8internal10linked_ptrINS0_15ExpectationBaseEEptEv
FNDA:0,_ZNK7testing8internal10linked_ptrIKNS_20CardinalityInterfaceEEptEv
FNDA:0,_ZNK7testing8internal10linked_ptrINS_11ExpectationEEdeEv
FNDA:0,_ZNK7testing8internal10linked_ptrINS0_15ExpectationBaseEEneEPS2_
FNDA:0,_ZNK7testing8internal10linked_ptrINS0_15ExpectationBaseEEeqIS2_EEbRKNS1_IT_EE
FNDA:0,_ZN7testing8internal10linked_ptrIKNS_16MatcherInterfaceISsEEE6departEv
FNDA:0,_ZN7testing8internal10linked_ptrIKNS_16MatcherInterfaceIRKSsEEE6departEv
FNDA:0,_ZN7testing8internal10linked_ptrINS0_15ExpectationBaseEE6departEv
FNDA:0,_ZN7testing8internal10linked_ptrINS_11ExpectationEE6departEv
FNDA:0,_ZN7testing8internal10linked_ptrIKNS_20CardinalityInterfaceEE6departEv
FNDA:0,_ZN7testing8internal10linked_ptrIKNS_16MatcherInterfaceISsEEE7captureEPS4_
FNDA:0,_ZN7testing8internal10linked_ptrIKNS_16MatcherInterfaceIRKSsEEE7captureEPS6_
FNDA:0,_ZN7testing8internal10linked_ptrINS0_15ExpectationBaseEE7captureEPS2_
FNDA:0,_ZN7testing8internal10linked_ptrINS_11ExpectationEE7captureEPS2_
FNDA:0,_ZN7testing8internal10linked_ptrIKNS_20CardinalityInterfaceEE7captureEPS3_
FNDA:0,_ZN7testing8internal10linked_ptrIKNS_16MatcherInterfaceISsEEE4copyIS4_EEvPKNS1_IT_EE
FNDA:0,_ZN7testing8internal10linked_ptrIKNS_16MatcherInterfaceIRKSsEEE4copyIS6_EEvPKNS1_IT_EE
FNDA:0,_ZN7testing8internal10linked_ptrINS0_15ExpectationBaseEE4copyIS2_EEvPKNS1_IT_EE
FNDA:0,_ZN7testing8internal10linked_ptrIKNS_20CardinalityInterfaceEE4copyIS3_EEvPKNS1_IT_EE
FNF:42
FNH:0
DA:92,0
DA:93,0
DA:94,0
DA:108,0
DA:110,0
DA:112,0
DA:113,0
DA:114,0
DA:115,0
DA:116,0
DA:120,0
DA:122,0
DA:124,0
DA:125,0
DA:126,0
DA:127,0
DA:128,0
DA:142,0
DA:143,0
DA:147,0
DA:148,0
DA:149,0
DA:150,0
DA:159,0
DA:160,0
DA:161,0
DA:162,0
DA:164,0
DA:172,0
DA:173,0
DA:174,0
DA:177,0
DA:179,0
DA:180,0
DA:194,0
DA:195,0
DA:196,0
DA:198,0
DA:199,0
DA:200,0
DA:201,0
DA:203,0
DA:204,0
DA:205,0
DA:206,0
DA:208,0
DA:209,0
LF:47
LH:0
end_of_record
SF:/home/vagrant/project/cleancode/201610/DupDetector/ut/tool/ut_framework/gmock/gmock/gtest/include/gtest/internal/gtest-port.h
FN:894,_ZN7testing8internal10scoped_ptrISt18basic_stringstreamIcSt11char_traitsIcESaIcEEEC2EPS6_
FN:895,_ZN7testing8internal10scoped_ptrISt18basic_stringstreamIcSt11char_traitsIcESaIcEEED2Ev
FN:897,_ZNK7testing8internal10scoped_ptrISt18basic_stringstreamIcSt11char_traitsIcESaIcEEEdeEv
FN:907,_ZN7testing8internal10scoped_ptrISt18basic_stringstreamIcSt11char_traitsIcESaIcEEE5resetEPS6_
FN:1031,_ZN7testing8internal8GTestLog9GetStreamEv
FN:1145,_ZN7testing8internal27CheckedDowncastToActualTypeINS0_11ThreadLocalIPNS_8SequenceEE11ValueHolderENS0_26ThreadLocalValueHolderBaseEEEPT_PT0_
FN:1336,_ZN7testing8internal9MutexBaseC2Ev
FN:1339,_ZN7testing8internal9MutexBase4LockEv
FN:1346,_ZN7testing8internal9MutexBase6UnlockEv
FN:1357,_ZNK7testing8internal9MutexBase10AssertHeldEv
FN:1396,_ZN7testing8internal5MutexC2Ev
FN:1400,_ZN7testing8internal5MutexD2Ev
FN:1413,_ZN7testing8internal14GTestMutexLockC2EPNS0_9MutexBaseE
FN:1416,_ZN7testing8internal14GTestMutexLockD2Ev
FN:1432,_ZN7testing8internal26ThreadLocalValueHolderBaseC2Ev
FN:1434,_ZN7testing8internal26ThreadLocalValueHolderBaseD0Ev
FN:1434,_ZN7testing8internal26ThreadLocalValueHolderBaseD2Ev
FN:1439,DeleteThreadLocalValue
FN:1475,_ZN7testing8internal11ThreadLocalIPNS_8SequenceEEC2Ev
FN:1480,_ZN7testing8internal11ThreadLocalIPNS_8SequenceEED2Ev
FN:1489,_ZN7testing8internal11ThreadLocalIPNS_8SequenceEE7pointerEv
FN:1490,_ZNK7testing8internal11ThreadLocalIPNS_8SequenceEE7pointerEv
FN:1491,_ZNK7testing8internal11ThreadLocalIPNS_8SequenceEE3getEv
FN:1492,_ZN7testing8internal11ThreadLocalIPNS_8SequenceEE3setERKS3_
FN:1496,_ZN7testing8internal11ThreadLocalIPNS_8SequenceEE11ValueHolderD0Ev
FN:1496,_ZN7testing8internal11ThreadLocalIPNS_8SequenceEE11ValueHolderD2Ev
FN:1498,_ZN7testing8internal11ThreadLocalIPNS_8SequenceEE11ValueHolderC2ERKS3_
FN:1500,_ZN7testing8internal11ThreadLocalIPNS_8SequenceEE11ValueHolder7pointerEv
FN:1507,_ZN7testing8internal11ThreadLocalIPNS_8SequenceEE9CreateKeyEv
FN:1516,_ZNK7testing8internal11ThreadLocalIPNS_8SequenceEE16GetOrCreateValueEv
FN:1659,_ZN7testing8internal7IsAlphaEc
FN:1662,_ZN7testing8internal7IsAlNumEc
FN:1665,_ZN7testing8internal7IsDigitEc
FN:1668,_ZN7testing8internal7IsLowerEc
FN:1674,_ZN7testing8internal7IsUpperEc
FN:1685,_ZN7testing8internal7ToLowerEc
FN:1816,_ZN7testing8internal5posix5AbortEv
FNDA:0,_ZN7testing8internal10scoped_ptrISt18basic_stringstreamIcSt11char_traitsIcESaIcEEEC2EPS6_
FNDA:0,_ZN7testing8internal10scoped_ptrISt18basic_stringstreamIcSt11char_traitsIcESaIcEEED2Ev
FNDA:0,_ZNK7testing8internal10scoped_ptrISt18basic_stringstreamIcSt11char_traitsIcESaIcEEEdeEv
FNDA:0,_ZN7testing8internal10scoped_ptrISt18basic_stringstreamIcSt11char_traitsIcESaIcEEE5resetEPS6_
FNDA:0,_ZN7testing8internal8GTestLog9GetStreamEv
FNDA:0,_ZN7testing8internal27CheckedDowncastToActualTypeINS0_11ThreadLocalIPNS_8SequenceEE11ValueHolderENS0_26ThreadLocalValueHolderBaseEEEPT_PT0_
FNDA:0,_ZN7testing8internal9MutexBaseC2Ev
FNDA:0,_ZN7testing8internal9MutexBase4LockEv
FNDA:0,_ZN7testing8internal9MutexBase6UnlockEv
FNDA:0,_ZNK7testing8internal9MutexBase10AssertHeldEv
FNDA:0,_ZN7testing8internal5MutexC2Ev
FNDA:0,_ZN7testing8internal5MutexD2Ev
FNDA:0,_ZN7testing8internal14GTestMutexLockC2EPNS0_9MutexBaseE
FNDA:0,_ZN7testing8internal14GTestMutexLockD2Ev
FNDA:0,_ZN7testing8internal26ThreadLocalValueHolderBaseC2Ev
FNDA:0,_ZN7testing8internal26ThreadLocalValueHolderBaseD0Ev
FNDA:0,_ZN7testing8internal26ThreadLocalValueHolderBaseD2Ev
FNDA:0,DeleteThreadLocalValue
FNDA:1,_ZN7testing8internal11ThreadLocalIPNS_8SequenceEEC2Ev
FNDA:1,_ZN7testing8internal11ThreadLocalIPNS_8SequenceEED2Ev
FNDA:0,_ZN7testing8internal11ThreadLocalIPNS_8SequenceEE7pointerEv
FNDA:0,_ZNK7testing8internal11ThreadLocalIPNS_8SequenceEE7pointerEv
FNDA:0,_ZNK7testing8internal11ThreadLocalIPNS_8SequenceEE3getEv
FNDA:0,_ZN7testing8internal11ThreadLocalIPNS_8SequenceEE3setERKS3_
FNDA:0,_ZN7testing8internal11ThreadLocalIPNS_8SequenceEE11ValueHolderD0Ev
FNDA:0,_ZN7testing8internal11ThreadLocalIPNS_8SequenceEE11ValueHolderD2Ev
FNDA:0,_ZN7testing8internal11ThreadLocalIPNS_8SequenceEE11ValueHolderC2ERKS3_
FNDA:0,_ZN7testing8internal11ThreadLocalIPNS_8SequenceEE11ValueHolder7pointerEv
FNDA:1,_ZN7testing8internal11ThreadLocalIPNS_8SequenceEE9CreateKeyEv
FNDA:0,_ZNK7testing8internal11ThreadLocalIPNS_8SequenceEE16GetOrCreateValueEv
FNDA:0,_ZN7testing8internal7IsAlphaEc
FNDA:0,_ZN7testing8internal7IsAlNumEc
FNDA:0,_ZN7testing8internal7IsDigitEc
FNDA:0,_ZN7testing8internal7IsLowerEc
FNDA:0,_ZN7testing8internal7IsUpperEc
FNDA:0,_ZN7testing8internal7ToLowerEc
FNDA:0,_ZN7testing8internal5posix5AbortEv
FNF:37
FNH:3
DA:894,0
DA:895,0
DA:897,0
DA:907,0
DA:908,0
DA:909,0
DA:910,0
DA:912,0
DA:914,0
DA:1031,0
DA:1145,0
DA:1147,0
DA:1148,0
DA:1336,0
DA:1339,0
DA:1340,0
DA:1341,0
DA:1342,0
DA:1343,0
DA:1346,0
DA:1351,0
DA:1352,0
DA:1353,0
DA:1357,0
DA:1358,0
DA:1359,0
DA:1360,0
DA:1396,0
DA:1397,0
DA:1398,0
DA:1399,0
DA:1400,0
DA:1401,0
DA:1402,0
DA:1413,0
DA:1414,0
DA:1416,0
DA:1432,0
DA:1434,0
DA:1439,0
DA:1440,0
DA:1441,0
DA:1475,1
DA:1476,1
DA:1480,1
DA:1482,1
DA:1486,1
DA:1487,1
DA:1489,0
DA:1490,0
DA:1491,0
DA:1492,0
DA:1496,0
DA:1498,0
DA:1500,0
DA:1507,1
DA:1511,1
DA:1513,1
DA:1516,0
DA:1518,0
DA:1519,0
DA:1520,0
DA:1523,0
DA:1524,0
DA:1525,0
DA:1526,0
DA:1659,0
DA:1660,0
DA:1662,0
DA:1663,0
DA:1665,0
DA:1666,0
DA:1668,0
DA:1669,0
DA:1674,0
DA:1675,0
DA:1685,0
DA:1686,0
DA:1816,0
LF:79
LH:9
end_of_record
SF:/home/vagrant/project/cleancode/201610/DupDetector/ut/tool/ut_framework/gmock/gmock/include/gmock/gmock-cardinalities.h
FN:59,_ZN7testing20CardinalityInterfaceC2Ev
FN:61,_ZN7testing20CardinalityInterfaceD0Ev
FN:61,_ZN7testing20CardinalityInterfaceD2Ev
FN:65,_ZNK7testing20CardinalityInterface22ConservativeLowerBoundEv
FN:66,_ZNK7testing20CardinalityInterface22ConservativeUpperBoundEv
FN:83,_ZN7testing11CardinalityaSERKS0_
FN:83,_ZN7testing11CardinalityD2Ev
FN:90,_ZN7testing11CardinalityC2EPKNS_20CardinalityInterfaceE
FN:94,_ZNK7testing11Cardinality22ConservativeLowerBoundEv
FN:95,_ZNK7testing11Cardinality22ConservativeUpperBoundEv
FN:98,_ZNK7testing11Cardinality22IsSatisfiedByCallCountEi
FN:103,_ZNK7testing11Cardinality22IsSaturatedByCallCountEi
FN:109,_ZNK7testing11Cardinality26IsOverSaturatedByCallCountEi
FN:115,_ZNK7testing11Cardinality10DescribeToEPSo
FNDA:0,_ZN7testing20CardinalityInterfaceC2Ev
FNDA:0,_ZN7testing20CardinalityInterfaceD0Ev
FNDA:0,_ZN7testing20CardinalityInterfaceD2Ev
FNDA:0,_ZNK7testing20CardinalityInterface22ConservativeLowerBoundEv
FNDA:0,_ZNK7testing20CardinalityInterface22ConservativeUpperBoundEv
FNDA:0,_ZN7testing11CardinalityaSERKS0_
FNDA:0,_ZN7testing11CardinalityD2Ev
FNDA:0,_ZN7testing11CardinalityC2EPKNS_20CardinalityInterfaceE
FNDA:0,_ZNK7testing11Cardinality22ConservativeLowerBoundEv
FNDA:0,_ZNK7testing11Cardinality22ConservativeUpperBoundEv
FNDA:0,_ZNK7testing11Cardinality22IsSatisfiedByCallCountEi
FNDA:0,_ZNK7testing11Cardinality22IsSaturatedByCallCountEi
FNDA:0,_ZNK7testing11Cardinality26IsOverSaturatedByCallCountEi
FNDA:0,_ZNK7testing11Cardinality10DescribeToEPSo
FNF:14
FNH:0
DA:59,0
DA:61,0
DA:65,0
DA:66,0
DA:83,0
DA:90,0
DA:94,0
DA:95,0
DA:98,0
DA:99,0
DA:103,0
DA:104,0
DA:109,0
DA:110,0
DA:111,0
DA:115,0
LF:16
LH:0
end_of_record
SF:/home/vagrant/project/cleancode/201610/DupDetector/ut/tool/ut_framework/gmock/gmock/include/gmock/gmock-matchers.h
FN:91,_ZN7testing19MatchResultListenerlsIA13_cEERS0_RKT_
FN:91,_ZN7testing19MatchResultListenerlsIA30_cEERS0_RKT_
FN:91,_ZN7testing19MatchResultListenerlsIA10_cEERS0_RKT_
FN:91,_ZN7testing19MatchResultListenerlsIA3_cEERS0_RKT_
FN:91,_ZN7testing19MatchResultListenerlsISsEERS0_RKT_
FN:91,_ZN7testing19MatchResultListenerlsImEERS0_RKT_
FN:91,_ZN7testing19MatchResultListenerlsIA5_cEERS0_RKT_
FN:91,_ZN7testing19MatchResultListenerlsIPKcEERS0_RKT_
FN:91,_ZN7testing19MatchResultListenerlsIA25_cEERS0_RKT_
FN:91,_ZN7testing19MatchResultListenerlsIA89_cEERS0_RKT_
FN:98,_ZN7testing19MatchResultListener6streamEv
FN:104,_ZNK7testing19MatchResultListener12IsInterestedEv
FN:117,_ZN7testing25MatcherDescriberInterfaceC2Ev
FN:119,_ZN7testing25MatcherDescriberInterfaceD0Ev
FN:119,_ZN7testing25MatcherDescriberInterfaceD2Ev
FN:134,_ZNK7testing25MatcherDescriberInterface18DescribeNegationToEPSo
FN:143,_ZN7testing16MatcherInterfaceIRKSsED2Ev
FN:143,_ZN7testing16MatcherInterfaceISsEC2Ev
FN:143,_ZN7testing16MatcherInterfaceIRKSsEC2Ev
FN:143,_ZN7testing16MatcherInterfaceISsED2Ev
FN:143,_ZN7testing16MatcherInterfaceIRKSsED0Ev
FN:143,_ZN7testing16MatcherInterfaceISsED0Ev
FN:227,_ZN7testing8internal11MatcherBaseISsEaSERKS2_
FN:227,_ZN7testing8internal11MatcherBaseIRKSsEaSERKS4_
FN:263,_ZN7testing8internal11MatcherBaseISsEC2Ev
FN:263,_ZN7testing8internal11MatcherBaseIRKSsEC2Ev
FN:266,_ZN7testing8internal11MatcherBaseISsEC2EPKNS_16MatcherInterfaceISsEE
FN:266,_ZN7testing8internal11MatcherBaseIRKSsEC2EPKNS_16MatcherInterfaceIS3_EE
FN:269,_ZN7testing8internal11MatcherBaseISsED2Ev
FN:269,_ZN7testing8internal11MatcherBaseIRKSsED0Ev
FN:269,_ZN7testing8internal11MatcherBaseISsED0Ev
FN:269,_ZN7testing8internal11MatcherBaseIRKSsED2Ev
FN:314,_ZN7testing7MatcherIRKSsEaSEOS3_
FN:314,_ZN7testing7MatcherIRKSsED0Ev
FN:314,_ZN7testing7MatcherIRKSsED2Ev
FN:319,_ZN7testing7MatcherIRKSsEC2EPKNS_16MatcherInterfaceIS2_EE
FN:331,_ZN7testing7MatcherISsED0Ev
FN:331,_ZN7testing7MatcherISsEaSEOS1_
FN:331,_ZN7testing7MatcherISsED2Ev
FN:336,_ZN7testing7MatcherISsEC2EPKNS_16MatcherInterfaceISsEE
FN:459,_ZN7testing11MakeMatcherISsEENS_7MatcherIT_EEPKNS_16MatcherInterfaceIS2_EE
FN:459,_ZN7testing11MakeMatcherIRKSsEENS_7MatcherIT_EEPKNS_16MatcherInterfaceIS4_EE
FN:912,_ZN7testing8internal9EqMatcherISsE4ImplISsED2Ev
FN:912,_ZNK7testing8internal9EqMatcherISsE4ImplISsE10DescribeToEPSo
FN:912,_ZNK7testing8internal9EqMatcherISsE4ImplISsE15MatchAndExplainESsPNS_19MatchResultListenerE
FN:912,_ZNK7testing8internal9EqMatcherISsE4ImplIRKSsE18DescribeNegationToEPSo
FN:912,_ZN7testing8internal9EqMatcherISsED2Ev
FN:912,_ZNK7testing8internal9EqMatcherISsE4ImplISsE18DescribeNegationToEPSo
FN:912,_ZN7testing8internal9EqMatcherISsE4ImplIRKSsED0Ev
FN:912,_ZNK7testing8internal9EqMatcherISsEcvNS_7MatcherIT_EEIRKSsEEv
FN:912,_ZN7testing8internal9EqMatcherISsE4ImplIRKSsEC2ES5_
FN:912,_ZN7testing8internal9EqMatcherISsE4ImplIRKSsED2Ev
FN:912,_ZNK7testing8internal9EqMatcherISsE4ImplIRKSsE10DescribeToEPSo
FN:912,_ZN7testing8internal9EqMatcherISsE4ImplISsEC2ERKSs
FN:912,_ZN7testing8internal9EqMatcherISsE4ImplISsED0Ev
FN:912,_ZNK7testing8internal9EqMatcherISsE4ImplIRKSsE15MatchAndExplainES5_PNS_19MatchResultListenerE
FN:912,_ZN7testing8internal9EqMatcherISsEC2ERKSs
FN:912,_ZNK7testing8internal9EqMatcherISsEcvNS_7MatcherIT_EEISsEEv
FN:3024,_ZNK7testing8internal11MatchMatrix7LhsSizeEv
FN:3025,_ZNK7testing8internal11MatchMatrix7RhsSizeEv
FN:3026,_ZNK7testing8internal11MatchMatrix7HasEdgeEmm
FN:3043,_ZNK7testing8internal11MatchMatrix10SpaceIndexEmm
FN:3092,_ZN7testing8internal35UnorderedElementsAreMatcherImplBase8ElementsEm
FN:3425,_ZN7testing2EqISsEENS_8internal9EqMatcherIT_EES3_
FNDA:0,_ZN7testing19MatchResultListenerlsISsEERS0_RKT_
FNDA:0,_ZN7testing19MatchResultListenerlsIA3_cEERS0_RKT_
FNDA:0,_ZN7testing19MatchResultListenerlsIA10_cEERS0_RKT_
FNDA:0,_ZN7testing19MatchResultListenerlsIA25_cEERS0_RKT_
FNDA:0,_ZN7testing19MatchResultListenerlsIA13_cEERS0_RKT_
FNDA:0,_ZN7testing19MatchResultListenerlsIPKcEERS0_RKT_
FNDA:0,_ZN7testing19MatchResultListenerlsIA30_cEERS0_RKT_
FNDA:0,_ZN7testing19MatchResultListenerlsIA5_cEERS0_RKT_
FNDA:0,_ZN7testing19MatchResultListenerlsImEERS0_RKT_
FNDA:0,_ZN7testing19MatchResultListenerlsIA89_cEERS0_RKT_
FNDA:0,_ZN7testing19MatchResultListener6streamEv
FNDA:0,_ZNK7testing19MatchResultListener12IsInterestedEv
FNDA:0,_ZN7testing25MatcherDescriberInterfaceC2Ev
FNDA:0,_ZN7testing25MatcherDescriberInterfaceD0Ev
FNDA:0,_ZN7testing25MatcherDescriberInterfaceD2Ev
FNDA:0,_ZNK7testing25MatcherDescriberInterface18DescribeNegationToEPSo
FNDA:0,_ZN7testing16MatcherInterfaceISsED0Ev
FNDA:0,_ZN7testing16MatcherInterfaceISsED2Ev
FNDA:0,_ZN7testing16MatcherInterfaceISsEC2Ev
FNDA:0,_ZN7testing16MatcherInterfaceIRKSsED0Ev
FNDA:0,_ZN7testing16MatcherInterfaceIRKSsED2Ev
FNDA:0,_ZN7testing16MatcherInterfaceIRKSsEC2Ev
FNDA:0,_ZN7testing8internal11MatcherBaseISsEaSERKS2_
FNDA:0,_ZN7testing8internal11MatcherBaseIRKSsEaSERKS4_
FNDA:0,_ZN7testing8internal11MatcherBaseISsEC2Ev
FNDA:0,_ZN7testing8internal11MatcherBaseIRKSsEC2Ev
FNDA:0,_ZN7testing8internal11MatcherBaseISsEC2EPKNS_16MatcherInterfaceISsEE
FNDA:0,_ZN7testing8internal11MatcherBaseIRKSsEC2EPKNS_16MatcherInterfaceIS3_EE
FNDA:0,_ZN7testing8internal11MatcherBaseISsED0Ev
FNDA:0,_ZN7testing8internal11MatcherBaseISsED2Ev
FNDA:0,_ZN7testing8internal11MatcherBaseIRKSsED0Ev
FNDA:0,_ZN7testing8internal11MatcherBaseIRKSsED2Ev
FNDA:0,_ZN7testing7MatcherIRKSsED0Ev
FNDA:0,_ZN7testing7MatcherIRKSsED2Ev
FNDA:0,_ZN7testing7MatcherIRKSsEaSEOS3_
FNDA:0,_ZN7testing7MatcherIRKSsEC2EPKNS_16MatcherInterfaceIS2_EE
FNDA:0,_ZN7testing7MatcherISsED0Ev
FNDA:0,_ZN7testing7MatcherISsED2Ev
FNDA:0,_ZN7testing7MatcherISsEaSEOS1_
FNDA:0,_ZN7testing7MatcherISsEC2EPKNS_16MatcherInterfaceISsEE
FNDA:0,_ZN7testing11MakeMatcherISsEENS_7MatcherIT_EEPKNS_16MatcherInterfaceIS2_EE
FNDA:0,_ZN7testing11MakeMatcherIRKSsEENS_7MatcherIT_EEPKNS_16MatcherInterfaceIS4_EE
FNDA:0,_ZNK7testing8internal9EqMatcherISsE4ImplIRKSsE15MatchAndExplainES5_PNS_19MatchResultListenerE
FNDA:0,_ZNK7testing8internal9EqMatcherISsE4ImplIRKSsE18DescribeNegationToEPSo
FNDA:0,_ZNK7testing8internal9EqMatcherISsE4ImplIRKSsE10DescribeToEPSo
FNDA:0,_ZNK7testing8internal9EqMatcherISsE4ImplISsE15MatchAndExplainESsPNS_19MatchResultListenerE
FNDA:0,_ZNK7testing8internal9EqMatcherISsE4ImplISsE18DescribeNegationToEPSo
FNDA:0,_ZNK7testing8internal9EqMatcherISsE4ImplISsE10DescribeToEPSo
FNDA:0,_ZN7testing8internal9EqMatcherISsE4ImplIRKSsED0Ev
FNDA:0,_ZN7testing8internal9EqMatcherISsE4ImplIRKSsED2Ev
FNDA:0,_ZN7testing8internal9EqMatcherISsE4ImplISsED0Ev
FNDA:0,_ZN7testing8internal9EqMatcherISsE4ImplISsED2Ev
FNDA:0,_ZN7testing8internal9EqMatcherISsE4ImplISsEC2ERKSs
FNDA:0,_ZN7testing8internal9EqMatcherISsE4ImplIRKSsEC2ES5_
FNDA:0,_ZN7testing8internal9EqMatcherISsEC2ERKSs
FNDA:0,_ZNK7testing8internal9EqMatcherISsEcvNS_7MatcherIT_EEISsEEv
FNDA:0,_ZNK7testing8internal9EqMatcherISsEcvNS_7MatcherIT_EEIRKSsEEv
FNDA:0,_ZN7testing8internal9EqMatcherISsED2Ev
FNDA:0,_ZNK7testing8internal11MatchMatrix7LhsSizeEv
FNDA:0,_ZNK7testing8internal11MatchMatrix7RhsSizeEv
FNDA:0,_ZNK7testing8internal11MatchMatrix7HasEdgeEmm
FNDA:0,_ZNK7testing8internal11MatchMatrix10SpaceIndexEmm
FNDA:0,_ZN7testing8internal35UnorderedElementsAreMatcherImplBase8ElementsEm
FNDA:0,_ZN7testing2EqISsEENS_8internal9EqMatcherIT_EES3_
FNF:64
FNH:0
DA:91,0
DA:92,0
DA:93,0
DA:94,0
DA:98,0
DA:104,0
DA:117,0
DA:119,0
DA:134,0
DA:135,0
DA:136,0
DA:137,0
DA:138,0
DA:143,0
DA:227,0
DA:263,0
DA:266,0
DA:267,0
DA:269,0
DA:314,0
DA:319,0
DA:320,0
DA:331,0
DA:336,0
DA:337,0
DA:459,0
DA:460,0
DA:912,0
DA:3024,0
DA:3025,0
DA:3026,0
DA:3027,0
DA:3043,0
DA:3044,0
DA:3092,0
DA:3093,0
DA:3425,0
LF:37
LH:0
end_of_record
SF:/home/vagrant/project/cleancode/201610/DupDetector/ut/tool/ut_framework/gmock/gmock/include/gmock/gmock-spec-builders.h
FN:487,_ZN7testing11ExpectationaSERKS0_
FN:487,_ZN7testing11ExpectationC2ERKS0_
FN:509,_ZNK7testing11ExpectationeqERKS0_
FN:513,_ZNK7testing11ExpectationneERKS0_
FN:530,_ZNK7testing11Expectation4LessclERKS0_S3_
FN:542,_ZNK7testing11Expectation16expectation_baseEv
FN:563,_ZN7testing14ExpectationSetD2Ev
FN:572,_ZN7testing14ExpectationSetC2Ev
FN:601,_ZN7testing14ExpectationSetpLERKNS_11ExpectationE
FN:608,_ZNK7testing14ExpectationSet5beginEv
FN:609,_ZNK7testing14ExpectationSet3endEv
FN:619,_ZN7testing8SequenceD2Ev
FN:622,_ZN7testing8SequenceC2Ev
FN:698,_ZNK7testing8internal15ExpectationBase4fileEv
FN:699,_ZNK7testing8internal15ExpectationBase4lineEv
FN:700,_ZNK7testing8internal15ExpectationBase11source_textEv
FN:702,_ZNK7testing8internal15ExpectationBase11cardinalityEv
FN:705,_ZNK7testing8internal15ExpectationBase18DescribeLocationToEPSo
FN:746,_ZNK7testing8internal15ExpectationBase18ExpectSpecPropertyEbRKSs
FN:772,_ZNK7testing8internal15ExpectationBase10is_retiredEv
FN:779,_ZN7testing8internal15ExpectationBase6RetireEv
FN:786,_ZNK7testing8internal15ExpectationBase11IsSatisfiedEv
FN:793,_ZNK7testing8internal15ExpectationBase11IsSaturatedEv
FN:800,_ZNK7testing8internal15ExpectationBase15IsOverSaturatedEv
FN:815,_ZNK7testing8internal15ExpectationBase10call_countEv
FNDA:0,_ZN7testing11ExpectationaSERKS0_
FNDA:0,_ZN7testing11ExpectationC2ERKS0_
FNDA:0,_ZNK7testing11ExpectationeqERKS0_
FNDA:0,_ZNK7testing11ExpectationneERKS0_
FNDA:0,_ZNK7testing11Expectation4LessclERKS0_S3_
FNDA:0,_ZNK7testing11Expectation16expectation_baseEv
FNDA:0,_ZN7testing14ExpectationSetD2Ev
FNDA:0,_ZN7testing14ExpectationSetC2Ev
FNDA:0,_ZN7testing14ExpectationSetpLERKNS_11ExpectationE
FNDA:0,_ZNK7testing14ExpectationSet5beginEv
FNDA:0,_ZNK7testing14ExpectationSet3endEv
FNDA:0,_ZN7testing8SequenceD2Ev
FNDA:0,_ZN7testing8SequenceC2Ev
FNDA:0,_ZNK7testing8internal15ExpectationBase4fileEv
FNDA:0,_ZNK7testing8internal15ExpectationBase4lineEv
FNDA:0,_ZNK7testing8internal15ExpectationBase11source_textEv
FNDA:0,_ZNK7testing8internal15ExpectationBase11cardinalityEv
FNDA:0,_ZNK7testing8internal15ExpectationBase18DescribeLocationToEPSo
FNDA:0,_ZNK7testing8internal15ExpectationBase18ExpectSpecPropertyEbRKSs
FNDA:0,_ZNK7testing8internal15ExpectationBase10is_retiredEv
FNDA:0,_ZN7testing8internal15ExpectationBase6RetireEv
FNDA:0,_ZNK7testing8internal15ExpectationBase11IsSatisfiedEv
FNDA:0,_ZNK7testing8internal15ExpectationBase11IsSaturatedEv
FNDA:0,_ZNK7testing8internal15ExpectationBase15IsOverSaturatedEv
FNDA:0,_ZNK7testing8internal15ExpectationBase10call_countEv
FNF:25
FNH:0
DA:487,0
DA:509,0
DA:510,0
DA:513,0
DA:530,0
DA:531,0
DA:542,0
DA:543,0
DA:563,0
DA:572,0
DA:601,0
DA:602,0
DA:603,0
DA:608,0
DA:609,0
DA:619,0
DA:622,0
DA:698,0
DA:699,0
DA:700,0
DA:702,0
DA:705,0
DA:706,0
DA:707,0
DA:746,0
DA:747,0
DA:748,0
DA:772,0
DA:774,0
DA:775,0
DA:779,0
DA:781,0
DA:782,0
DA:783,0
DA:786,0
DA:788,0
DA:789,0
DA:793,0
DA:795,0
DA:796,0
DA:800,0
DA:802,0
DA:803,0
DA:815,0
DA:817,0
DA:818,0
LF:46
LH:0
end_of_record
SF:/home/vagrant/project/cleancode/201610/DupDetector/ut/tool/ut_framework/gmock/gmock/include/gmock/internal/gmock-internal-utils.h
FN:259,_ZN7testing8internal24FailureReporterInterfaceC2Ev
FN:266,_ZN7testing8internal24FailureReporterInterfaceD2Ev
FN:266,_ZN7testing8internal24FailureReporterInterfaceD0Ev
FN:281,_ZN7testing8internal6AssertEbPKciRKSs
FN:294,_ZN7testing8internal6ExpectEbPKciRKSs
FNDA:0,_ZN7testing8internal24FailureReporterInterfaceC2Ev
FNDA:0,_ZN7testing8internal24FailureReporterInterfaceD0Ev
FNDA:0,_ZN7testing8internal24FailureReporterInterfaceD2Ev
FNDA:0,_ZN7testing8internal6AssertEbPKciRKSs
FNDA:0,_ZN7testing8internal6ExpectEbPKciRKSs
FNF:5
FNH:0
DA:259,0
DA:266,0
DA:281,0
DA:283,0
DA:284,0
DA:285,0
DA:287,0
DA:294,0
DA:296,0
DA:297,0
DA:298,0
DA:300,0
LF:12
LH:0
end_of_record
SF:/home/vagrant/project/cleancode/201610/DupDetector/ut/tool/ut_framework/gmock/gmock/src/gmock-cardinalities.cc
FN:50,_ZN7testing12_GLOBAL__N_122BetweenCardinalityImplD0Ev
FN:50,_ZN7testing12_GLOBAL__N_122BetweenCardinalityImplD2Ev
FN:52,_ZN7testing12_GLOBAL__N_122BetweenCardinalityImplC2Eii
FN:74,_ZNK7testing12_GLOBAL__N_122BetweenCardinalityImpl22ConservativeLowerBoundEv
FN:75,_ZNK7testing12_GLOBAL__N_122BetweenCardinalityImpl22ConservativeUpperBoundEv
FN:77,_ZNK7testing12_GLOBAL__N_122BetweenCardinalityImpl22IsSatisfiedByCallCountEi
FN:81,_ZNK7testing12_GLOBAL__N_122BetweenCardinalityImpl22IsSaturatedByCallCountEi
FN:95,_ZN7testing12_GLOBAL__N_111FormatTimesEi
FN:108,_ZNK7testing12_GLOBAL__N_122BetweenCardinalityImpl10DescribeToEPSo
FN:130,_ZN7testing11Cardinality25DescribeActualCallCountToEiPSo
FN:140,_ZN7testing7AtLeastEi
FN:143,_ZN7testing6AtMostEi
FN:146,_ZN7testing9AnyNumberEv
FN:149,_ZN7testing7BetweenEii
FN:154,_ZN7testing7ExactlyEi
FNDA:0,_ZN7testing12_GLOBAL__N_122BetweenCardinalityImplD0Ev
FNDA:0,_ZN7testing12_GLOBAL__N_122BetweenCardinalityImplD2Ev
FNDA:0,_ZN7testing12_GLOBAL__N_122BetweenCardinalityImplC2Eii
FNDA:0,_ZNK7testing12_GLOBAL__N_122BetweenCardinalityImpl22ConservativeLowerBoundEv
FNDA:0,_ZNK7testing12_GLOBAL__N_122BetweenCardinalityImpl22ConservativeUpperBoundEv
FNDA:0,_ZNK7testing12_GLOBAL__N_122BetweenCardinalityImpl22IsSatisfiedByCallCountEi
FNDA:0,_ZNK7testing12_GLOBAL__N_122BetweenCardinalityImpl22IsSaturatedByCallCountEi
FNDA:0,_ZN7testing12_GLOBAL__N_111FormatTimesEi
FNDA:0,_ZNK7testing12_GLOBAL__N_122BetweenCardinalityImpl10DescribeToEPSo
FNDA:0,_ZN7testing11Cardinality25DescribeActualCallCountToEiPSo
FNDA:0,_ZN7testing7AtLeastEi
FNDA:0,_ZN7testing6AtMostEi
FNDA:0,_ZN7testing9AnyNumberEv
FNDA:0,_ZN7testing7BetweenEii
FNDA:0,_ZN7testing7ExactlyEi
FNF:15
FNH:0
DA:50,0
DA:52,0
DA:54,0
DA:55,0
DA:56,0
DA:57,0
DA:58,0
DA:59,0
DA:60,0
DA:61,0
DA:62,0
DA:63,0
DA:64,0
DA:65,0
DA:66,0
DA:67,0
DA:68,0
DA:69,0
DA:70,0
DA:74,0
DA:75,0
DA:77,0
DA:78,0
DA:81,0
DA:82,0
DA:95,0
DA:96,0
DA:97,0
DA:98,0
DA:99,0
DA:101,0
DA:102,0
DA:103,0
DA:108,0
DA:109,0
DA:110,0
DA:111,0
DA:112,0
DA:113,0
DA:115,0
DA:117,0
DA:118,0
DA:119,0
DA:120,0
DA:123,0
DA:125,0
DA:130,0
DA:132,0
DA:133,0
DA:135,0
DA:137,0
DA:140,0
DA:143,0
DA:146,0
DA:149,0
DA:150,0
DA:154,0
LF:57
LH:0
end_of_record
SF:/home/vagrant/project/cleancode/201610/DupDetector/ut/tool/ut_framework/gmock/gmock/src/gmock-internal-utils.cc
FN:54,_ZN7testing8internal28ConvertIdentifierNameToWordsEPKc
FN:76,_ZN7testing8internal25GoogleTestFailureReporterC2Ev
FN:76,_ZN7testing8internal25GoogleTestFailureReporterD2Ev
FN:76,_ZN7testing8internal25GoogleTestFailureReporterD0Ev
FN:78,_ZN7testing8internal25GoogleTestFailureReporter13ReportFailureENS0_24FailureReporterInterface11FailureTypeEPKciRKSs
FN:94,_ZN7testing8internal18GetFailureReporterEv
FN:110,_ZN7testing8internal12LogIsVisibleENS0_11LogSeverityE
FN:131,_ZN7testing8internal3LogENS0_11LogSeverityERKSsi
FNDA:0,_ZN7testing8internal28ConvertIdentifierNameToWordsEPKc
FNDA:0,_ZN7testing8internal25GoogleTestFailureReporterD0Ev
FNDA:0,_ZN7testing8internal25GoogleTestFailureReporterD2Ev
FNDA:0,_ZN7testing8internal25GoogleTestFailureReporterC2Ev
FNDA:0,_ZN7testing8internal25GoogleTestFailureReporter13ReportFailureENS0_24FailureReporterInterface11FailureTypeEPKciRKSs
FNDA:0,_ZN7testing8internal18GetFailureReporterEv
FNDA:0,_ZN7testing8internal12LogIsVisibleENS0_11LogSeverityE
FNDA:0,_ZN7testing8internal3LogENS0_11LogSeverityERKSsi
FNF:8
FNH:0
DA:54,0
DA:55,0
DA:56,0
DA:57,0
DA:60,0
DA:61,0
DA:62,0
DA:64,0
DA:65,0
DA:66,0
DA:67,0
DA:70,0
DA:76,0
DA:78,0
DA:85,0
DA:86,0
DA:87,0
DA:89,0
DA:94,0
DA:101,0
DA:102,0
DA:110,0
DA:111,0
DA:113,0
DA:114,0
DA:116,0
DA:120,0
DA:131,0
DA:134,0
DA:135,0
DA:138,0
DA:143,0
DA:145,0
DA:148,0
DA:149,0
DA:151,0
DA:152,0
DA:159,0
DA:163,0
DA:164,0
DA:166,0
DA:168,0
DA:170,0
LF:43
LH:0
end_of_record
SF:/home/vagrant/project/cleancode/201610/DupDetector/ut/tool/ut_framework/gmock/gmock/src/gmock-matchers.cc
FN:48,_ZN7testing7MatcherIRKSsEC2ES2_
FN:54,_ZN7testing7MatcherIRKSsEC2EPKc
FN:59,_ZN7testing7MatcherISsEC2ERKSs
FN:62,_ZN7testing7MatcherISsEC2EPKc
FN:105,_ZN7testing8internal11JoinAsTupleERKSt6vectorISsSaISsEE
FN:127,_ZN7testing8internal24FormatMatcherDescriptionEbPKcRKSt6vectorISsSaISsEE
FN:198,_ZN7testing8internal22MaxBipartiteMatchStateD2Ev
FN:200,_ZN7testing8internal22MaxBipartiteMatchStateC2ERKNS0_11MatchMatrixE
FN:207,_ZN7testing8internal22MaxBipartiteMatchState7ComputeEv
FN:259,_ZN7testing8internal22MaxBipartiteMatchState10TryAugmentEmPSt6vectorIcSaIcEE
FN:308,_ZN7testing8internal24FindMaxBipartiteMatchingERKNS0_11MatchMatrixE
FN:312,_ZN7testing8internalL24LogElementMatcherPairVecERKSt6vectorISt4pairImmESaIS3_EEPSo
FN:328,_ZN7testing8internal11FindPairingERKNS0_11MatchMatrixEPNS_19MatchResultListenerE
FN:359,_ZN7testing8internal11MatchMatrix9NextGraphEv
FN:373,_ZN7testing8internal11MatchMatrix9RandomizeEv
FN:382,_ZNK7testing8internal11MatchMatrix11DebugStringEv
FN:395,_ZNK7testing8internal35UnorderedElementsAreMatcherImplBase14DescribeToImplEPSo
FN:416,_ZNK7testing8internal35UnorderedElementsAreMatcherImplBase22DescribeNegationToImplEPSo
FN:443,_ZNK7testing8internal35UnorderedElementsAreMatcherImplBase38VerifyAllElementsAndMatchersAreMatchedERKSt6vectorISsSaISsEERKNS0_11MatchMatrixEPNS_19MatchResultListenerE
FNDA:0,_ZN7testing7MatcherIRKSsEC2ES2_
FNDA:0,_ZN7testing7MatcherIRKSsEC2EPKc
FNDA:0,_ZN7testing7MatcherISsEC2ERKSs
FNDA:0,_ZN7testing7MatcherISsEC2EPKc
FNDA:0,_ZN7testing8internal11JoinAsTupleERKSt6vectorISsSaISsEE
FNDA:0,_ZN7testing8internal24FormatMatcherDescriptionEbPKcRKSt6vectorISsSaISsEE
FNDA:0,_ZN7testing8internal22MaxBipartiteMatchStateD2Ev
FNDA:0,_ZN7testing8internal22MaxBipartiteMatchStateC2ERKNS0_11MatchMatrixE
FNDA:0,_ZN7testing8internal22MaxBipartiteMatchState7ComputeEv
FNDA:0,_ZN7testing8internal22MaxBipartiteMatchState10TryAugmentEmPSt6vectorIcSaIcEE
FNDA:0,_ZN7testing8internal24FindMaxBipartiteMatchingERKNS0_11MatchMatrixE
FNDA:0,_ZN7testing8internalL24LogElementMatcherPairVecERKSt6vectorISt4pairImmESaIS3_EEPSo
FNDA:0,_ZN7testing8internal11FindPairingERKNS0_11MatchMatrixEPNS_19MatchResultListenerE
FNDA:0,_ZN7testing8internal11MatchMatrix9NextGraphEv
FNDA:0,_ZN7testing8internal11MatchMatrix9RandomizeEv
FNDA:0,_ZNK7testing8internal11MatchMatrix11DebugStringEv
FNDA:0,_ZNK7testing8internal35UnorderedElementsAreMatcherImplBase14DescribeToImplEPSo
FNDA:0,_ZNK7testing8internal35UnorderedElementsAreMatcherImplBase22DescribeNegationToImplEPSo
FNDA:0,_ZNK7testing8internal35UnorderedElementsAreMatcherImplBase38VerifyAllElementsAndMatchersAreMatchedERKSt6vectorISsSaISsEERKNS0_11MatchMatrixEPNS_19MatchResultListenerE
FNF:19
FNH:0
DA:48,0
DA:49,0
DA:50,0
DA:54,0
DA:55,0
DA:56,0
DA:59,0
DA:62,0
DA:63,0
DA:64,0
DA:105,0
DA:106,0
DA:108,0
DA:110,0
DA:112,0
DA:113,0
DA:114,0
DA:115,0
DA:117,0
DA:118,0
DA:127,0
DA:130,0
DA:131,0
DA:132,0
DA:133,0
DA:198,0
DA:200,0
DA:203,0
DA:204,0
DA:207,0
DA:209,0
DA:222,0
DA:225,0
DA:226,0
DA:228,0
DA:229,0
DA:231,0
DA:232,0
DA:233,0
DA:234,0
DA:235,0
DA:237,0
DA:259,0
DA:260,0
DA:261,0
DA:262,0
DA:263,0
DA:264,0
DA:266,0
DA:277,0
DA:279,0
DA:280,0
DA:281,0
DA:284,0
DA:308,0
DA:309,0
DA:312,0
DA:315,0
DA:316,0
DA:317,0
DA:318,0
DA:319,0
DA:320,0
DA:321,0
DA:322,0
DA:324,0
DA:325,0
DA:328,0
DA:330,0
DA:332,0
DA:333,0
DA:335,0
DA:336,0
DA:338,0
DA:339,0
DA:340,0
DA:341,0
DA:343,0
DA:346,0
DA:347,0
DA:348,0
DA:349,0
DA:350,0
DA:351,0
DA:352,0
DA:356,0
DA:359,0
DA:360,0
DA:361,0
DA:362,0
DA:363,0
DA:364,0
DA:365,0
DA:367,0
DA:370,0
DA:373,0
DA:374,0
DA:375,0
DA:376,0
DA:377,0
DA:380,0
DA:382,0
DA:383,0
DA:384,0
DA:385,0
DA:386,0
DA:387,0
DA:388,0
DA:390,0
DA:392,0
DA:395,0
DA:397,0
DA:398,0
DA:399,0
DA:401,0
DA:402,0
DA:403,0
DA:404,0
DA:406,0
DA:407,0
DA:408,0
DA:409,0
DA:410,0
DA:411,0
DA:412,0
DA:416,0
DA:418,0
DA:419,0
DA:420,0
DA:422,0
DA:423,0
DA:424,0
DA:425,0
DA:426,0
DA:428,0
DA:429,0
DA:430,0
DA:431,0
DA:432,0
DA:433,0
DA:434,0
DA:443,0
DA:448,0
DA:449,0
DA:450,0
DA:452,0
DA:453,0
DA:454,0
DA:455,0
DA:456,0
DA:462,0
DA:463,0
DA:464,0
DA:465,0
DA:466,0
DA:467,0
DA:468,0
DA:469,0
DA:470,0
DA:477,0
DA:478,0
DA:479,0
DA:480,0
DA:482,0
DA:483,0
DA:484,0
DA:485,0
DA:486,0
DA:487,0
DA:488,0
DA:489,0
DA:490,0
DA:494,0
LF:173
LH:0
end_of_record
SF:/home/vagrant/project/cleancode/201610/DupDetector/ut/tool/ut_framework/gmock/gmock/src/gmock-spec-builders.cc
FN:59,_ZN7testing8internal15LogWithLocationENS0_11LogSeverityEPKciRKSs
FN:68,_ZN7testing8internal15ExpectationBaseC2EPKciRKSs
FN:85,_ZN7testing8internal15ExpectationBaseD0Ev
FN:85,_ZN7testing8internal15ExpectationBaseD2Ev
FN:89,_ZN7testing8internal15ExpectationBase18SpecifyCardinalityERKNS_11CardinalityE
FN:95,_ZN7testing8internal15ExpectationBase22RetireAllPreRequisitesEv
FN:115,_ZNK7testing8internal15ExpectationBase28AllPrerequisitesAreSatisfiedEv
FN:128,_ZNK7testing8internal15ExpectationBase28FindUnsatisfiedPrerequisitesEPNS_14ExpectationSetE
FN:150,_ZNK7testing8internal15ExpectationBase19DescribeCallCountToEPSo
FN:173,_ZNK7testing8internal15ExpectationBase25CheckActionCountIfNotDoneEv
FN:225,_ZN7testing8internal15ExpectationBase12UntypedTimesERKNS_11CardinalityE
FN:247,_ZN7testing8internal23ReportUninterestingCallENS0_12CallReactionERKSs
FN:260,_ZN7testing8internal25UntypedFunctionMockerBaseC2Ev
FN:263,_ZN7testing8internal25UntypedFunctionMockerBaseD2Ev
FN:263,_ZN7testing8internal25UntypedFunctionMockerBaseD0Ev
FN:269,_ZN7testing8internal25UntypedFunctionMockerBase13RegisterOwnerEPKv
FN:281,_ZN7testing8internal25UntypedFunctionMockerBase15SetOwnerAndNameEPKvPKc
FN:293,_ZNK7testing8internal25UntypedFunctionMockerBase10MockObjectEv
FN:310,_ZNK7testing8internal25UntypedFunctionMockerBase4NameEv
FN:329,_ZN7testing8internal25UntypedFunctionMockerBase17UntypedInvokeWithEPKv
FN:439,_ZN7testing8internal25UntypedFunctionMockerBase11GetHandleOfEPNS0_15ExpectationBaseE
FN:457,_ZN7testing8internal25UntypedFunctionMockerBase32VerifyAndClearExpectationsLockedEv
FN:513,_ZN7testing12_GLOBAL__N_115MockObjectStateD2Ev
FN:514,_ZN7testing12_GLOBAL__N_115MockObjectStateC2Ev
FN:531,_ZN7testing12_GLOBAL__N_118MockObjectRegistryC2Ev
FN:540,_ZN7testing12_GLOBAL__N_118MockObjectRegistryD2Ev
FN:582,_ZN7testing12_GLOBAL__N_118MockObjectRegistry6statesEv
FN:597,_ZN7testing12_GLOBAL__N_131SetReactionOnUninterestingCallsEPKvNS_8internal12CallReactionE
FN:608,_ZN7testing4Mock23AllowUninterestingCallsEPKv
FN:615,_ZN7testing4Mock22WarnUninterestingCallsEPKv
FN:622,_ZN7testing4Mock22FailUninterestingCallsEPKv
FN:629,_ZN7testing4Mock22UnregisterCallReactionEPKv
FN:637,_ZN7testing4Mock31GetReactionOnUninterestingCallsEPKv
FN:647,_ZN7testing4Mock9AllowLeakEPKv
FN:656,_ZN7testing4Mock26VerifyAndClearExpectationsEPv
FN:665,_ZN7testing4Mock14VerifyAndClearEPv
FN:675,_ZN7testing4Mock32VerifyAndClearExpectationsLockedEPv
FN:701,_ZN7testing4Mock8RegisterEPKvPNS_8internal25UntypedFunctionMockerBaseE
FN:711,_ZN7testing4Mock31RegisterUseByOnCallOrExpectCallEPKvPKci
FN:735,_ZN7testing4Mock16UnregisterLockedEPNS_8internal25UntypedFunctionMockerBaseE
FN:753,_ZN7testing4Mock25ClearDefaultActionsLockedEPv
FN:775,_ZN7testing11ExpectationC2Ev
FN:777,_ZN7testing11ExpectationC2ERKNS_8internal10linked_ptrINS1_15ExpectationBaseEEE
FN:781,_ZN7testing11ExpectationD2Ev
FN:784,_ZNK7testing8Sequence14AddExpectationERKNS_11ExpectationE
FN:795,_ZN7testing10InSequenceC2Ev
FN:806,_ZN7testing10InSequenceD2Ev
FNDA:0,_ZN7testing8internal15LogWithLocationENS0_11LogSeverityEPKciRKSs
FNDA:0,_ZN7testing8internal15ExpectationBaseC2EPKciRKSs
FNDA:0,_ZN7testing8internal15ExpectationBaseD0Ev
FNDA:0,_ZN7testing8internal15ExpectationBaseD2Ev
FNDA:0,_ZN7testing8internal15ExpectationBase18SpecifyCardinalityERKNS_11CardinalityE
FNDA:0,_ZN7testing8internal15ExpectationBase22RetireAllPreRequisitesEv
FNDA:0,_ZNK7testing8internal15ExpectationBase28AllPrerequisitesAreSatisfiedEv
FNDA:0,_ZNK7testing8internal15ExpectationBase28FindUnsatisfiedPrerequisitesEPNS_14ExpectationSetE
FNDA:0,_ZNK7testing8internal15ExpectationBase19DescribeCallCountToEPSo
FNDA:0,_ZNK7testing8internal15ExpectationBase25CheckActionCountIfNotDoneEv
FNDA:0,_ZN7testing8internal15ExpectationBase12UntypedTimesERKNS_11CardinalityE
FNDA:0,_ZN7testing8internal23ReportUninterestingCallENS0_12CallReactionERKSs
FNDA:0,_ZN7testing8internal25UntypedFunctionMockerBaseC2Ev
FNDA:0,_ZN7testing8internal25UntypedFunctionMockerBaseD0Ev
FNDA:0,_ZN7testing8internal25UntypedFunctionMockerBaseD2Ev
FNDA:0,_ZN7testing8internal25UntypedFunctionMockerBase13RegisterOwnerEPKv
FNDA:0,_ZN7testing8internal25UntypedFunctionMockerBase15SetOwnerAndNameEPKvPKc
FNDA:0,_ZNK7testing8internal25UntypedFunctionMockerBase10MockObjectEv
FNDA:0,_ZNK7testing8internal25UntypedFunctionMockerBase4NameEv
FNDA:0,_ZN7testing8internal25UntypedFunctionMockerBase17UntypedInvokeWithEPKv
FNDA:0,_ZN7testing8internal25UntypedFunctionMockerBase11GetHandleOfEPNS0_15ExpectationBaseE
FNDA:0,_ZN7testing8internal25UntypedFunctionMockerBase32VerifyAndClearExpectationsLockedEv
FNDA:0,_ZN7testing12_GLOBAL__N_115MockObjectStateD2Ev
FNDA:0,_ZN7testing12_GLOBAL__N_115MockObjectStateC2Ev
FNDA:1,_ZN7testing12_GLOBAL__N_118MockObjectRegistryC2Ev
FNDA:1,_ZN7testing12_GLOBAL__N_118MockObjectRegistryD2Ev
FNDA:0,_ZN7testing12_GLOBAL__N_118MockObjectRegistry6statesEv
FNDA:0,_ZN7testing12_GLOBAL__N_131SetReactionOnUninterestingCallsEPKvNS_8internal12CallReactionE
FNDA:0,_ZN7testing4Mock23AllowUninterestingCallsEPKv
FNDA:0,_ZN7testing4Mock22WarnUninterestingCallsEPKv
FNDA:0,_ZN7testing4Mock22FailUninterestingCallsEPKv
FNDA:0,_ZN7testing4Mock22UnregisterCallReactionEPKv
FNDA:0,_ZN7testing4Mock31GetReactionOnUninterestingCallsEPKv
FNDA:0,_ZN7testing4Mock9AllowLeakEPKv
FNDA:0,_ZN7testing4Mock26VerifyAndClearExpectationsEPv
FNDA:0,_ZN7testing4Mock14VerifyAndClearEPv
FNDA:0,_ZN7testing4Mock32VerifyAndClearExpectationsLockedEPv
FNDA:0,_ZN7testing4Mock8RegisterEPKvPNS_8internal25UntypedFunctionMockerBaseE
FNDA:0,_ZN7testing4Mock31RegisterUseByOnCallOrExpectCallEPKvPKci
FNDA:0,_ZN7testing4Mock16UnregisterLockedEPNS_8internal25UntypedFunctionMockerBaseE
FNDA:0,_ZN7testing4Mock25ClearDefaultActionsLockedEPv
FNDA:0,_ZN7testing11ExpectationC2Ev
FNDA:0,_ZN7testing11ExpectationC2ERKNS_8internal10linked_ptrINS1_15ExpectationBaseEEE
FNDA:0,_ZN7testing11ExpectationD2Ev
FNDA:0,_ZNK7testing8Sequence14AddExpectationERKNS_11ExpectationE
FNDA:0,_ZN7testing10InSequenceC2Ev
FNDA:0,_ZN7testing10InSequenceD2Ev
FNF:47
FNH:2
DA:59,0
DA:62,0
DA:63,0
DA:64,0
DA:65,0
DA:68,0
DA:82,0
DA:85,0
DA:89,0
DA:90,0
DA:91,0
DA:92,0
DA:95,0
DA:97,0
DA:100,0
DA:103,0
DA:104,0
DA:105,0
DA:106,0
DA:107,0
DA:108,0
DA:115,0
DA:117,0
DA:118,0
DA:119,0
DA:120,0
DA:121,0
DA:122,0
DA:124,0
DA:128,0
DA:130,0
DA:131,0
DA:132,0
DA:133,0
DA:136,0
DA:137,0
DA:143,0
DA:146,0
DA:150,0
DA:152,0
DA:155,0
DA:156,0
DA:157,0
DA:158,0
DA:162,0
DA:163,0
DA:164,0
DA:165,0
DA:166,0
DA:167,0
DA:173,0
DA:175,0
DA:177,0
DA:178,0
DA:179,0
DA:180,0
DA:181,0
DA:184,0
DA:185,0
DA:188,0
DA:192,0
DA:193,0
DA:194,0
DA:197,0
DA:198,0
DA:199,0
DA:200,0
DA:201,0
DA:202,0
DA:204,0
DA:207,0
DA:208,0
DA:209,0
DA:210,0
DA:211,0
DA:212,0
DA:213,0
DA:214,0
DA:215,0
DA:216,0
DA:217,0
DA:219,0
DA:220,0
DA:225,0
DA:226,0
DA:229,0
DA:234,0
DA:236,0
DA:238,0
DA:239,0
DA:243,1
DA:247,0
DA:248,0
DA:250,0
DA:251,0
DA:253,0
DA:254,0
DA:256,0
DA:258,0
DA:260,0
DA:261,0
DA:263,0
DA:269,0
DA:272,0
DA:273,0
DA:275,0
DA:276,0
DA:281,0
DA:286,0
DA:287,0
DA:288,0
DA:289,0
DA:293,0
DA:299,0
DA:302,0
DA:303,0
DA:305,0
DA:310,0
DA:316,0
DA:319,0
DA:320,0
DA:322,0
DA:329,0
DA:331,0
DA:340,0
DA:354,0
DA:356,0
DA:358,0
DA:362,0
DA:363,0
DA:367,0
DA:370,0
DA:371,0
DA:373,0
DA:374,0
DA:377,0
DA:378,0
DA:379,0
DA:380,0
DA:381,0
DA:388,0
DA:389,0
DA:395,0
DA:396,0
DA:399,0
DA:400,0
DA:401,0
DA:404,0
DA:405,0
DA:409,0
DA:410,0
DA:414,0
DA:415,0
DA:416,0
DA:417,0
DA:418,0
DA:419,0
DA:421,0
DA:423,0
DA:424,0
DA:427,0
DA:431,0
DA:434,0
DA:439,0
DA:440,0
DA:441,0
DA:442,0
DA:443,0
DA:444,0
DA:448,0
DA:449,0
DA:457,0
DA:459,0
DA:460,0
DA:461,0
DA:462,0
DA:463,0
DA:464,0
DA:465,0
DA:469,0
DA:470,0
DA:471,0
DA:472,0
DA:473,0
DA:474,0
DA:478,0
DA:479,0
DA:481,0
DA:492,0
DA:493,0
DA:495,0
DA:496,0
DA:497,0
DA:499,0
DA:513,0
DA:514,0
DA:515,0
DA:531,1
DA:540,2
DA:544,1
DA:545,0
DA:547,1
DA:548,1
DA:550,0
DA:551,0
DA:555,0
DA:556,0
DA:558,0
DA:559,0
DA:560,0
DA:561,0
DA:562,0
DA:564,0
DA:565,0
DA:566,0
DA:568,1
DA:569,0
DA:570,0
DA:571,0
DA:572,0
DA:573,0
DA:577,0
DA:580,1
DA:582,0
DA:589,1
DA:593,1
DA:597,0
DA:600,0
DA:601,0
DA:602,0
DA:608,0
DA:610,0
DA:611,0
DA:615,0
DA:617,0
DA:618,0
DA:622,0
DA:624,0
DA:625,0
DA:629,0
DA:631,0
DA:632,0
DA:633,0
DA:637,0
DA:640,0
DA:641,0
DA:642,0
DA:647,0
DA:649,0
DA:650,0
DA:651,0
DA:656,0
DA:658,0
DA:659,0
DA:665,0
DA:667,0
DA:668,0
DA:669,0
DA:675,0
DA:677,0
DA:678,0
DA:680,0
DA:685,0
DA:687,0
DA:688,0
DA:689,0
DA:690,0
DA:691,0
DA:697,0
DA:701,0
DA:704,0
DA:705,0
DA:706,0
DA:711,0
DA:714,0
DA:715,0
DA:716,0
DA:717,0
DA:718,0
DA:720,0
DA:721,0
DA:725,0
DA:726,0
DA:728,0
DA:729,0
DA:735,0
DA:737,0
DA:738,0
DA:739,0
DA:740,0
DA:741,0
DA:742,0
DA:744,0
DA:745,0
DA:747,0
DA:753,0
DA:755,0
DA:757,0
DA:759,0
DA:765,0
DA:766,0
DA:767,0
DA:768,0
DA:775,0
DA:777,0
DA:779,0
DA:781,0
DA:784,0
DA:785,0
DA:786,0
DA:787,0
DA:788,0
DA:790,0
DA:792,0
DA:795,0
DA:796,0
DA:797,0
DA:798,0
DA:800,0
DA:802,0
DA:806,0
DA:807,0
DA:808,0
DA:809,0
DA:811,0
LF:325
LH:10
end_of_record
SF:/home/vagrant/project/cleancode/201610/DupDetector/ut/tool/ut_framework/gmock/gmock/src/gmock.cc
FN:58,_ZN7testing8internalL24ParseGoogleMockFlagValueEPKcS2_b
FN:91,_ZN7testing8internalL23ParseGoogleMockBoolFlagEPKcS2_Pb
FN:109,_ZN7testing8internalL25ParseGoogleMockStringFlagEPKcS2_PSs
FN:127,_ZN7testing8internal18InitGoogleMockImplIwEEvPiPPT_
FN:127,_ZN7testing8internal18InitGoogleMockImplIcEEvPiPPT_
FN:172,_ZN7testing14InitGoogleMockEPiPPc
FN:178,_ZN7testing14InitGoogleMockEPiPPw
FN:182,_Z41__static_initialization_and_destruction_0ii
FN:182,_GLOBAL__sub_I__ZN7testing11Cardinality25DescribeActualCallCountToEiPSo
FNDA:0,_ZN7testing8internalL24ParseGoogleMockFlagValueEPKcS2_b
FNDA:0,_ZN7testing8internalL23ParseGoogleMockBoolFlagEPKcS2_Pb
FNDA:0,_ZN7testing8internalL25ParseGoogleMockStringFlagEPKcS2_PSs
FNDA:0,_ZN7testing8internal18InitGoogleMockImplIwEEvPiPPT_
FNDA:1,_ZN7testing8internal18InitGoogleMockImplIcEEvPiPPT_
FNDA:1,_ZN7testing14InitGoogleMockEPiPPc
FNDA:0,_ZN7testing14InitGoogleMockEPiPPw
FNDA:1,_GLOBAL__sub_I__ZN7testing11Cardinality25DescribeActualCallCountToEiPSo
FNDA:1,_Z41__static_initialization_and_destruction_0ii
FNF:9
FNH:4
DA:44,1
DA:58,0
DA:62,0
DA:65,0
DA:66,0
DA:67,0
DA:70,0
DA:73,0
DA:74,0
DA:80,0
DA:83,0
DA:91,0
DA:94,0
DA:97,0
DA:100,0
DA:101,0
DA:109,0
DA:112,0
DA:115,0
DA:118,0
DA:119,0
DA:127,1
DA:130,1
DA:131,2
DA:133,1
DA:134,0
DA:135,0
DA:138,0
DA:139,0
DA:140,0
DA:145,0
DA:146,0
DA:150,0
DA:154,0
DA:172,1
DA:173,1
DA:174,1
DA:178,0
DA:179,0
DA:180,0
DA:182,3
LF:41
LH:9
end_of_record
TN:
SF:/usr/include/c++/4.8.2/bits/char_traits.h
FN:258,_ZNSt11char_traitsIcE6lengthEPKc
FNDA:0,_ZNSt11char_traitsIcE6lengthEPKc
FNF:1
FNH:0
DA:258,0
DA:259,0
LF:2
LH:0
end_of_record
SF:/usr/include/c++/4.8.2/bits/ios_base.h
FN:157,_ZStorSt12_Ios_IostateS_
FNDA:0,_ZStorSt12_Ios_IostateS_
FNF:1
FNH:0
DA:157,0
DA:158,0
LF:2
LH:0
end_of_record
SF:/usr/include/c++/4.8.2/iostream
DA:74,1
LF:1
LH:1
end_of_record
SF:/home/vagrant/project/cleancode/201610/DupDetector/ut/tool/ut_framework/gmock/gmock/gtest/include/gtest/gtest.h
FN:2287,_Z13RUN_ALL_TESTSv
FNDA:1,_Z13RUN_ALL_TESTSv
FNF:1
FNH:1
DA:2287,1
DA:2288,1
LF:2
LH:2
end_of_record
SF:/home/vagrant/project/cleancode/201610/DupDetector/ut/tool/ut_framework/gmock/gmock/src/gmock_main.cc
FN:46,main
FN:54,_Z41__static_initialization_and_destruction_0ii
FN:54,_GLOBAL__sub_I_main
FNDA:1,main
FNDA:1,_GLOBAL__sub_I_main
FNDA:1,_Z41__static_initialization_and_destruction_0ii
FNF:3
FNH:3
DA:46,1
DA:48,1
DA:52,1
DA:53,1
DA:54,3
LF:5
LH:5
end_of_record
TN:
SF:/usr/include/c++/4.8.2/bits/alloc_traits.h
FN:253,_ZNSt16allocator_traitsISaIPcEE12_S_constructIS0_IS0_EEENSt9enable_ifIXsrNS2_18__construct_helperIT_IDpT0_EEE5valueEvE4typeERS1_PS6_DpOS7_
FN:253,_ZNSt16allocator_traitsISaIPN7testing8TestCaseEEE12_S_constructIS2_IRKS2_EEENSt9enable_ifIXsrNS4_18__construct_helperIT_IDpT0_EEE5valueEvE4typeERS3_PSA_DpOSB_
FN:253,_ZNSt16allocator_traitsISaIPN7testing11EnvironmentEEE12_S_constructIS2_IRKS2_EEENSt9enable_ifIXsrNS4_18__construct_helperIT_IDpT0_EEE5valueEvE4typeERS3_PSA_DpOSB_
FN:253,_ZNSt16allocator_traitsISaIPN7testing8TestCaseEEE12_S_constructIS2_IS2_EEENSt9enable_ifIXsrNS4_18__construct_helperIT_IDpT0_EEE5valueEvE4typeERS3_PS8_DpOS9_
FN:253,_ZNSt16allocator_traitsISaISsEE12_S_constructISsISsEEENSt9enable_ifIXsrNS1_18__construct_helperIT_IDpT0_EEE5valueEvE4typeERS0_PS5_DpOS6_
FN:253,_ZNSt16allocator_traitsISaIN7testing8internal9TraceInfoEEE12_S_constructIS2_IRKS2_EEENSt9enable_ifIXsrNS4_18__construct_helperIT_IDpT0_EEE5valueEvE4typeERS3_PSA_DpOSB_
FN:253,_ZNSt16allocator_traitsISaISt13_Rb_tree_nodeISsEEE12_S_constructIS1_IRKSsEEENSt9enable_ifIXsrNS3_18__construct_helperIT_IDpT0_EEE5valueEvE4typeERS2_PS9_DpOSA_
FN:253,_ZNSt16allocator_traitsISaIN7testing12TestPropertyEEE12_S_constructIS1_IRKS1_EEENSt9enable_ifIXsrNS3_18__construct_helperIT_IDpT0_EEE5valueEvE4typeERS2_PS9_DpOSA_
FN:253,_ZNSt16allocator_traitsISaIiEE12_S_constructIiIiEEENSt9enable_ifIXsrNS1_18__construct_helperIT_IDpT0_EEE5valueEvE4typeERS0_PS5_DpOS6_
FN:253,_ZNSt16allocator_traitsISaIN7testing14TestPartResultEEE12_S_constructIS1_IRKS1_EEENSt9enable_ifIXsrNS3_18__construct_helperIT_IDpT0_EEE5valueEvE4typeERS2_PS9_DpOSA_
FN:253,_ZNSt16allocator_traitsISaIPN7testing17TestEventListenerEEE12_S_constructIS2_IRKS2_EEENSt9enable_ifIXsrNS4_18__construct_helperIT_IDpT0_EEE5valueEvE4typeERS3_PSA_DpOSB_
FN:253,_ZNSt16allocator_traitsISaIPN7testing8TestInfoEEE12_S_constructIS2_IRKS2_EEENSt9enable_ifIXsrNS4_18__construct_helperIT_IDpT0_EEE5valueEvE4typeERS3_PSA_DpOSB_
FN:280,_ZNSt16allocator_traitsISaIN7testing8internal9TraceInfoEEE10_S_destroyIS2_EENSt9enable_ifIXsrNS4_16__destroy_helperIT_EE5valueEvE4typeERS3_PS8_
FN:280,_ZNSt16allocator_traitsISaIPN7testing8TestCaseEEE10_S_destroyIS2_EENSt9enable_ifIXsrNS4_16__destroy_helperIT_EE5valueEvE4typeERS3_PS8_
FN:280,_ZNSt16allocator_traitsISaIPcEE10_S_destroyIS0_EENSt9enable_ifIXsrNS2_16__destroy_helperIT_EE5valueEvE4typeERS1_PS6_
FN:280,_ZNSt16allocator_traitsISaIiEE10_S_destroyIiEENSt9enable_ifIXsrNS1_16__destroy_helperIT_EE5valueEvE4typeERS0_PS5_
FN:280,_ZNSt16allocator_traitsISaIPN7testing17TestEventListenerEEE10_S_destroyIS2_EENSt9enable_ifIXsrNS4_16__destroy_helperIT_EE5valueEvE4typeERS3_PS8_
FN:280,_ZNSt16allocator_traitsISaIPN7testing8TestInfoEEE10_S_destroyIS2_EENSt9enable_ifIXsrNS4_16__destroy_helperIT_EE5valueEvE4typeERS3_PS8_
FN:280,_ZNSt16allocator_traitsISaIPN7testing11EnvironmentEEE10_S_destroyIS2_EENSt9enable_ifIXsrNS4_16__destroy_helperIT_EE5valueEvE4typeERS3_PS8_
FN:280,_ZNSt16allocator_traitsISaIN7testing14TestPartResultEEE10_S_destroyIS1_EENSt9enable_ifIXsrNS3_16__destroy_helperIT_EE5valueEvE4typeERS2_PS7_
FN:280,_ZNSt16allocator_traitsISaIN7testing12TestPropertyEEE10_S_destroyIS1_EENSt9enable_ifIXsrNS3_16__destroy_helperIT_EE5valueEvE4typeERS2_PS7_
FN:280,_ZNSt16allocator_traitsISaISsEE10_S_destroyISsEENSt9enable_ifIXsrNS1_16__destroy_helperIT_EE5valueEvE4typeERS0_PS5_
FN:305,_ZNSt16allocator_traitsISaIPN7testing11EnvironmentEEE11_S_max_sizeIKS3_EENSt9enable_ifIXsrNS4_16__maxsize_helperIT_EE5valueEmE4typeERS9_
FN:305,_ZNSt16allocator_traitsISaIN7testing12TestPropertyEEE11_S_max_sizeIKS2_EENSt9enable_ifIXsrNS3_16__maxsize_helperIT_EE5valueEmE4typeERS8_
FN:305,_ZNSt16allocator_traitsISaIPN7testing8TestInfoEEE11_S_max_sizeIKS3_EENSt9enable_ifIXsrNS4_16__maxsize_helperIT_EE5valueEmE4typeERS9_
FN:305,_ZNSt16allocator_traitsISaIN7testing14TestPartResultEEE11_S_max_sizeIKS2_EENSt9enable_ifIXsrNS3_16__maxsize_helperIT_EE5valueEmE4typeERS8_
FN:305,_ZNSt16allocator_traitsISaISsEE11_S_max_sizeIKS0_EENSt9enable_ifIXsrNS1_16__maxsize_helperIT_EE5valueEmE4typeERS6_
FN:305,_ZNSt16allocator_traitsISaIPN7testing17TestEventListenerEEE11_S_max_sizeIKS3_EENSt9enable_ifIXsrNS4_16__maxsize_helperIT_EE5valueEmE4typeERS9_
FN:305,_ZNSt16allocator_traitsISaIN7testing8internal9TraceInfoEEE11_S_max_sizeIKS3_EENSt9enable_ifIXsrNS4_16__maxsize_helperIT_EE5valueEmE4typeERS9_
FN:305,_ZNSt16allocator_traitsISaIPN7testing8TestCaseEEE11_S_max_sizeIKS3_EENSt9enable_ifIXsrNS4_16__maxsize_helperIT_EE5valueEmE4typeERS9_
FN:305,_ZNSt16allocator_traitsISaIPcEE11_S_max_sizeIKS1_EENSt9enable_ifIXsrNS2_16__maxsize_helperIT_EE5valueEmE4typeERS7_
FN:305,_ZNSt16allocator_traitsISaIiEE11_S_max_sizeIKS0_EENSt9enable_ifIXsrNS1_16__maxsize_helperIT_EE5valueEmE4typeERS6_
FN:337,_ZNSt16allocator_traitsISaISsEE9_S_selectIKS0_EENSt9enable_ifIXntsrNS1_15__select_helperIT_EE5valueES6_E4typeERS6_
FN:337,_ZNSt16allocator_traitsISaIN7testing8internal9TraceInfoEEE9_S_selectIKS3_EENSt9enable_ifIXntsrNS4_15__select_helperIT_EE5valueES9_E4typeERS9_
FN:391,_ZNSt16allocator_traitsISaIN7testing8internal9TraceInfoEEE9constructIS2_IRKS2_EEEDTcl12_S_constructfp_fp0_spcl7forwardIT0_Efp1_EEERS3_PT_DpOS8_
FN:391,_ZNSt16allocator_traitsISaIiEE9constructIiIiEEEDTcl12_S_constructfp_fp0_spcl7forwardIT0_Efp1_EEERS0_PT_DpOS3_
FN:391,_ZNSt16allocator_traitsISaIPN7testing11EnvironmentEEE9constructIS2_IRKS2_EEEDTcl12_S_constructfp_fp0_spcl7forwardIT0_Efp1_EEERS3_PT_DpOS8_
FN:391,_ZNSt16allocator_traitsISaIPN7testing17TestEventListenerEEE9constructIS2_IRKS2_EEEDTcl12_S_constructfp_fp0_spcl7forwardIT0_Efp1_EEERS3_PT_DpOS8_
FN:391,_ZNSt16allocator_traitsISaIPN7testing8TestCaseEEE9constructIS2_IRKS2_EEEDTcl12_S_constructfp_fp0_spcl7forwardIT0_Efp1_EEERS3_PT_DpOS8_
FN:391,_ZNSt16allocator_traitsISaIPN7testing8TestInfoEEE9constructIS2_IRKS2_EEEDTcl12_S_constructfp_fp0_spcl7forwardIT0_Efp1_EEERS3_PT_DpOS8_
FN:391,_ZNSt16allocator_traitsISaIN7testing12TestPropertyEEE9constructIS1_IRKS1_EEEDTcl12_S_constructfp_fp0_spcl7forwardIT0_Efp1_EEERS2_PT_DpOS7_
FN:391,_ZNSt16allocator_traitsISaISt13_Rb_tree_nodeISsEEE9constructIS1_IRKSsEEEDTcl12_S_constructfp_fp0_spcl7forwardIT0_Efp1_EEERS2_PT_DpOS7_
FN:391,_ZNSt16allocator_traitsISaIPcEE9constructIS0_IS0_EEEDTcl12_S_constructfp_fp0_spcl7forwardIT0_Efp1_EEERS1_PT_DpOS4_
FN:391,_ZNSt16allocator_traitsISaISsEE9constructISsISsEEEDTcl12_S_constructfp_fp0_spcl7forwardIT0_Efp1_EEERS0_PT_DpOS3_
FN:391,_ZNSt16allocator_traitsISaIPN7testing8TestCaseEEE9constructIS2_IS2_EEEDTcl12_S_constructfp_fp0_spcl7forwardIT0_Efp1_EEERS3_PT_DpOS6_
FN:391,_ZNSt16allocator_traitsISaIN7testing14TestPartResultEEE9constructIS1_IRKS1_EEEDTcl12_S_constructfp_fp0_spcl7forwardIT0_Efp1_EEERS2_PT_DpOS7_
FN:404,_ZNSt16allocator_traitsISaIPN7testing17TestEventListenerEEE7destroyIS2_EEvRS3_PT_
FN:404,_ZNSt16allocator_traitsISaIPcEE7destroyIS0_EEvRS1_PT_
FN:404,_ZNSt16allocator_traitsISaIPN7testing8TestCaseEEE7destroyIS2_EEvRS3_PT_
FN:404,_ZNSt16allocator_traitsISaIN7testing14TestPartResultEEE7destroyIS1_EEvRS2_PT_
FN:404,_ZNSt16allocator_traitsISaIPN7testing11EnvironmentEEE7destroyIS2_EEvRS3_PT_
FN:404,_ZNSt16allocator_traitsISaISsEE7destroyISsEEvRS0_PT_
FN:404,_ZNSt16allocator_traitsISaIPN7testing8TestInfoEEE7destroyIS2_EEvRS3_PT_
FN:404,_ZNSt16allocator_traitsISaIN7testing8internal9TraceInfoEEE7destroyIS2_EEvRS3_PT_
FN:404,_ZNSt16allocator_traitsISaIN7testing12TestPropertyEEE7destroyIS1_EEvRS2_PT_
FN:404,_ZNSt16allocator_traitsISaIiEE7destroyIiEEvRS0_PT_
FN:415,_ZNSt16allocator_traitsISaIiEE8max_sizeERKS0_
FN:415,_ZNSt16allocator_traitsISaIPN7testing8TestCaseEEE8max_sizeERKS3_
FN:415,_ZNSt16allocator_traitsISaIPN7testing8TestInfoEEE8max_sizeERKS3_
FN:415,_ZNSt16allocator_traitsISaISsEE8max_sizeERKS0_
FN:415,_ZNSt16allocator_traitsISaIPN7testing17TestEventListenerEEE8max_sizeERKS3_
FN:415,_ZNSt16allocator_traitsISaIPcEE8max_sizeERKS1_
FN:415,_ZNSt16allocator_traitsISaIN7testing12TestPropertyEEE8max_sizeERKS2_
FN:415,_ZNSt16allocator_traitsISaIN7testing14TestPartResultEEE8max_sizeERKS2_
FN:415,_ZNSt16allocator_traitsISaIN7testing8internal9TraceInfoEEE8max_sizeERKS3_
FN:415,_ZNSt16allocator_traitsISaIPN7testing11EnvironmentEEE8max_sizeERKS3_
FN:427,_ZNSt16allocator_traitsISaIN7testing8internal9TraceInfoEEE37select_on_container_copy_constructionERKS3_
FN:427,_ZNSt16allocator_traitsISaISsEE37select_on_container_copy_constructionERKS0_
FN:501,_ZSt18__do_alloc_on_swapISaISsEEvRT_S2_St17integral_constantIbLb0EE
FN:505,_ZSt15__alloc_on_swapISaISsEEvRT_S2_
FNDA:0,_ZNSt16allocator_traitsISaISt13_Rb_tree_nodeISsEEE12_S_constructIS1_IRKSsEEENSt9enable_ifIXsrNS3_18__construct_helperIT_IDpT0_EEE5valueEvE4typeERS2_PS9_DpOSA_
FNDA:1,_ZNSt16allocator_traitsISaISsEE12_S_constructISsISsEEENSt9enable_ifIXsrNS1_18__construct_helperIT_IDpT0_EEE5valueEvE4typeERS0_PS5_DpOS6_
FNDA:0,_ZNSt16allocator_traitsISaIPcEE12_S_constructIS0_IS0_EEENSt9enable_ifIXsrNS2_18__construct_helperIT_IDpT0_EEE5valueEvE4typeERS1_PS6_DpOS7_
FNDA:0,_ZNSt16allocator_traitsISaIPN7testing8TestCaseEEE12_S_constructIS2_IS2_EEENSt9enable_ifIXsrNS4_18__construct_helperIT_IDpT0_EEE5valueEvE4typeERS3_PS8_DpOS9_
FNDA:2,_ZNSt16allocator_traitsISaIiEE12_S_constructIiIiEEENSt9enable_ifIXsrNS1_18__construct_helperIT_IDpT0_EEE5valueEvE4typeERS0_PS5_DpOS6_
FNDA:1,_ZNSt16allocator_traitsISaIPN7testing8TestCaseEEE12_S_constructIS2_IRKS2_EEENSt9enable_ifIXsrNS4_18__construct_helperIT_IDpT0_EEE5valueEvE4typeERS3_PSA_DpOSB_
FNDA:0,_ZNSt16allocator_traitsISaIN7testing8internal9TraceInfoEEE12_S_constructIS2_IRKS2_EEENSt9enable_ifIXsrNS4_18__construct_helperIT_IDpT0_EEE5valueEvE4typeERS3_PSA_DpOSB_
FNDA:0,_ZNSt16allocator_traitsISaIPN7testing11EnvironmentEEE12_S_constructIS2_IRKS2_EEENSt9enable_ifIXsrNS4_18__construct_helperIT_IDpT0_EEE5valueEvE4typeERS3_PSA_DpOSB_
FNDA:1,_ZNSt16allocator_traitsISaIPN7testing17TestEventListenerEEE12_S_constructIS2_IRKS2_EEENSt9enable_ifIXsrNS4_18__construct_helperIT_IDpT0_EEE5valueEvE4typeERS3_PSA_DpOSB_
FNDA:1,_ZNSt16allocator_traitsISaIPN7testing8TestInfoEEE12_S_constructIS2_IRKS2_EEENSt9enable_ifIXsrNS4_18__construct_helperIT_IDpT0_EEE5valueEvE4typeERS3_PSA_DpOSB_
FNDA:0,_ZNSt16allocator_traitsISaIN7testing12TestPropertyEEE12_S_constructIS1_IRKS1_EEENSt9enable_ifIXsrNS3_18__construct_helperIT_IDpT0_EEE5valueEvE4typeERS2_PS9_DpOSA_
FNDA:0,_ZNSt16allocator_traitsISaIN7testing14TestPartResultEEE12_S_constructIS1_IRKS1_EEENSt9enable_ifIXsrNS3_18__construct_helperIT_IDpT0_EEE5valueEvE4typeERS2_PS9_DpOSA_
FNDA:0,_ZNSt16allocator_traitsISaISsEE10_S_destroyISsEENSt9enable_ifIXsrNS1_16__destroy_helperIT_EE5valueEvE4typeERS0_PS5_
FNDA:0,_ZNSt16allocator_traitsISaIPcEE10_S_destroyIS0_EENSt9enable_ifIXsrNS2_16__destroy_helperIT_EE5valueEvE4typeERS1_PS6_
FNDA:0,_ZNSt16allocator_traitsISaIiEE10_S_destroyIiEENSt9enable_ifIXsrNS1_16__destroy_helperIT_EE5valueEvE4typeERS0_PS5_
FNDA:0,_ZNSt16allocator_traitsISaIPN7testing8TestCaseEEE10_S_destroyIS2_EENSt9enable_ifIXsrNS4_16__destroy_helperIT_EE5valueEvE4typeERS3_PS8_
FNDA:0,_ZNSt16allocator_traitsISaIPN7testing11EnvironmentEEE10_S_destroyIS2_EENSt9enable_ifIXsrNS4_16__destroy_helperIT_EE5valueEvE4typeERS3_PS8_
FNDA:0,_ZNSt16allocator_traitsISaIPN7testing8TestInfoEEE10_S_destroyIS2_EENSt9enable_ifIXsrNS4_16__destroy_helperIT_EE5valueEvE4typeERS3_PS8_
FNDA:0,_ZNSt16allocator_traitsISaIN7testing12TestPropertyEEE10_S_destroyIS1_EENSt9enable_ifIXsrNS3_16__destroy_helperIT_EE5valueEvE4typeERS2_PS7_
FNDA:0,_ZNSt16allocator_traitsISaIN7testing14TestPartResultEEE10_S_destroyIS1_EENSt9enable_ifIXsrNS3_16__destroy_helperIT_EE5valueEvE4typeERS2_PS7_
FNDA:0,_ZNSt16allocator_traitsISaIN7testing8internal9TraceInfoEEE10_S_destroyIS2_EENSt9enable_ifIXsrNS4_16__destroy_helperIT_EE5valueEvE4typeERS3_PS8_
FNDA:0,_ZNSt16allocator_traitsISaIPN7testing17TestEventListenerEEE10_S_destroyIS2_EENSt9enable_ifIXsrNS4_16__destroy_helperIT_EE5valueEvE4typeERS3_PS8_
FNDA:2,_ZNSt16allocator_traitsISaISsEE11_S_max_sizeIKS0_EENSt9enable_ifIXsrNS1_16__maxsize_helperIT_EE5valueEmE4typeERS6_
FNDA:0,_ZNSt16allocator_traitsISaIPcEE11_S_max_sizeIKS1_EENSt9enable_ifIXsrNS2_16__maxsize_helperIT_EE5valueEmE4typeERS7_
FNDA:4,_ZNSt16allocator_traitsISaIiEE11_S_max_sizeIKS0_EENSt9enable_ifIXsrNS1_16__maxsize_helperIT_EE5valueEmE4typeERS6_
FNDA:2,_ZNSt16allocator_traitsISaIPN7testing8TestCaseEEE11_S_max_sizeIKS3_EENSt9enable_ifIXsrNS4_16__maxsize_helperIT_EE5valueEmE4typeERS9_
FNDA:0,_ZNSt16allocator_traitsISaIN7testing8internal9TraceInfoEEE11_S_max_sizeIKS3_EENSt9enable_ifIXsrNS4_16__maxsize_helperIT_EE5valueEmE4typeERS9_
FNDA:0,_ZNSt16allocator_traitsISaIPN7testing11EnvironmentEEE11_S_max_sizeIKS3_EENSt9enable_ifIXsrNS4_16__maxsize_helperIT_EE5valueEmE4typeERS9_
FNDA:2,_ZNSt16allocator_traitsISaIPN7testing17TestEventListenerEEE11_S_max_sizeIKS3_EENSt9enable_ifIXsrNS4_16__maxsize_helperIT_EE5valueEmE4typeERS9_
FNDA:2,_ZNSt16allocator_traitsISaIPN7testing8TestInfoEEE11_S_max_sizeIKS3_EENSt9enable_ifIXsrNS4_16__maxsize_helperIT_EE5valueEmE4typeERS9_
FNDA:0,_ZNSt16allocator_traitsISaIN7testing12TestPropertyEEE11_S_max_sizeIKS2_EENSt9enable_ifIXsrNS3_16__maxsize_helperIT_EE5valueEmE4typeERS8_
FNDA:0,_ZNSt16allocator_traitsISaIN7testing14TestPartResultEEE11_S_max_sizeIKS2_EENSt9enable_ifIXsrNS3_16__maxsize_helperIT_EE5valueEmE4typeERS8_
FNDA:0,_ZNSt16allocator_traitsISaIN7testing8internal9TraceInfoEEE9_S_selectIKS3_EENSt9enable_ifIXntsrNS4_15__select_helperIT_EE5valueES9_E4typeERS9_
FNDA:0,_ZNSt16allocator_traitsISaISsEE9_S_selectIKS0_EENSt9enable_ifIXntsrNS1_15__select_helperIT_EE5valueES6_E4typeERS6_
FNDA:0,_ZNSt16allocator_traitsISaISt13_Rb_tree_nodeISsEEE9constructIS1_IRKSsEEEDTcl12_S_constructfp_fp0_spcl7forwardIT0_Efp1_EEERS2_PT_DpOS7_
FNDA:1,_ZNSt16allocator_traitsISaISsEE9constructISsISsEEEDTcl12_S_constructfp_fp0_spcl7forwardIT0_Efp1_EEERS0_PT_DpOS3_
FNDA:0,_ZNSt16allocator_traitsISaIPcEE9constructIS0_IS0_EEEDTcl12_S_constructfp_fp0_spcl7forwardIT0_Efp1_EEERS1_PT_DpOS4_
FNDA:0,_ZNSt16allocator_traitsISaIPN7testing8TestCaseEEE9constructIS2_IS2_EEEDTcl12_S_constructfp_fp0_spcl7forwardIT0_Efp1_EEERS3_PT_DpOS6_
FNDA:2,_ZNSt16allocator_traitsISaIiEE9constructIiIiEEEDTcl12_S_constructfp_fp0_spcl7forwardIT0_Efp1_EEERS0_PT_DpOS3_
FNDA:1,_ZNSt16allocator_traitsISaIPN7testing8TestCaseEEE9constructIS2_IRKS2_EEEDTcl12_S_constructfp_fp0_spcl7forwardIT0_Efp1_EEERS3_PT_DpOS8_
FNDA:0,_ZNSt16allocator_traitsISaIN7testing8internal9TraceInfoEEE9constructIS2_IRKS2_EEEDTcl12_S_constructfp_fp0_spcl7forwardIT0_Efp1_EEERS3_PT_DpOS8_
FNDA:0,_ZNSt16allocator_traitsISaIPN7testing11EnvironmentEEE9constructIS2_IRKS2_EEEDTcl12_S_constructfp_fp0_spcl7forwardIT0_Efp1_EEERS3_PT_DpOS8_
FNDA:1,_ZNSt16allocator_traitsISaIPN7testing17TestEventListenerEEE9constructIS2_IRKS2_EEEDTcl12_S_constructfp_fp0_spcl7forwardIT0_Efp1_EEERS3_PT_DpOS8_
FNDA:1,_ZNSt16allocator_traitsISaIPN7testing8TestInfoEEE9constructIS2_IRKS2_EEEDTcl12_S_constructfp_fp0_spcl7forwardIT0_Efp1_EEERS3_PT_DpOS8_
FNDA:0,_ZNSt16allocator_traitsISaIN7testing12TestPropertyEEE9constructIS1_IRKS1_EEEDTcl12_S_constructfp_fp0_spcl7forwardIT0_Efp1_EEERS2_PT_DpOS7_
FNDA:0,_ZNSt16allocator_traitsISaIN7testing14TestPartResultEEE9constructIS1_IRKS1_EEEDTcl12_S_constructfp_fp0_spcl7forwardIT0_Efp1_EEERS2_PT_DpOS7_
FNDA:0,_ZNSt16allocator_traitsISaISsEE7destroyISsEEvRS0_PT_
FNDA:0,_ZNSt16allocator_traitsISaIPcEE7destroyIS0_EEvRS1_PT_
FNDA:0,_ZNSt16allocator_traitsISaIiEE7destroyIiEEvRS0_PT_
FNDA:0,_ZNSt16allocator_traitsISaIPN7testing8TestCaseEEE7destroyIS2_EEvRS3_PT_
FNDA:0,_ZNSt16allocator_traitsISaIPN7testing11EnvironmentEEE7destroyIS2_EEvRS3_PT_
FNDA:0,_ZNSt16allocator_traitsISaIPN7testing8TestInfoEEE7destroyIS2_EEvRS3_PT_
FNDA:0,_ZNSt16allocator_traitsISaIN7testing12TestPropertyEEE7destroyIS1_EEvRS2_PT_
FNDA:0,_ZNSt16allocator_traitsISaIN7testing14TestPartResultEEE7destroyIS1_EEvRS2_PT_
FNDA:0,_ZNSt16allocator_traitsISaIN7testing8internal9TraceInfoEEE7destroyIS2_EEvRS3_PT_
FNDA:0,_ZNSt16allocator_traitsISaIPN7testing17TestEventListenerEEE7destroyIS2_EEvRS3_PT_
FNDA:2,_ZNSt16allocator_traitsISaISsEE8max_sizeERKS0_
FNDA:0,_ZNSt16allocator_traitsISaIPcEE8max_sizeERKS1_
FNDA:4,_ZNSt16allocator_traitsISaIiEE8max_sizeERKS0_
FNDA:2,_ZNSt16allocator_traitsISaIPN7testing8TestCaseEEE8max_sizeERKS3_
FNDA:0,_ZNSt16allocator_traitsISaIN7testing8internal9TraceInfoEEE8max_sizeERKS3_
FNDA:0,_ZNSt16allocator_traitsISaIPN7testing11EnvironmentEEE8max_sizeERKS3_
FNDA:2,_ZNSt16allocator_traitsISaIPN7testing17TestEventListenerEEE8max_sizeERKS3_
FNDA:2,_ZNSt16allocator_traitsISaIPN7testing8TestInfoEEE8max_sizeERKS3_
FNDA:0,_ZNSt16allocator_traitsISaIN7testing12TestPropertyEEE8max_sizeERKS2_
FNDA:0,_ZNSt16allocator_traitsISaIN7testing14TestPartResultEEE8max_sizeERKS2_
FNDA:0,_ZNSt16allocator_traitsISaIN7testing8internal9TraceInfoEEE37select_on_container_copy_constructionERKS3_
FNDA:0,_ZNSt16allocator_traitsISaISsEE37select_on_container_copy_constructionERKS0_
FNDA:0,_ZSt18__do_alloc_on_swapISaISsEEvRT_S2_St17integral_constantIbLb0EE
FNDA:0,_ZSt15__alloc_on_swapISaISsEEvRT_S2_
FNF:70
FNH:20
DA:253,6
DA:254,6
DA:280,0
DA:281,0
DA:305,12
DA:306,12
DA:337,0
DA:338,0
DA:391,6
DA:393,6
DA:404,0
DA:405,0
DA:415,12
DA:416,12
DA:427,0
DA:428,0
DA:501,0
DA:502,0
DA:505,0
DA:509,0
DA:510,0
LF:21
LH:8
end_of_record
SF:/usr/include/c++/4.8.2/bits/allocator.h
FN:113,_ZNSaIN7testing8internal9TraceInfoEEC2Ev
FN:113,_ZNSaIPN7testing8TestInfoEEC2Ev
FN:113,_ZNSaIiEC2Ev
FN:113,_ZNSaIN7testing12TestPropertyEEC2Ev
FN:113,_ZNSaIPN7testing8TestCaseEEC2Ev
FN:113,_ZNSaIPN7testing17TestEventListenerEEC2Ev
FN:113,_ZNSaISt13_Rb_tree_nodeISsEEC2Ev
FN:113,_ZNSaIPN7testing8internal29ParameterizedTestCaseInfoBaseEEC2Ev
FN:113,_ZNSaIPcEC2Ev
FN:113,_ZNSaIN7testing14TestPartResultEEC2Ev
FN:113,_ZNSaIPN7testing11EnvironmentEEC2Ev
FN:113,_ZNSaISsEC2Ev
FN:115,_ZNSaISsEC2ERKS_
FN:115,_ZNSaIN7testing8internal9TraceInfoEEC2ERKS2_
FN:121,_ZNSaIN7testing8internal9TraceInfoEED2Ev
FN:121,_ZNSaIN7testing12TestPropertyEED2Ev
FN:121,_ZNSaIPN7testing17TestEventListenerEED2Ev
FN:121,_ZNSaIiED2Ev
FN:121,_ZNSaIPcED2Ev
FN:121,_ZNSaIPN7testing8TestCaseEED2Ev
FN:121,_ZNSaIN7testing14TestPartResultEED2Ev
FN:121,_ZNSaIPN7testing11EnvironmentEED2Ev
FN:121,_ZNSaISt13_Rb_tree_nodeISsEED2Ev
FN:121,_ZNSaISsED2Ev
FN:121,_ZNSaIPN7testing8TestInfoEED2Ev
FN:121,_ZNSaIPN7testing8internal29ParameterizedTestCaseInfoBaseEED2Ev
FN:133,_ZSteqIcEbRKSaIT_ES3_
FNDA:1,_ZNSaIN7testing8internal9TraceInfoEEC2Ev
FNDA:0,_ZNSaISt13_Rb_tree_nodeISsEEC2Ev
FNDA:0,_ZNSaIPcEC2Ev
FNDA:1,_ZNSaIPN7testing8TestCaseEEC2Ev
FNDA:1,_ZNSaIPN7testing11EnvironmentEEC2Ev
FNDA:1,_ZNSaIPN7testing17TestEventListenerEEC2Ev
FNDA:2,_ZNSaIiEC2Ev
FNDA:1,_ZNSaIPN7testing8TestInfoEEC2Ev
FNDA:3,_ZNSaIN7testing12TestPropertyEEC2Ev
FNDA:3,_ZNSaIN7testing14TestPartResultEEC2Ev
FNDA:1,_ZNSaIPN7testing8internal29ParameterizedTestCaseInfoBaseEEC2Ev
FNDA:1,_ZNSaISsEC2Ev
FNDA:0,_ZNSaIN7testing8internal9TraceInfoEEC2ERKS2_
FNDA:0,_ZNSaISsEC2ERKS_
FNDA:1,_ZNSaIN7testing8internal9TraceInfoEED2Ev
FNDA:0,_ZNSaIPcED2Ev
FNDA:1,_ZNSaIPN7testing8TestCaseEED2Ev
FNDA:1,_ZNSaIPN7testing11EnvironmentEED2Ev
FNDA:1,_ZNSaIPN7testing17TestEventListenerEED2Ev
FNDA:2,_ZNSaIiED2Ev
FNDA:1,_ZNSaIPN7testing8TestInfoEED2Ev
FNDA:3,_ZNSaIN7testing12TestPropertyEED2Ev
FNDA:3,_ZNSaIN7testing14TestPartResultEED2Ev
FNDA:1,_ZNSaIPN7testing8internal29ParameterizedTestCaseInfoBaseEED2Ev
FNDA:0,_ZNSaISt13_Rb_tree_nodeISsEED2Ev
FNDA:1,_ZNSaISsED2Ev
FNDA:5,_ZSteqIcEbRKSaIT_ES3_
FNF:27
FNH:21
DA:113,15
DA:115,0
DA:116,0
DA:121,15
DA:133,5
DA:134,5
LF:6
LH:4
end_of_record
SF:/usr/include/c++/4.8.2/bits/basic_ios.h
FN:46,_ZSt13__check_facetISt5ctypeIcEERKT_PS3_
FNDA:0,_ZSt13__check_facetISt5ctypeIcEERKT_PS3_
FNF:1
FNH:0
DA:46,0
DA:48,0
DA:49,0
DA:50,0
LF:4
LH:0
end_of_record
SF:/usr/include/c++/4.8.2/bits/basic_string.h
FN:272,_ZNSs12_Alloc_hiderD2Ev
FN:272,_ZNSs12_Alloc_hiderC2ERKS_
FN:272,_ZNSbIwSt11char_traitsIwESaIwEE12_Alloc_hiderD2Ev
FN:1721,_ZNSs16_S_construct_auxIPcEES0_T_S1_RKSaIcESt12__false_type
FN:1721,_ZNSs16_S_construct_auxIPKcEEPcT_S3_RKSaIcESt12__false_type
FN:1743,_ZNSs12_S_constructIPKcEEPcT_S3_RKSaIcE
FN:1743,_ZNSs12_S_constructIPcEES0_T_S1_RKSaIcE
FN:2402,_ZStplIcSt11char_traitsIcESaIcEESbIT_T0_T1_ERKS6_PKS3_
FN:2418,_ZStplIcSt11char_traitsIcESaIcEESbIT_T0_T1_ERKS6_S3_
FN:2430,_ZStplIcSt11char_traitsIcESaIcEESbIT_T0_T1_EOS6_RKS6_
FN:2442,_ZStplIcSt11char_traitsIcESaIcEESbIT_T0_T1_EOS6_S7_
FN:2454,_ZStplIcSt11char_traitsIcESaIcEESbIT_T0_T1_EPKS3_OS6_
FN:2466,_ZStplIcSt11char_traitsIcESaIcEESbIT_T0_T1_EOS6_PKS3_
FN:2493,_ZSteqIcEN9__gnu_cxx11__enable_ifIXsrSt9__is_charIT_E7__valueEbE6__typeERKSbIS3_St11char_traitsIS3_ESaIS3_EESC_
FN:2507,_ZSteqIcSt11char_traitsIcESaIcEEbPKT_RKSbIS3_T0_T1_E
FN:2519,_ZSteqIcSt11char_traitsIcESaIcEEbRKSbIT_T0_T1_EPKS3_
FN:2556,_ZStneIcSt11char_traitsIcESaIcEEbRKSbIT_T0_T1_EPKS3_
FN:2569,_ZStltIcSt11char_traitsIcESaIcEEbRKSbIT_T0_T1_ES8_
FNDA:0,_ZNSbIwSt11char_traitsIwESaIwEE12_Alloc_hiderD2Ev
FNDA:0,_ZNSs12_Alloc_hiderC2ERKS_
FNDA:0,_ZNSs12_Alloc_hiderD2Ev
FNDA:0,_ZNSs16_S_construct_auxIPcEES0_T_S1_RKSaIcESt12__false_type
FNDA:0,_ZNSs16_S_construct_auxIPKcEEPcT_S3_RKSaIcESt12__false_type
FNDA:0,_ZNSs12_S_constructIPcEES0_T_S1_RKSaIcE
FNDA:0,_ZNSs12_S_constructIPKcEEPcT_S3_RKSaIcE
FNDA:1,_ZStplIcSt11char_traitsIcESaIcEESbIT_T0_T1_ERKS6_PKS3_
FNDA:0,_ZStplIcSt11char_traitsIcESaIcEESbIT_T0_T1_ERKS6_S3_
FNDA:0,_ZStplIcSt11char_traitsIcESaIcEESbIT_T0_T1_EOS6_RKS6_
FNDA:0,_ZStplIcSt11char_traitsIcESaIcEESbIT_T0_T1_EOS6_S7_
FNDA:0,_ZStplIcSt11char_traitsIcESaIcEESbIT_T0_T1_EPKS3_OS6_
FNDA:15,_ZStplIcSt11char_traitsIcESaIcEESbIT_T0_T1_EOS6_PKS3_
FNDA:0,_ZSteqIcEN9__gnu_cxx11__enable_ifIXsrSt9__is_charIT_E7__valueEbE6__typeERKSbIS3_St11char_traitsIS3_ESaIS3_EESC_
FNDA:0,_ZSteqIcSt11char_traitsIcESaIcEEbPKT_RKSbIS3_T0_T1_E
FNDA:3,_ZSteqIcSt11char_traitsIcESaIcEEbRKSbIT_T0_T1_EPKS3_
FNDA:1,_ZStneIcSt11char_traitsIcESaIcEEbRKSbIT_T0_T1_EPKS3_
FNDA:0,_ZStltIcSt11char_traitsIcESaIcEEbRKSbIT_T0_T1_ES8_
FNF:18
FNH:4
DA:272,0
DA:1721,0
DA:1725,0
DA:1743,0
DA:1746,0
DA:2402,1
DA:2405,1
DA:2406,1
DA:2407,1
DA:2418,0
DA:2422,0
DA:2423,0
DA:2424,0
DA:2430,0
DA:2432,0
DA:2442,0
DA:2445,0
DA:2446,0
DA:2447,0
DA:2448,0
DA:2449,0
DA:2454,0
DA:2456,0
DA:2466,15
DA:2468,15
DA:2493,0
DA:2495,0
DA:2497,0
DA:2507,0
DA:2509,0
DA:2519,3
DA:2521,3
DA:2556,1
DA:2558,1
DA:2569,0
DA:2571,0
LF:36
LH:10
end_of_record
SF:/usr/include/c++/4.8.2/bits/basic_string.tcc
FN:123,_ZNSs12_S_constructIPKcEEPcT_S3_RKSaIcESt20forward_iterator_tag
FN:123,_ZNSs12_S_constructIPcEES0_T_S1_RKSaIcESt20forward_iterator_tag
FN:227,_ZNSsC2IPcEET_S1_RKSaIcE
FN:227,_ZNSsC2IPKcEET_S2_RKSaIcE
FN:692,_ZStplIcSt11char_traitsIcESaIcEESbIT_T0_T1_EPKS3_RKS6_
FNDA:0,_ZNSs12_S_constructIPcEES0_T_S1_RKSaIcESt20forward_iterator_tag
FNDA:17,_ZNSs12_S_constructIPKcEEPcT_S3_RKSaIcESt20forward_iterator_tag
FNDA:0,_ZNSsC2IPcEET_S1_RKSaIcE
FNDA:0,_ZNSsC2IPKcEET_S2_RKSaIcE
FNDA:0,_ZStplIcSt11char_traitsIcESaIcEESbIT_T0_T1_EPKS3_RKS6_
FNF:5
FNH:1
DA:123,17
DA:128,17
DA:129,5
DA:132,12
DA:133,0
DA:136,12
DA:138,12
DA:140,12
DA:141,0
DA:143,0
DA:144,0
DA:146,12
DA:147,12
DA:227,0
DA:229,0
DA:230,0
DA:692,0
DA:698,0
DA:699,0
DA:700,0
DA:701,0
DA:702,0
DA:703,0
LF:23
LH:9
end_of_record
SF:/usr/include/c++/4.8.2/bits/char_traits.h
FN:242,_ZNSt11char_traitsIcE6assignERcRKc
FN:254,_ZNSt11char_traitsIcE7compareEPKcS2_m
FN:258,_ZNSt11char_traitsIcE6lengthEPKc
FN:270,_ZNSt11char_traitsIcE4copyEPcPKcm
FNDA:0,_ZNSt11char_traitsIcE6assignERcRKc
FNDA:0,_ZNSt11char_traitsIcE7compareEPKcS2_m
FNDA:0,_ZNSt11char_traitsIcE6lengthEPKc
FNDA:0,_ZNSt11char_traitsIcE4copyEPcPKcm
FNF:4
FNH:0
DA:242,0
DA:243,0
DA:254,0
DA:255,0
DA:258,0
DA:259,0
DA:270,0
DA:271,0
LF:8
LH:0
end_of_record
SF:/usr/include/c++/4.8.2/bits/ios_base.h
FN:75,_ZStanSt13_Ios_FmtflagsS_
FN:79,_ZStorSt13_Ios_FmtflagsS_
FN:87,_ZStcoSt13_Ios_Fmtflags
FN:91,_ZStoRRSt13_Ios_FmtflagsS_
FN:95,_ZStaNRSt13_Ios_FmtflagsS_
FN:119,_ZStorSt13_Ios_OpenmodeS_
FN:157,_ZStorSt12_Ios_IostateS_
FN:578,_ZNSt8ios_base4setfESt13_Ios_Fmtflags
FN:595,_ZNSt8ios_base4setfESt13_Ios_FmtflagsS0_
FN:630,_ZNSt8ios_base9precisionEl
FN:653,_ZNSt8ios_base5widthEl
FN:875,_ZSt9uppercaseRSt8ios_base
FN:941,_ZSt3hexRSt8ios_base
FNDA:0,_ZStanSt13_Ios_FmtflagsS_
FNDA:0,_ZStorSt13_Ios_FmtflagsS_
FNDA:0,_ZStcoSt13_Ios_Fmtflags
FNDA:0,_ZStoRRSt13_Ios_FmtflagsS_
FNDA:0,_ZStaNRSt13_Ios_FmtflagsS_
FNDA:0,_ZStorSt13_Ios_OpenmodeS_
FNDA:0,_ZStorSt12_Ios_IostateS_
FNDA:0,_ZNSt8ios_base4setfESt13_Ios_Fmtflags
FNDA:0,_ZNSt8ios_base4setfESt13_Ios_FmtflagsS0_
FNDA:0,_ZNSt8ios_base9precisionEl
FNDA:0,_ZNSt8ios_base5widthEl
FNDA:0,_ZSt9uppercaseRSt8ios_base
FNDA:0,_ZSt3hexRSt8ios_base
FNF:13
FNH:0
DA:75,0
DA:76,0
DA:79,0
DA:80,0
DA:87,0
DA:88,0
DA:91,0
DA:92,0
DA:95,0
DA:96,0
DA:119,0
DA:120,0
DA:157,0
DA:158,0
DA:578,0
DA:580,0
DA:581,0
DA:582,0
DA:595,0
DA:597,0
DA:598,0
DA:599,0
DA:600,0
DA:630,0
DA:632,0
DA:633,0
DA:634,0
DA:653,0
DA:655,0
DA:656,0
DA:657,0
DA:875,0
DA:877,0
DA:878,0
DA:941,0
DA:943,0
DA:944,0
LF:37
LH:0
end_of_record
SF:/usr/include/c++/4.8.2/bits/locale_facets.h
FN:865,_ZNKSt5ctypeIcE5widenEc
FNDA:0,_ZNKSt5ctypeIcE5widenEc
FNF:1
FNH:0
DA:865,0
DA:867,0
DA:868,0
DA:869,0
DA:870,0
LF:5
LH:0
end_of_record
SF:/usr/include/c++/4.8.2/bits/move.h
FN:47,_ZSt11__addressofIN7testing14TestPartResultEEPT_RS2_
FN:47,_ZSt11__addressofISsEPT_RS0_
FN:47,_ZSt11__addressofIN7testing12TestPropertyEEPT_RS2_
FN:47,_ZSt11__addressofIN7testing8internal9TraceInfoEEPT_RS3_
FN:76,_ZSt7forwardISt17_Rb_tree_iteratorISsEEOT_RNSt16remove_referenceIS2_E4typeE
FN:76,_ZSt7forwardIN7testing12TestPropertyEEOT_RNSt16remove_referenceIS2_E4typeE
FN:76,_ZSt7forwardIRKPKcEOT_RNSt16remove_referenceIS4_E4typeE
FN:76,_ZSt7forwardIRKSsEOT_RNSt16remove_referenceIS2_E4typeE
FN:76,_ZSt7forwardIRbEOT_RNSt16remove_referenceIS1_E4typeE
FN:76,_ZSt7forwardIbEOT_RNSt16remove_referenceIS0_E4typeE
FN:76,_ZSt7forwardIRKPN7testing8TestCaseEEOT_RNSt16remove_referenceIS5_E4typeE
FN:76,_ZSt7forwardIPcEOT_RNSt16remove_referenceIS1_E4typeE
FN:76,_ZSt7forwardIPN7testing8TestCaseEEOT_RNSt16remove_referenceIS3_E4typeE
FN:76,_ZSt7forwardIRKN7testing8internal9TraceInfoEEOT_RNSt16remove_referenceIS5_E4typeE
FN:76,_ZSt7forwardIRSt17_Rb_tree_iteratorISsEEOT_RNSt16remove_referenceIS3_E4typeE
FN:76,_ZSt7forwardIRPSt18_Rb_tree_node_baseEOT_RNSt16remove_referenceIS3_E4typeE
FN:76,_ZSt7forwardIRKN7testing12TestPropertyEEOT_RNSt16remove_referenceIS4_E4typeE
FN:76,_ZSt7forwardIRKN7testing14TestPartResultEEOT_RNSt16remove_referenceIS4_E4typeE
FN:76,_ZSt7forwardIRKPN7testing11EnvironmentEEOT_RNSt16remove_referenceIS5_E4typeE
FN:76,_ZSt7forwardISsEOT_RNSt16remove_referenceIS0_E4typeE
FN:76,_ZSt7forwardIiEOT_RNSt16remove_referenceIS0_E4typeE
FN:76,_ZSt7forwardIRKPN7testing17TestEventListenerEEOT_RNSt16remove_referenceIS5_E4typeE
FN:76,_ZSt7forwardIRPSt13_Rb_tree_nodeISsEEOT_RNSt16remove_referenceIS4_E4typeE
FN:76,_ZSt7forwardIRKPN7testing8TestInfoEEOT_RNSt16remove_referenceIS5_E4typeE
FN:76,_ZSt7forwardIN7testing8internal9TraceInfoEEOT_RNSt16remove_referenceIS3_E4typeE
FN:76,_ZSt7forwardIN7testing14TestPartResultEEOT_RNSt16remove_referenceIS2_E4typeE
FN:101,_ZSt4moveIRPN7testing8TestCaseEEONSt16remove_referenceIT_E4typeEOS5_
FN:101,_ZSt4moveIRPSsEONSt16remove_referenceIT_E4typeEOS3_
FN:101,_ZSt4moveIRSsEONSt16remove_referenceIT_E4typeEOS2_
FN:101,_ZSt4moveIRPcEONSt16remove_referenceIT_E4typeEOS3_
FN:101,_ZSt4moveIRPFvPN7testing17TestEventListenerEEEONSt16remove_referenceIT_E4typeEOS7_
FN:101,_ZSt4moveIRN7testing12TestPropertyEEONSt16remove_referenceIT_E4typeEOS4_
FN:101,_ZSt4moveIRPFvPN7testing8TestCaseEEEONSt16remove_referenceIT_E4typeEOS7_
FN:101,_ZSt4moveIRN7testing14TestPartResultEEONSt16remove_referenceIT_E4typeEOS4_
FN:101,_ZSt4moveIRPFvPN7testing11EnvironmentEEEONSt16remove_referenceIT_E4typeEOS7_
FN:101,_ZSt4moveIRiEONSt16remove_referenceIT_E4typeEOS2_
FN:101,_ZSt4moveIRPFvPN7testing8TestInfoEEEONSt16remove_referenceIT_E4typeEOS7_
FN:101,_ZSt4moveIRN7testing8internal9TraceInfoEEONSt16remove_referenceIT_E4typeEOS5_
FN:166,_ZSt4swapIiEvRT_S1_
FN:166,_ZSt4swapIPSsEvRT_S2_
FNDA:0,_ZSt11__addressofIN7testing8internal9TraceInfoEEPT_RS3_
FNDA:1,_ZSt11__addressofISsEPT_RS0_
FNDA:0,_ZSt11__addressofIN7testing12TestPropertyEEPT_RS2_
FNDA:0,_ZSt11__addressofIN7testing14TestPartResultEEPT_RS2_
FNDA:0,_ZSt7forwardIN7testing8internal9TraceInfoEEOT_RNSt16remove_referenceIS3_E4typeE
FNDA:0,_ZSt7forwardIN7testing12TestPropertyEEOT_RNSt16remove_referenceIS2_E4typeE
FNDA:0,_ZSt7forwardIN7testing14TestPartResultEEOT_RNSt16remove_referenceIS2_E4typeE
FNDA:0,_ZSt7forwardIRPSt13_Rb_tree_nodeISsEEOT_RNSt16remove_referenceIS4_E4typeE
FNDA:0,_ZSt7forwardIRPSt18_Rb_tree_node_baseEOT_RNSt16remove_referenceIS3_E4typeE
FNDA:0,_ZSt7forwardISt17_Rb_tree_iteratorISsEEOT_RNSt16remove_referenceIS2_E4typeE
FNDA:0,_ZSt7forwardIRKSsEOT_RNSt16remove_referenceIS2_E4typeE
FNDA:5,_ZSt7forwardISsEOT_RNSt16remove_referenceIS0_E4typeE
FNDA:0,_ZSt7forwardIPcEOT_RNSt16remove_referenceIS1_E4typeE
FNDA:0,_ZSt7forwardIPN7testing8TestCaseEEOT_RNSt16remove_referenceIS3_E4typeE
FNDA:10,_ZSt7forwardIiEOT_RNSt16remove_referenceIS0_E4typeE
FNDA:0,_ZSt7forwardIbEOT_RNSt16remove_referenceIS0_E4typeE
FNDA:0,_ZSt7forwardIRKPKcEOT_RNSt16remove_referenceIS4_E4typeE
FNDA:0,_ZSt7forwardIRSt17_Rb_tree_iteratorISsEEOT_RNSt16remove_referenceIS3_E4typeE
FNDA:4,_ZSt7forwardIRKPN7testing8TestCaseEEOT_RNSt16remove_referenceIS5_E4typeE
FNDA:0,_ZSt7forwardIRKN7testing8internal9TraceInfoEEOT_RNSt16remove_referenceIS5_E4typeE
FNDA:0,_ZSt7forwardIRKPN7testing11EnvironmentEEOT_RNSt16remove_referenceIS5_E4typeE
FNDA:4,_ZSt7forwardIRKPN7testing17TestEventListenerEEOT_RNSt16remove_referenceIS5_E4typeE
FNDA:4,_ZSt7forwardIRKPN7testing8TestInfoEEOT_RNSt16remove_referenceIS5_E4typeE
FNDA:0,_ZSt7forwardIRKN7testing12TestPropertyEEOT_RNSt16remove_referenceIS4_E4typeE
FNDA:0,_ZSt7forwardIRKN7testing14TestPartResultEEOT_RNSt16remove_referenceIS4_E4typeE
FNDA:0,_ZSt7forwardIRbEOT_RNSt16remove_referenceIS1_E4typeE
FNDA:0,_ZSt4moveIRN7testing8internal9TraceInfoEEONSt16remove_referenceIT_E4typeEOS5_
FNDA:0,_ZSt4moveIRN7testing12TestPropertyEEONSt16remove_referenceIT_E4typeEOS4_
FNDA:0,_ZSt4moveIRN7testing14TestPartResultEEONSt16remove_referenceIT_E4typeEOS4_
FNDA:0,_ZSt4moveIRPSsEONSt16remove_referenceIT_E4typeEOS3_
FNDA:1,_ZSt4moveIRPFvPN7testing17TestEventListenerEEEONSt16remove_referenceIT_E4typeEOS7_
FNDA:2,_ZSt4moveIRPFvPN7testing8TestInfoEEEONSt16remove_referenceIT_E4typeEOS7_
FNDA:2,_ZSt4moveIRPFvPN7testing8TestCaseEEEONSt16remove_referenceIT_E4typeEOS7_
FNDA:0,_ZSt4moveIRPcEONSt16remove_referenceIT_E4typeEOS3_
FNDA:3,_ZSt4moveIRPFvPN7testing11EnvironmentEEEONSt16remove_referenceIT_E4typeEOS7_
FNDA:0,_ZSt4moveIRPN7testing8TestCaseEEONSt16remove_referenceIT_E4typeEOS5_
FNDA:2,_ZSt4moveIRiEONSt16remove_referenceIT_E4typeEOS2_
FNDA:16,_ZSt4moveIRSsEONSt16remove_referenceIT_E4typeEOS2_
FNDA:0,_ZSt4swapIPSsEvRT_S2_
FNDA:0,_ZSt4swapIiEvRT_S1_
FNF:40
FNH:12
DA:47,1
DA:50,1
DA:76,27
DA:77,27
DA:101,26
DA:102,26
DA:166,0
DA:175,0
DA:176,0
DA:177,0
DA:178,0
LF:11
LH:6
end_of_record
SF:/usr/include/c++/4.8.2/bits/stl_algo.h
FN:158,_ZSt6__findIN9__gnu_cxx17__normal_iteratorIPKSsSt6vectorISsSaISsEEEESsET_S8_S8_RKT0_St26random_access_iterator_tag
FN:206,_ZSt9__find_ifIN9__gnu_cxx17__normal_iteratorIPN7testing12TestPropertyESt6vectorIS3_SaIS3_EEEENS2_8internal17TestPropertyKeyIsEET_SB_SB_T0_St26random_access_iterator_tag
FN:206,_ZSt9__find_ifIN9__gnu_cxx17__normal_iteratorIPPN7testing8TestCaseESt6vectorIS4_SaIS4_EEEENS2_8internal14TestCaseNameIsEET_SC_SC_T0_St26random_access_iterator_tag
FN:4411,_ZSt8for_eachIN9__gnu_cxx17__normal_iteratorIPKPN7testing11EnvironmentESt6vectorIS4_SaIS4_EEEEPFvS4_EET0_T_SE_SD_
FN:4411,_ZSt8for_eachIN9__gnu_cxx17__normal_iteratorIPKPN7testing17TestEventListenerESt6vectorIS4_SaIS4_EEEEPFvS4_EET0_T_SE_SD_
FN:4411,_ZSt8for_eachIN9__gnu_cxx17__normal_iteratorIPKPN7testing8TestCaseESt6vectorIS4_SaIS4_EEEEPFvS4_EET0_T_SE_SD_
FN:4411,_ZSt8for_eachISt16reverse_iteratorIN9__gnu_cxx17__normal_iteratorIPPN7testing11EnvironmentESt6vectorIS5_SaIS5_EEEEEPFvS5_EET0_T_SF_SE_
FN:4411,_ZSt8for_eachIN9__gnu_cxx17__normal_iteratorIPKPN7testing8TestInfoESt6vectorIS4_SaIS4_EEEEPFvS4_EET0_T_SE_SD_
FN:4432,_ZSt4findIN9__gnu_cxx17__normal_iteratorIPKSsSt6vectorISsSaISsEEEESsET_S8_S8_RKT0_
FN:4456,_ZSt7find_ifIN9__gnu_cxx17__normal_iteratorIPN7testing12TestPropertyESt6vectorIS3_SaIS3_EEEENS2_8internal17TestPropertyKeyIsEET_SB_SB_T0_
FN:4456,_ZSt7find_ifIN9__gnu_cxx17__normal_iteratorIPPN7testing8TestCaseESt6vectorIS4_SaIS4_EEEENS2_8internal14TestCaseNameIsEET_SC_SC_T0_
FNDA:0,_ZSt6__findIN9__gnu_cxx17__normal_iteratorIPKSsSt6vectorISsSaISsEEEESsET_S8_S8_RKT0_St26random_access_iterator_tag
FNDA:1,_ZSt9__find_ifIN9__gnu_cxx17__normal_iteratorIPPN7testing8TestCaseESt6vectorIS4_SaIS4_EEEENS2_8internal14TestCaseNameIsEET_SC_SC_T0_St26random_access_iterator_tag
FNDA:0,_ZSt9__find_ifIN9__gnu_cxx17__normal_iteratorIPN7testing12TestPropertyESt6vectorIS3_SaIS3_EEEENS2_8internal17TestPropertyKeyIsEET_SB_SB_T0_St26random_access_iterator_tag
FNDA:2,_ZSt8for_eachIN9__gnu_cxx17__normal_iteratorIPKPN7testing11EnvironmentESt6vectorIS4_SaIS4_EEEEPFvS4_EET0_T_SE_SD_
FNDA:1,_ZSt8for_eachIN9__gnu_cxx17__normal_iteratorIPKPN7testing17TestEventListenerESt6vectorIS4_SaIS4_EEEEPFvS4_EET0_T_SE_SD_
FNDA:2,_ZSt8for_eachIN9__gnu_cxx17__normal_iteratorIPKPN7testing8TestInfoESt6vectorIS4_SaIS4_EEEEPFvS4_EET0_T_SE_SD_
FNDA:2,_ZSt8for_eachIN9__gnu_cxx17__normal_iteratorIPKPN7testing8TestCaseESt6vectorIS4_SaIS4_EEEEPFvS4_EET0_T_SE_SD_
FNDA:1,_ZSt8for_eachISt16reverse_iteratorIN9__gnu_cxx17__normal_iteratorIPPN7testing11EnvironmentESt6vectorIS5_SaIS5_EEEEEPFvS5_EET0_T_SF_SE_
FNDA:0,_ZSt4findIN9__gnu_cxx17__normal_iteratorIPKSsSt6vectorISsSaISsEEEESsET_S8_S8_RKT0_
FNDA:1,_ZSt7find_ifIN9__gnu_cxx17__normal_iteratorIPPN7testing8TestCaseESt6vectorIS4_SaIS4_EEEENS2_8internal14TestCaseNameIsEET_SC_SC_T0_
FNDA:0,_ZSt7find_ifIN9__gnu_cxx17__normal_iteratorIPN7testing12TestPropertyESt6vectorIS3_SaIS3_EEEENS2_8internal17TestPropertyKeyIsEET_SB_SB_T0_
FNF:11
FNH:7
DA:158,0
DA:162,0
DA:164,0
DA:166,0
DA:167,0
DA:168,0
DA:170,0
DA:171,0
DA:172,0
DA:174,0
DA:175,0
DA:176,0
DA:178,0
DA:179,0
DA:180,0
DA:183,0
DA:186,0
DA:187,0
DA:188,0
DA:190,0
DA:191,0
DA:192,0
DA:194,0
DA:195,0
DA:196,0
DA:199,0
DA:206,1
DA:210,1
DA:212,1
DA:214,0
DA:215,0
DA:216,0
DA:218,0
DA:219,0
DA:220,0
DA:222,0
DA:223,0
DA:224,0
DA:226,0
DA:227,0
DA:228,0
DA:231,1
DA:234,0
DA:235,0
DA:236,0
DA:238,0
DA:239,0
DA:240,0
DA:242,0
DA:243,0
DA:244,0
DA:247,1
DA:4411,8
DA:4416,13
DA:4417,5
DA:4418,8
DA:4432,0
DA:4441,0
DA:4456,1
DA:4465,1
LF:60
LH:11
end_of_record
SF:/usr/include/c++/4.8.2/bits/stl_algobase.h
FN:193,_ZSt3minImERKT_S2_S2_
FN:216,_ZSt3maxImERKT_S2_S2_
FN:277,_ZSt12__niter_baseIPPN7testing8TestCaseEENSt11_Niter_baseIT_E13iterator_typeES5_
FN:277,_ZSt12__niter_baseIPiENSt11_Niter_baseIT_E13iterator_typeES2_
FN:277,_ZSt12__niter_baseIPPN7testing17TestEventListenerEENSt11_Niter_baseIT_E13iterator_typeES5_
FN:277,_ZSt12__niter_baseIPPcENSt11_Niter_baseIT_E13iterator_typeES3_
FN:277,_ZSt12__niter_baseIPPN7testing11EnvironmentEENSt11_Niter_baseIT_E13iterator_typeES5_
FN:277,_ZSt12__niter_baseIN9__gnu_cxx17__normal_iteratorIPPN7testing17TestEventListenerESt6vectorIS4_SaIS4_EEEEENSt11_Niter_baseIT_E13iterator_typeESB_
FN:277,_ZSt12__niter_baseIPPN7testing8TestInfoEENSt11_Niter_baseIT_E13iterator_typeES5_
FN:288,_ZSt12__miter_baseISt13move_iteratorIPPN7testing11EnvironmentEEENSt11_Miter_baseIT_E13iterator_typeES7_
FN:288,_ZSt12__miter_baseIPPcENSt11_Miter_baseIT_E13iterator_typeES3_
FN:288,_ZSt12__miter_baseISt13move_iteratorIPPN7testing8TestInfoEEENSt11_Miter_baseIT_E13iterator_typeES7_
FN:288,_ZSt12__miter_baseISt13move_iteratorIPPcEENSt11_Miter_baseIT_E13iterator_typeES5_
FN:288,_ZSt12__miter_baseIN9__gnu_cxx17__normal_iteratorIPPN7testing17TestEventListenerESt6vectorIS4_SaIS4_EEEEENSt11_Miter_baseIT_E13iterator_typeESB_
FN:288,_ZSt12__miter_baseISt13move_iteratorIPPN7testing17TestEventListenerEEENSt11_Miter_baseIT_E13iterator_typeES7_
FN:288,_ZSt12__miter_baseIPPN7testing8TestCaseEENSt11_Miter_baseIT_E13iterator_typeES5_
FN:288,_ZSt12__miter_baseISt13move_iteratorIPPN7testing8TestCaseEEENSt11_Miter_baseIT_E13iterator_typeES7_
FN:288,_ZSt12__miter_baseISt13move_iteratorIPiEENSt11_Miter_baseIT_E13iterator_typeES4_
FN:368,_ZNSt11__copy_moveILb1ELb1ESt26random_access_iterator_tagE8__copy_mIiEEPT_PKS3_S6_S4_
FN:368,_ZNSt11__copy_moveILb1ELb1ESt26random_access_iterator_tagE8__copy_mIPcEEPT_PKS4_S7_S5_
FN:368,_ZNSt11__copy_moveILb1ELb1ESt26random_access_iterator_tagE8__copy_mIPN7testing8TestInfoEEEPT_PKS6_S9_S7_
FN:368,_ZNSt11__copy_moveILb1ELb1ESt26random_access_iterator_tagE8__copy_mIPN7testing17TestEventListenerEEEPT_PKS6_S9_S7_
FN:368,_ZNSt11__copy_moveILb1ELb1ESt26random_access_iterator_tagE8__copy_mIPN7testing8TestCaseEEEPT_PKS6_S9_S7_
FN:368,_ZNSt11__copy_moveILb1ELb1ESt26random_access_iterator_tagE8__copy_mIPN7testing11EnvironmentEEEPT_PKS6_S9_S7_
FN:379,_ZSt13__copy_move_aILb1EPPN7testing17TestEventListenerES3_ET1_T0_S5_S4_
FN:379,_ZSt13__copy_move_aILb1EPPN7testing8TestInfoES3_ET1_T0_S5_S4_
FN:379,_ZSt13__copy_move_aILb1EPPN7testing8TestCaseES3_ET1_T0_S5_S4_
FN:379,_ZSt13__copy_move_aILb1EPPcS1_ET1_T0_S3_S2_
FN:379,_ZSt13__copy_move_aILb1EPPN7testing11EnvironmentES3_ET1_T0_S5_S4_
FN:379,_ZSt13__copy_move_aILb1EPiS0_ET1_T0_S2_S1_
FN:424,_ZSt14__copy_move_a2ILb1EPiS0_ET1_T0_S2_S1_
FN:424,_ZSt14__copy_move_a2ILb1EPPN7testing8TestInfoES3_ET1_T0_S5_S4_
FN:424,_ZSt14__copy_move_a2ILb1EPPN7testing17TestEventListenerES3_ET1_T0_S5_S4_
FN:424,_ZSt14__copy_move_a2ILb1EPPN7testing8TestCaseES3_ET1_T0_S5_S4_
FN:424,_ZSt14__copy_move_a2ILb1EN9__gnu_cxx17__normal_iteratorIPPN7testing17TestEventListenerESt6vectorIS4_SaIS4_EEEES9_ET1_T0_SB_SA_
FN:424,_ZSt14__copy_move_a2ILb1EPPN7testing11EnvironmentES3_ET1_T0_S5_S4_
FN:424,_ZSt14__copy_move_a2ILb1EPPcS1_ET1_T0_S3_S2_
FN:450,_ZSt4copyISt13move_iteratorIPPN7testing8TestCaseEES4_ET0_T_S7_S6_
FN:450,_ZSt4copyISt13move_iteratorIPPN7testing11EnvironmentEES4_ET0_T_S7_S6_
FN:450,_ZSt4copyISt13move_iteratorIPiES1_ET0_T_S4_S3_
FN:450,_ZSt4copyISt13move_iteratorIPPN7testing8TestInfoEES4_ET0_T_S7_S6_
FN:450,_ZSt4copyISt13move_iteratorIPPcES2_ET0_T_S5_S4_
FN:450,_ZSt4copyISt13move_iteratorIPPN7testing17TestEventListenerEES4_ET0_T_S7_S6_
FN:483,_ZSt4moveIN9__gnu_cxx17__normal_iteratorIPPN7testing17TestEventListenerESt6vectorIS4_SaIS4_EEEES9_ET0_T_SB_SA_
FN:563,_ZNSt20__copy_move_backwardILb1ELb1ESt26random_access_iterator_tagE13__copy_move_bIPN7testing8TestCaseEEEPT_PKS6_S9_S7_
FN:563,_ZNSt20__copy_move_backwardILb1ELb1ESt26random_access_iterator_tagE13__copy_move_bIPcEEPT_PKS4_S7_S5_
FN:574,_ZSt22__copy_move_backward_aILb1EPPcS1_ET1_T0_S3_S2_
FN:574,_ZSt22__copy_move_backward_aILb1EPPN7testing8TestCaseES3_ET1_T0_S5_S4_
FN:592,_ZSt23__copy_move_backward_a2ILb1EPPcS1_ET1_T0_S3_S2_
FN:592,_ZSt23__copy_move_backward_a2ILb1EPPN7testing8TestCaseES3_ET1_T0_S5_S4_
FN:655,_ZSt13move_backwardIPPN7testing8TestCaseES3_ET0_T_S5_S4_
FN:655,_ZSt13move_backwardIPPcS1_ET0_T_S3_S2_
FNDA:0,_ZSt3minImERKT_S2_S2_
FNDA:6,_ZSt3maxImERKT_S2_S2_
FNDA:6,_ZSt12__niter_baseIPiENSt11_Niter_baseIT_E13iterator_typeES2_
FNDA:0,_ZSt12__niter_baseIPPN7testing11EnvironmentEENSt11_Niter_baseIT_E13iterator_typeES5_
FNDA:3,_ZSt12__niter_baseIPPN7testing17TestEventListenerEENSt11_Niter_baseIT_E13iterator_typeES5_
FNDA:3,_ZSt12__niter_baseIPPN7testing8TestInfoEENSt11_Niter_baseIT_E13iterator_typeES5_
FNDA:0,_ZSt12__niter_baseIPPcENSt11_Niter_baseIT_E13iterator_typeES3_
FNDA:3,_ZSt12__niter_baseIPPN7testing8TestCaseEENSt11_Niter_baseIT_E13iterator_typeES5_
FNDA:0,_ZSt12__niter_baseIN9__gnu_cxx17__normal_iteratorIPPN7testing17TestEventListenerESt6vectorIS4_SaIS4_EEEEENSt11_Niter_baseIT_E13iterator_typeESB_
FNDA:0,_ZSt12__miter_baseISt13move_iteratorIPPcEENSt11_Miter_baseIT_E13iterator_typeES5_
FNDA:4,_ZSt12__miter_baseISt13move_iteratorIPiEENSt11_Miter_baseIT_E13iterator_typeES4_
FNDA:2,_ZSt12__miter_baseISt13move_iteratorIPPN7testing8TestCaseEEENSt11_Miter_baseIT_E13iterator_typeES7_
FNDA:0,_ZSt12__miter_baseISt13move_iteratorIPPN7testing11EnvironmentEEENSt11_Miter_baseIT_E13iterator_typeES7_
FNDA:2,_ZSt12__miter_baseISt13move_iteratorIPPN7testing17TestEventListenerEEENSt11_Miter_baseIT_E13iterator_typeES7_
FNDA:2,_ZSt12__miter_baseISt13move_iteratorIPPN7testing8TestInfoEEENSt11_Miter_baseIT_E13iterator_typeES7_
FNDA:0,_ZSt12__miter_baseIPPcENSt11_Miter_baseIT_E13iterator_typeES3_
FNDA:0,_ZSt12__miter_baseIPPN7testing8TestCaseEENSt11_Miter_baseIT_E13iterator_typeES5_
FNDA:0,_ZSt12__miter_baseIN9__gnu_cxx17__normal_iteratorIPPN7testing17TestEventListenerESt6vectorIS4_SaIS4_EEEEENSt11_Miter_baseIT_E13iterator_typeESB_
FNDA:0,_ZNSt11__copy_moveILb1ELb1ESt26random_access_iterator_tagE8__copy_mIPcEEPT_PKS4_S7_S5_
FNDA:2,_ZNSt11__copy_moveILb1ELb1ESt26random_access_iterator_tagE8__copy_mIiEEPT_PKS3_S6_S4_
FNDA:1,_ZNSt11__copy_moveILb1ELb1ESt26random_access_iterator_tagE8__copy_mIPN7testing8TestCaseEEEPT_PKS6_S9_S7_
FNDA:0,_ZNSt11__copy_moveILb1ELb1ESt26random_access_iterator_tagE8__copy_mIPN7testing11EnvironmentEEEPT_PKS6_S9_S7_
FNDA:1,_ZNSt11__copy_moveILb1ELb1ESt26random_access_iterator_tagE8__copy_mIPN7testing8TestInfoEEEPT_PKS6_S9_S7_
FNDA:1,_ZNSt11__copy_moveILb1ELb1ESt26random_access_iterator_tagE8__copy_mIPN7testing17TestEventListenerEEEPT_PKS6_S9_S7_
FNDA:0,_ZSt13__copy_move_aILb1EPPcS1_ET1_T0_S3_S2_
FNDA:2,_ZSt13__copy_move_aILb1EPiS0_ET1_T0_S2_S1_
FNDA:1,_ZSt13__copy_move_aILb1EPPN7testing8TestCaseES3_ET1_T0_S5_S4_
FNDA:0,_ZSt13__copy_move_aILb1EPPN7testing11EnvironmentES3_ET1_T0_S5_S4_
FNDA:1,_ZSt13__copy_move_aILb1EPPN7testing8TestInfoES3_ET1_T0_S5_S4_
FNDA:1,_ZSt13__copy_move_aILb1EPPN7testing17TestEventListenerES3_ET1_T0_S5_S4_
FNDA:0,_ZSt14__copy_move_a2ILb1EPPcS1_ET1_T0_S3_S2_
FNDA:2,_ZSt14__copy_move_a2ILb1EPiS0_ET1_T0_S2_S1_
FNDA:1,_ZSt14__copy_move_a2ILb1EPPN7testing8TestCaseES3_ET1_T0_S5_S4_
FNDA:0,_ZSt14__copy_move_a2ILb1EPPN7testing11EnvironmentES3_ET1_T0_S5_S4_
FNDA:1,_ZSt14__copy_move_a2ILb1EPPN7testing17TestEventListenerES3_ET1_T0_S5_S4_
FNDA:1,_ZSt14__copy_move_a2ILb1EPPN7testing8TestInfoES3_ET1_T0_S5_S4_
FNDA:0,_ZSt14__copy_move_a2ILb1EN9__gnu_cxx17__normal_iteratorIPPN7testing17TestEventListenerESt6vectorIS4_SaIS4_EEEES9_ET1_T0_SB_SA_
FNDA:0,_ZSt4copyISt13move_iteratorIPPcES2_ET0_T_S5_S4_
FNDA:2,_ZSt4copyISt13move_iteratorIPiES1_ET0_T_S4_S3_
FNDA:1,_ZSt4copyISt13move_iteratorIPPN7testing8TestCaseEES4_ET0_T_S7_S6_
FNDA:0,_ZSt4copyISt13move_iteratorIPPN7testing11EnvironmentEES4_ET0_T_S7_S6_
FNDA:1,_ZSt4copyISt13move_iteratorIPPN7testing17TestEventListenerEES4_ET0_T_S7_S6_
FNDA:1,_ZSt4copyISt13move_iteratorIPPN7testing8TestInfoEES4_ET0_T_S7_S6_
FNDA:0,_ZSt4moveIN9__gnu_cxx17__normal_iteratorIPPN7testing17TestEventListenerESt6vectorIS4_SaIS4_EEEES9_ET0_T_SB_SA_
FNDA:0,_ZNSt20__copy_move_backwardILb1ELb1ESt26random_access_iterator_tagE13__copy_move_bIPcEEPT_PKS4_S7_S5_
FNDA:0,_ZNSt20__copy_move_backwardILb1ELb1ESt26random_access_iterator_tagE13__copy_move_bIPN7testing8TestCaseEEEPT_PKS6_S9_S7_
FNDA:0,_ZSt22__copy_move_backward_aILb1EPPcS1_ET1_T0_S3_S2_
FNDA:0,_ZSt22__copy_move_backward_aILb1EPPN7testing8TestCaseES3_ET1_T0_S5_S4_
FNDA:0,_ZSt23__copy_move_backward_a2ILb1EPPcS1_ET1_T0_S3_S2_
FNDA:0,_ZSt23__copy_move_backward_a2ILb1EPPN7testing8TestCaseES3_ET1_T0_S5_S4_
FNDA:0,_ZSt13move_backwardIPPcS1_ET0_T_S3_S2_
FNDA:0,_ZSt13move_backwardIPPN7testing8TestCaseES3_ET0_T_S5_S4_
FNF:52
FNH:25
DA:193,0
DA:198,0
DA:199,0
DA:200,0
DA:216,6
DA:221,6
DA:222,6
DA:223,0
DA:277,15
DA:278,15
DA:288,10
DA:289,10
DA:368,5
DA:370,5
DA:371,5
DA:372,0
DA:373,5
DA:379,5
DA:387,5
DA:390,5
DA:424,5
DA:428,5
DA:450,5
DA:460,5
DA:483,0
DA:492,0
DA:563,0
DA:565,0
DA:566,0
DA:567,0
DA:568,0
DA:574,0
DA:582,0
DA:587,0
DA:592,0
DA:596,0
DA:655,0
DA:667,0
LF:38
LH:18
end_of_record
SF:/usr/include/c++/4.8.2/bits/stl_construct.h
FN:74,_ZSt10_ConstructISsIRKPKcEEvPT_DpOT0_
FN:74,_ZSt10_ConstructISsIRKSsEEvPT_DpOT0_
FN:74,_ZSt10_ConstructIN7testing8internal9TraceInfoEIS2_EEvPT_DpOT0_
FN:74,_ZSt10_ConstructIN7testing8internal9TraceInfoEIRKS2_EEvPT_DpOT0_
FN:74,_ZSt10_ConstructIN7testing14TestPartResultEIS1_EEvPT_DpOT0_
FN:74,_ZSt10_ConstructISsISsEEvPT_DpOT0_
FN:74,_ZSt10_ConstructIN7testing12TestPropertyEIS1_EEvPT_DpOT0_
FN:92,_ZSt8_DestroyIN7testing8internal9TraceInfoEEvPT_
FN:92,_ZSt8_DestroyIN7testing14TestPartResultEEvPT_
FN:92,_ZSt8_DestroyIN7testing12TestPropertyEEvPT_
FN:92,_ZSt8_DestroyISsEvPT_
FN:100,_ZNSt12_Destroy_auxILb0EE9__destroyIPN7testing14TestPartResultEEEvT_S5_
FN:100,_ZNSt12_Destroy_auxILb0EE9__destroyIPSsEEvT_S3_
FN:100,_ZNSt12_Destroy_auxILb0EE9__destroyIPN7testing8internal9TraceInfoEEEvT_S6_
FN:100,_ZNSt12_Destroy_auxILb0EE9__destroyIPN7testing12TestPropertyEEEvT_S5_
FN:112,_ZNSt12_Destroy_auxILb1EE9__destroyIPPN7testing8TestInfoEEEvT_S6_
FN:112,_ZNSt12_Destroy_auxILb1EE9__destroyIPiEEvT_S3_
FN:112,_ZNSt12_Destroy_auxILb1EE9__destroyIPPN7testing8internal29ParameterizedTestCaseInfoBaseEEEvT_S7_
FN:112,_ZNSt12_Destroy_auxILb1EE9__destroyIPPN7testing17TestEventListenerEEEvT_S6_
FN:112,_ZNSt12_Destroy_auxILb1EE9__destroyIPPN7testing11EnvironmentEEEvT_S6_
FN:112,_ZNSt12_Destroy_auxILb1EE9__destroyIPPN7testing8TestCaseEEEvT_S6_
FN:112,_ZNSt12_Destroy_auxILb1EE9__destroyIPPcEEvT_S4_
FN:122,_ZSt8_DestroyIPPN7testing17TestEventListenerEEvT_S4_
FN:122,_ZSt8_DestroyIPiEvT_S1_
FN:122,_ZSt8_DestroyIPN7testing8internal9TraceInfoEEvT_S4_
FN:122,_ZSt8_DestroyIPPN7testing8TestCaseEEvT_S4_
FN:122,_ZSt8_DestroyIPN7testing14TestPartResultEEvT_S3_
FN:122,_ZSt8_DestroyIPSsEvT_S1_
FN:122,_ZSt8_DestroyIPPcEvT_S2_
FN:122,_ZSt8_DestroyIPN7testing12TestPropertyEEvT_S3_
FN:122,_ZSt8_DestroyIPPN7testing11EnvironmentEEvT_S4_
FN:122,_ZSt8_DestroyIPPN7testing8TestInfoEEvT_S4_
FN:122,_ZSt8_DestroyIPPN7testing8internal29ParameterizedTestCaseInfoBaseEEvT_S5_
FN:148,_ZSt8_DestroyIPPN7testing8TestCaseES2_EvT_S4_RSaIT0_E
FN:148,_ZSt8_DestroyIPiiEvT_S1_RSaIT0_E
FN:148,_ZSt8_DestroyIPPN7testing11EnvironmentES2_EvT_S4_RSaIT0_E
FN:148,_ZSt8_DestroyIPN7testing14TestPartResultES1_EvT_S3_RSaIT0_E
FN:148,_ZSt8_DestroyIPSsSsEvT_S1_RSaIT0_E
FN:148,_ZSt8_DestroyIPPN7testing17TestEventListenerES2_EvT_S4_RSaIT0_E
FN:148,_ZSt8_DestroyIPPN7testing8TestInfoES2_EvT_S4_RSaIT0_E
FN:148,_ZSt8_DestroyIPN7testing12TestPropertyES1_EvT_S3_RSaIT0_E
FN:148,_ZSt8_DestroyIPPcS0_EvT_S2_RSaIT0_E
FN:148,_ZSt8_DestroyIPN7testing8internal9TraceInfoES2_EvT_S4_RSaIT0_E
FN:148,_ZSt8_DestroyIPPN7testing8internal29ParameterizedTestCaseInfoBaseES3_EvT_S5_RSaIT0_E
FNDA:0,_ZSt10_ConstructISsISsEEvPT_DpOT0_
FNDA:0,_ZSt10_ConstructISsIRKPKcEEvPT_DpOT0_
FNDA:0,_ZSt10_ConstructIN7testing8internal9TraceInfoEIRKS2_EEvPT_DpOT0_
FNDA:0,_ZSt10_ConstructIN7testing8internal9TraceInfoEIS2_EEvPT_DpOT0_
FNDA:0,_ZSt10_ConstructIN7testing12TestPropertyEIS1_EEvPT_DpOT0_
FNDA:0,_ZSt10_ConstructIN7testing14TestPartResultEIS1_EEvPT_DpOT0_
FNDA:0,_ZSt10_ConstructISsIRKSsEEvPT_DpOT0_
FNDA:0,_ZSt8_DestroyIN7testing8internal9TraceInfoEEvPT_
FNDA:1,_ZSt8_DestroyISsEvPT_
FNDA:0,_ZSt8_DestroyIN7testing12TestPropertyEEvPT_
FNDA:0,_ZSt8_DestroyIN7testing14TestPartResultEEvPT_
FNDA:1,_ZNSt12_Destroy_auxILb0EE9__destroyIPN7testing8internal9TraceInfoEEEvT_S6_
FNDA:3,_ZNSt12_Destroy_auxILb0EE9__destroyIPSsEEvT_S3_
FNDA:5,_ZNSt12_Destroy_auxILb0EE9__destroyIPN7testing12TestPropertyEEEvT_S5_
FNDA:5,_ZNSt12_Destroy_auxILb0EE9__destroyIPN7testing14TestPartResultEEEvT_S5_
FNDA:0,_ZNSt12_Destroy_auxILb1EE9__destroyIPPcEEvT_S4_
FNDA:2,_ZNSt12_Destroy_auxILb1EE9__destroyIPPN7testing8TestCaseEEEvT_S6_
FNDA:1,_ZNSt12_Destroy_auxILb1EE9__destroyIPPN7testing11EnvironmentEEEvT_S6_
FNDA:2,_ZNSt12_Destroy_auxILb1EE9__destroyIPPN7testing17TestEventListenerEEEvT_S6_
FNDA:4,_ZNSt12_Destroy_auxILb1EE9__destroyIPiEEvT_S3_
FNDA:2,_ZNSt12_Destroy_auxILb1EE9__destroyIPPN7testing8TestInfoEEEvT_S6_
FNDA:1,_ZNSt12_Destroy_auxILb1EE9__destroyIPPN7testing8internal29ParameterizedTestCaseInfoBaseEEEvT_S7_
FNDA:1,_ZSt8_DestroyIPN7testing8internal9TraceInfoEEvT_S4_
FNDA:0,_ZSt8_DestroyIPPcEvT_S2_
FNDA:2,_ZSt8_DestroyIPPN7testing8TestCaseEEvT_S4_
FNDA:1,_ZSt8_DestroyIPPN7testing11EnvironmentEEvT_S4_
FNDA:2,_ZSt8_DestroyIPPN7testing17TestEventListenerEEvT_S4_
FNDA:4,_ZSt8_DestroyIPiEvT_S1_
FNDA:2,_ZSt8_DestroyIPPN7testing8TestInfoEEvT_S4_
FNDA:3,_ZSt8_DestroyIPSsEvT_S1_
FNDA:5,_ZSt8_DestroyIPN7testing12TestPropertyEEvT_S3_
FNDA:5,_ZSt8_DestroyIPN7testing14TestPartResultEEvT_S3_
FNDA:1,_ZSt8_DestroyIPPN7testing8internal29ParameterizedTestCaseInfoBaseEEvT_S5_
FNDA:1,_ZSt8_DestroyIPN7testing8internal9TraceInfoES2_EvT_S4_RSaIT0_E
FNDA:0,_ZSt8_DestroyIPPcS0_EvT_S2_RSaIT0_E
FNDA:2,_ZSt8_DestroyIPPN7testing8TestCaseES2_EvT_S4_RSaIT0_E
FNDA:1,_ZSt8_DestroyIPPN7testing11EnvironmentES2_EvT_S4_RSaIT0_E
FNDA:2,_ZSt8_DestroyIPPN7testing17TestEventListenerES2_EvT_S4_RSaIT0_E
FNDA:4,_ZSt8_DestroyIPiiEvT_S1_RSaIT0_E
FNDA:2,_ZSt8_DestroyIPPN7testing8TestInfoES2_EvT_S4_RSaIT0_E
FNDA:3,_ZSt8_DestroyIPSsSsEvT_S1_RSaIT0_E
FNDA:5,_ZSt8_DestroyIPN7testing12TestPropertyES1_EvT_S3_RSaIT0_E
FNDA:5,_ZSt8_DestroyIPN7testing14TestPartResultES1_EvT_S3_RSaIT0_E
FNDA:1,_ZSt8_DestroyIPPN7testing8internal29ParameterizedTestCaseInfoBaseES3_EvT_S5_RSaIT0_E
FNF:44
FNH:31
DA:74,0
DA:75,0
DA:92,1
DA:93,1
DA:100,14
DA:102,15
DA:103,1
DA:104,14
DA:112,12
DA:122,26
DA:126,26
DA:128,26
DA:148,26
DA:151,26
DA:152,26
LF:15
LH:13
end_of_record
SF:/usr/include/c++/4.8.2/bits/stl_function.h
FN:234,_ZNKSt4lessISsEclERKSsS2_
FN:481,_ZNKSt9_IdentityISsEclERKSs
FNDA:0,_ZNKSt4lessISsEclERKSsS2_
FNDA:0,_ZNKSt9_IdentityISsEclERKSs
FNF:2
FNH:0
DA:234,0
DA:235,0
DA:481,0
DA:482,0
LF:4
LH:0
end_of_record
SF:/usr/include/c++/4.8.2/bits/stl_iterator.h
FN:126,_ZNSt16reverse_iteratorIN9__gnu_cxx17__normal_iteratorIPPN7testing11EnvironmentESt6vectorIS4_SaIS4_EEEEEC2ES9_
FN:146,_ZNKSt16reverse_iteratorIN9__gnu_cxx17__normal_iteratorIPPN7testing11EnvironmentESt6vectorIS4_SaIS4_EEEEE4baseEv
FN:160,_ZNKSt16reverse_iteratorIN9__gnu_cxx17__normal_iteratorIPPN7testing11EnvironmentESt6vectorIS4_SaIS4_EEEEEdeEv
FN:181,_ZNSt16reverse_iteratorIN9__gnu_cxx17__normal_iteratorIPPN7testing11EnvironmentESt6vectorIS4_SaIS4_EEEEEppEv
FN:291,_ZSteqIN9__gnu_cxx17__normal_iteratorIPPN7testing11EnvironmentESt6vectorIS4_SaIS4_EEEEEbRKSt16reverse_iteratorIT_ESE_
FN:303,_ZStneIN9__gnu_cxx17__normal_iteratorIPPN7testing11EnvironmentESt6vectorIS4_SaIS4_EEEEEbRKSt16reverse_iteratorIT_ESE_
FN:726,_ZN9__gnu_cxx17__normal_iteratorIPKSsSt6vectorISsSaISsEEEC2ERKS2_
FN:726,_ZN9__gnu_cxx17__normal_iteratorIPPN7testing8internal29ParameterizedTestCaseInfoBaseESt6vectorIS4_SaIS4_EEEC2ERKS5_
FN:726,_ZN9__gnu_cxx17__normal_iteratorIPKN7testing8internal9TraceInfoESt6vectorIS3_SaIS3_EEEC2ERKS5_
FN:726,_ZN9__gnu_cxx17__normal_iteratorIPKPN7testing8TestCaseESt6vectorIS3_SaIS3_EEEC2ERKS5_
FN:726,_ZN9__gnu_cxx17__normal_iteratorIPKPN7testing17TestEventListenerESt6vectorIS3_SaIS3_EEEC2ERKS5_
FN:726,_ZN9__gnu_cxx17__normal_iteratorIPPcSt6vectorIS1_SaIS1_EEEC2ERKS2_
FN:726,_ZN9__gnu_cxx17__normal_iteratorIPPN7testing8TestCaseESt6vectorIS3_SaIS3_EEEC2ERKS4_
FN:726,_ZN9__gnu_cxx17__normal_iteratorIPKcSsEC2ERKS2_
FN:726,_ZN9__gnu_cxx17__normal_iteratorIPPN7testing17TestEventListenerESt6vectorIS3_SaIS3_EEEC2ERKS4_
FN:726,_ZN9__gnu_cxx17__normal_iteratorIPPN7testing11EnvironmentESt6vectorIS3_SaIS3_EEEC2ERKS4_
FN:726,_ZN9__gnu_cxx17__normal_iteratorIPN7testing12TestPropertyESt6vectorIS2_SaIS2_EEEC2ERKS3_
FN:726,_ZN9__gnu_cxx17__normal_iteratorIPKPN7testing11EnvironmentESt6vectorIS3_SaIS3_EEEC2ERKS5_
FN:726,_ZN9__gnu_cxx17__normal_iteratorIPKN7testing14TestPartResultESt6vectorIS2_SaIS2_EEEC2ERKS4_
FN:726,_ZN9__gnu_cxx17__normal_iteratorIPKPN7testing8TestInfoESt6vectorIS3_SaIS3_EEEC2ERKS5_
FN:730,_ZN9__gnu_cxx17__normal_iteratorIPKPN7testing8TestCaseESt6vectorIS3_SaIS3_EEEC2IPS3_EERKNS0_IT_NS_11__enable_ifIXsrSt10__are_sameISC_SB_E7__valueES8_E6__typeEEE
FN:738,_ZNK9__gnu_cxx17__normal_iteratorIPKPN7testing8TestInfoESt6vectorIS3_SaIS3_EEEdeEv
FN:738,_ZNK9__gnu_cxx17__normal_iteratorIPPN7testing8TestCaseESt6vectorIS3_SaIS3_EEEdeEv
FN:738,_ZNK9__gnu_cxx17__normal_iteratorIPPN7testing11EnvironmentESt6vectorIS3_SaIS3_EEEdeEv
FN:738,_ZNK9__gnu_cxx17__normal_iteratorIPKSsSt6vectorISsSaISsEEEdeEv
FN:738,_ZNK9__gnu_cxx17__normal_iteratorIPKN7testing8internal9TraceInfoESt6vectorIS3_SaIS3_EEEdeEv
FN:738,_ZNK9__gnu_cxx17__normal_iteratorIPKPN7testing8TestCaseESt6vectorIS3_SaIS3_EEEdeEv
FN:738,_ZNK9__gnu_cxx17__normal_iteratorIPKPN7testing11EnvironmentESt6vectorIS3_SaIS3_EEEdeEv
FN:738,_ZNK9__gnu_cxx17__normal_iteratorIPN7testing12TestPropertyESt6vectorIS2_SaIS2_EEEdeEv
FN:738,_ZNK9__gnu_cxx17__normal_iteratorIPKcSsEdeEv
FN:738,_ZNK9__gnu_cxx17__normal_iteratorIPKN7testing14TestPartResultESt6vectorIS2_SaIS2_EEEdeEv
FN:738,_ZNK9__gnu_cxx17__normal_iteratorIPKPN7testing17TestEventListenerESt6vectorIS3_SaIS3_EEEdeEv
FN:738,_ZNK9__gnu_cxx17__normal_iteratorIPPN7testing8internal29ParameterizedTestCaseInfoBaseESt6vectorIS4_SaIS4_EEEdeEv
FN:738,_ZNK9__gnu_cxx17__normal_iteratorIPPcSt6vectorIS1_SaIS1_EEEdeEv
FN:742,_ZNK9__gnu_cxx17__normal_iteratorIPKSsSt6vectorISsSaISsEEEptEv
FN:742,_ZNK9__gnu_cxx17__normal_iteratorIPN7testing12TestPropertyESt6vectorIS2_SaIS2_EEEptEv
FN:746,_ZN9__gnu_cxx17__normal_iteratorIPKN7testing8internal9TraceInfoESt6vectorIS3_SaIS3_EEEppEv
FN:746,_ZN9__gnu_cxx17__normal_iteratorIPPN7testing8TestCaseESt6vectorIS3_SaIS3_EEEppEv
FN:746,_ZN9__gnu_cxx17__normal_iteratorIPKcSsEppEv
FN:746,_ZN9__gnu_cxx17__normal_iteratorIPPN7testing8internal29ParameterizedTestCaseInfoBaseESt6vectorIS4_SaIS4_EEEppEv
FN:746,_ZN9__gnu_cxx17__normal_iteratorIPKSsSt6vectorISsSaISsEEEppEv
FN:746,_ZN9__gnu_cxx17__normal_iteratorIPKPN7testing17TestEventListenerESt6vectorIS3_SaIS3_EEEppEv
FN:746,_ZN9__gnu_cxx17__normal_iteratorIPKPN7testing11EnvironmentESt6vectorIS3_SaIS3_EEEppEv
FN:746,_ZN9__gnu_cxx17__normal_iteratorIPKPN7testing8TestInfoESt6vectorIS3_SaIS3_EEEppEv
FN:746,_ZN9__gnu_cxx17__normal_iteratorIPN7testing12TestPropertyESt6vectorIS2_SaIS2_EEEppEv
FN:746,_ZN9__gnu_cxx17__normal_iteratorIPKPN7testing8TestCaseESt6vectorIS3_SaIS3_EEEppEv
FN:746,_ZN9__gnu_cxx17__normal_iteratorIPPcSt6vectorIS1_SaIS1_EEEppEv
FN:746,_ZN9__gnu_cxx17__normal_iteratorIPKN7testing14TestPartResultESt6vectorIS2_SaIS2_EEEppEv
FN:758,_ZN9__gnu_cxx17__normal_iteratorIPPN7testing11EnvironmentESt6vectorIS3_SaIS3_EEEmmEv
FN:778,_ZNK9__gnu_cxx17__normal_iteratorIPPN7testing17TestEventListenerESt6vectorIS3_SaIS3_EEEplERKl
FN:778,_ZNK9__gnu_cxx17__normal_iteratorIPPN7testing8TestCaseESt6vectorIS3_SaIS3_EEEplERKl
FN:786,_ZNK9__gnu_cxx17__normal_iteratorIPPcSt6vectorIS1_SaIS1_EEEmiERKl
FN:790,_ZNK9__gnu_cxx17__normal_iteratorIPKN7testing14TestPartResultESt6vectorIS2_SaIS2_EEE4baseEv
FN:790,_ZNK9__gnu_cxx17__normal_iteratorIPKPN7testing11EnvironmentESt6vectorIS3_SaIS3_EEE4baseEv
FN:790,_ZNK9__gnu_cxx17__normal_iteratorIPKPN7testing17TestEventListenerESt6vectorIS3_SaIS3_EEE4baseEv
FN:790,_ZNK9__gnu_cxx17__normal_iteratorIPN7testing12TestPropertyESt6vectorIS2_SaIS2_EEE4baseEv
FN:790,_ZNK9__gnu_cxx17__normal_iteratorIPPN7testing17TestEventListenerESt6vectorIS3_SaIS3_EEE4baseEv
FN:790,_ZNK9__gnu_cxx17__normal_iteratorIPPN7testing8internal29ParameterizedTestCaseInfoBaseESt6vectorIS4_SaIS4_EEE4baseEv
FN:790,_ZNK9__gnu_cxx17__normal_iteratorIPKN7testing8internal9TraceInfoESt6vectorIS3_SaIS3_EEE4baseEv
FN:790,_ZNK9__gnu_cxx17__normal_iteratorIPKPN7testing8TestInfoESt6vectorIS3_SaIS3_EEE4baseEv
FN:790,_ZNK9__gnu_cxx17__normal_iteratorIPKPN7testing8TestCaseESt6vectorIS3_SaIS3_EEE4baseEv
FN:790,_ZNK9__gnu_cxx17__normal_iteratorIPKcSsE4baseEv
FN:790,_ZNK9__gnu_cxx17__normal_iteratorIPPN7testing11EnvironmentESt6vectorIS3_SaIS3_EEE4baseEv
FN:790,_ZNK9__gnu_cxx17__normal_iteratorIPPN7testing8TestCaseESt6vectorIS3_SaIS3_EEE4baseEv
FN:790,_ZNK9__gnu_cxx17__normal_iteratorIPKSsSt6vectorISsSaISsEEE4baseEv
FN:790,_ZNK9__gnu_cxx17__normal_iteratorIPPcSt6vectorIS1_SaIS1_EEE4baseEv
FN:811,_ZN9__gnu_cxxeqIPPN7testing11EnvironmentESt6vectorIS3_SaIS3_EEEEbRKNS_17__normal_iteratorIT_T0_EESD_
FN:811,_ZN9__gnu_cxxeqIPPcSt6vectorIS1_SaIS1_EEEEbRKNS_17__normal_iteratorIT_T0_EESB_
FN:811,_ZN9__gnu_cxxeqIPPN7testing8TestCaseESt6vectorIS3_SaIS3_EEEEbRKNS_17__normal_iteratorIT_T0_EESD_
FN:811,_ZN9__gnu_cxxeqIPN7testing12TestPropertyESt6vectorIS2_SaIS2_EEEEbRKNS_17__normal_iteratorIT_T0_EESC_
FN:817,_ZN9__gnu_cxxneIPKPN7testing8TestCaseEPS3_St6vectorIS3_SaIS3_EEEEbRKNS_17__normal_iteratorIT_T1_EERKNSA_IT0_SC_EE
FN:823,_ZN9__gnu_cxxneIPKN7testing14TestPartResultESt6vectorIS2_SaIS2_EEEEbRKNS_17__normal_iteratorIT_T0_EESD_
FN:823,_ZN9__gnu_cxxneIPKSsSt6vectorISsSaISsEEEEbRKNS_17__normal_iteratorIT_T0_EESB_
FN:823,_ZN9__gnu_cxxneIPKPN7testing8TestInfoESt6vectorIS3_SaIS3_EEEEbRKNS_17__normal_iteratorIT_T0_EESE_
FN:823,_ZN9__gnu_cxxneIPKN7testing8internal9TraceInfoESt6vectorIS3_SaIS3_EEEEbRKNS_17__normal_iteratorIT_T0_EESE_
FN:823,_ZN9__gnu_cxxneIPPN7testing17TestEventListenerESt6vectorIS3_SaIS3_EEEEbRKNS_17__normal_iteratorIT_T0_EESD_
FN:823,_ZN9__gnu_cxxneIPKPN7testing11EnvironmentESt6vectorIS3_SaIS3_EEEEbRKNS_17__normal_iteratorIT_T0_EESE_
FN:823,_ZN9__gnu_cxxneIPPcSt6vectorIS1_SaIS1_EEEEbRKNS_17__normal_iteratorIT_T0_EESB_
FN:823,_ZN9__gnu_cxxneIPKcSsEEbRKNS_17__normal_iteratorIT_T0_EES8_
FN:823,_ZN9__gnu_cxxneIPKPN7testing8TestCaseESt6vectorIS3_SaIS3_EEEEbRKNS_17__normal_iteratorIT_T0_EESE_
FN:823,_ZN9__gnu_cxxneIPKPN7testing17TestEventListenerESt6vectorIS3_SaIS3_EEEEbRKNS_17__normal_iteratorIT_T0_EESE_
FN:823,_ZN9__gnu_cxxneIPPN7testing8internal29ParameterizedTestCaseInfoBaseESt6vectorIS4_SaIS4_EEEEbRKNS_17__normal_iteratorIT_T0_EESE_
FN:896,_ZN9__gnu_cxxmiIPKSsSt6vectorISsSaISsEEEENS_17__normal_iteratorIT_T0_E15difference_typeERKS9_SC_
FN:896,_ZN9__gnu_cxxmiIPPcSt6vectorIS1_SaIS1_EEEENS_17__normal_iteratorIT_T0_E15difference_typeERKS9_SC_
FN:896,_ZN9__gnu_cxxmiIPPN7testing8TestCaseESt6vectorIS3_SaIS3_EEEENS_17__normal_iteratorIT_T0_E15difference_typeERKSB_SE_
FN:896,_ZN9__gnu_cxxmiIPN7testing12TestPropertyESt6vectorIS2_SaIS2_EEEENS_17__normal_iteratorIT_T0_E15difference_typeERKSA_SD_
FN:950,_ZNSt13move_iteratorIPN7testing12TestPropertyEEC2ES2_
FN:950,_ZNSt13move_iteratorIPN7testing14TestPartResultEEC2ES2_
FN:950,_ZNSt13move_iteratorIPSsEC2ES0_
FN:950,_ZNSt13move_iteratorIPPcEC2ES1_
FN:950,_ZNSt13move_iteratorIPPN7testing17TestEventListenerEEC2ES3_
FN:950,_ZNSt13move_iteratorIPiEC2ES0_
FN:950,_ZNSt13move_iteratorIPPN7testing8TestInfoEEC2ES3_
FN:950,_ZNSt13move_iteratorIPN7testing8internal9TraceInfoEEC2ES3_
FN:950,_ZNSt13move_iteratorIPPN7testing11EnvironmentEEC2ES3_
FN:950,_ZNSt13move_iteratorIPPN7testing8TestCaseEEC2ES3_
FN:958,_ZNKSt13move_iteratorIPiE4baseEv
FN:958,_ZNKSt13move_iteratorIPPcE4baseEv
FN:958,_ZNKSt13move_iteratorIPPN7testing8TestCaseEE4baseEv
FN:958,_ZNKSt13move_iteratorIPN7testing12TestPropertyEE4baseEv
FN:958,_ZNKSt13move_iteratorIPSsE4baseEv
FN:958,_ZNKSt13move_iteratorIPPN7testing17TestEventListenerEE4baseEv
FN:958,_ZNKSt13move_iteratorIPN7testing14TestPartResultEE4baseEv
FN:958,_ZNKSt13move_iteratorIPPN7testing8TestInfoEE4baseEv
FN:958,_ZNKSt13move_iteratorIPN7testing8internal9TraceInfoEE4baseEv
FN:958,_ZNKSt13move_iteratorIPPN7testing11EnvironmentEE4baseEv
FN:962,_ZNKSt13move_iteratorIPN7testing12TestPropertyEEdeEv
FN:962,_ZNKSt13move_iteratorIPSsEdeEv
FN:962,_ZNKSt13move_iteratorIPN7testing14TestPartResultEEdeEv
FN:962,_ZNKSt13move_iteratorIPN7testing8internal9TraceInfoEEdeEv
FN:970,_ZNSt13move_iteratorIPN7testing8internal9TraceInfoEEppEv
FN:970,_ZNSt13move_iteratorIPN7testing12TestPropertyEEppEv
FN:970,_ZNSt13move_iteratorIPSsEppEv
FN:970,_ZNSt13move_iteratorIPN7testing14TestPartResultEEppEv
FN:1037,_ZSteqIPN7testing12TestPropertyEEbRKSt13move_iteratorIT_ES7_
FN:1037,_ZSteqIPN7testing8internal9TraceInfoEEbRKSt13move_iteratorIT_ES8_
FN:1037,_ZSteqIPSsEbRKSt13move_iteratorIT_ES5_
FN:1037,_ZSteqIPN7testing14TestPartResultEEbRKSt13move_iteratorIT_ES7_
FN:1049,_ZStneIPN7testing12TestPropertyEEbRKSt13move_iteratorIT_ES7_
FN:1049,_ZStneIPSsEbRKSt13move_iteratorIT_ES5_
FN:1049,_ZStneIPN7testing8internal9TraceInfoEEbRKSt13move_iteratorIT_ES8_
FN:1049,_ZStneIPN7testing14TestPartResultEEbRKSt13move_iteratorIT_ES7_
FN:1132,_ZSt32__make_move_if_noexcept_iteratorIPPN7testing8TestInfoESt13move_iteratorIS3_EET0_T_
FN:1132,_ZSt32__make_move_if_noexcept_iteratorIPiSt13move_iteratorIS0_EET0_T_
FN:1132,_ZSt32__make_move_if_noexcept_iteratorIPN7testing12TestPropertyESt13move_iteratorIS2_EET0_T_
FN:1132,_ZSt32__make_move_if_noexcept_iteratorIPPN7testing11EnvironmentESt13move_iteratorIS3_EET0_T_
FN:1132,_ZSt32__make_move_if_noexcept_iteratorIPPN7testing8TestCaseESt13move_iteratorIS3_EET0_T_
FN:1132,_ZSt32__make_move_if_noexcept_iteratorIPN7testing14TestPartResultESt13move_iteratorIS2_EET0_T_
FN:1132,_ZSt32__make_move_if_noexcept_iteratorIPSsSt13move_iteratorIS0_EET0_T_
FN:1132,_ZSt32__make_move_if_noexcept_iteratorIPN7testing8internal9TraceInfoESt13move_iteratorIS3_EET0_T_
FN:1132,_ZSt32__make_move_if_noexcept_iteratorIPPcSt13move_iteratorIS1_EET0_T_
FN:1132,_ZSt32__make_move_if_noexcept_iteratorIPPN7testing17TestEventListenerESt13move_iteratorIS3_EET0_T_
FNDA:2,_ZNSt16reverse_iteratorIN9__gnu_cxx17__normal_iteratorIPPN7testing11EnvironmentESt6vectorIS4_SaIS4_EEEEEC2ES9_
FNDA:2,_ZNKSt16reverse_iteratorIN9__gnu_cxx17__normal_iteratorIPPN7testing11EnvironmentESt6vectorIS4_SaIS4_EEEEE4baseEv
FNDA:0,_ZNKSt16reverse_iteratorIN9__gnu_cxx17__normal_iteratorIPPN7testing11EnvironmentESt6vectorIS4_SaIS4_EEEEEdeEv
FNDA:0,_ZNSt16reverse_iteratorIN9__gnu_cxx17__normal_iteratorIPPN7testing11EnvironmentESt6vectorIS4_SaIS4_EEEEEppEv
FNDA:1,_ZSteqIN9__gnu_cxx17__normal_iteratorIPPN7testing11EnvironmentESt6vectorIS4_SaIS4_EEEEEbRKSt16reverse_iteratorIT_ESE_
FNDA:1,_ZStneIN9__gnu_cxx17__normal_iteratorIPPN7testing11EnvironmentESt6vectorIS4_SaIS4_EEEEEbRKSt16reverse_iteratorIT_ESE_
FNDA:0,_ZN9__gnu_cxx17__normal_iteratorIPKN7testing8internal9TraceInfoESt6vectorIS3_SaIS3_EEEC2ERKS5_
FNDA:2,_ZN9__gnu_cxx17__normal_iteratorIPPN7testing11EnvironmentESt6vectorIS3_SaIS3_EEEC2ERKS4_
FNDA:4,_ZN9__gnu_cxx17__normal_iteratorIPKPN7testing11EnvironmentESt6vectorIS3_SaIS3_EEEC2ERKS5_
FNDA:2,_ZN9__gnu_cxx17__normal_iteratorIPKPN7testing17TestEventListenerESt6vectorIS3_SaIS3_EEEC2ERKS5_
FNDA:31,_ZN9__gnu_cxx17__normal_iteratorIPKPN7testing8TestInfoESt6vectorIS3_SaIS3_EEEC2ERKS5_
FNDA:6,_ZN9__gnu_cxx17__normal_iteratorIPKN7testing14TestPartResultESt6vectorIS2_SaIS2_EEEC2ERKS4_
FNDA:16,_ZN9__gnu_cxx17__normal_iteratorIPKPN7testing8TestCaseESt6vectorIS3_SaIS3_EEEC2ERKS5_
FNDA:0,_ZN9__gnu_cxx17__normal_iteratorIPPcSt6vectorIS1_SaIS1_EEEC2ERKS2_
FNDA:3,_ZN9__gnu_cxx17__normal_iteratorIPPN7testing8TestCaseESt6vectorIS3_SaIS3_EEEC2ERKS4_
FNDA:0,_ZN9__gnu_cxx17__normal_iteratorIPKcSsEC2ERKS2_
FNDA:0,_ZN9__gnu_cxx17__normal_iteratorIPPN7testing17TestEventListenerESt6vectorIS3_SaIS3_EEEC2ERKS4_
FNDA:0,_ZN9__gnu_cxx17__normal_iteratorIPKSsSt6vectorISsSaISsEEEC2ERKS2_
FNDA:0,_ZN9__gnu_cxx17__normal_iteratorIPN7testing12TestPropertyESt6vectorIS2_SaIS2_EEEC2ERKS3_
FNDA:4,_ZN9__gnu_cxx17__normal_iteratorIPPN7testing8internal29ParameterizedTestCaseInfoBaseESt6vectorIS4_SaIS4_EEEC2ERKS5_
FNDA:1,_ZN9__gnu_cxx17__normal_iteratorIPKPN7testing8TestCaseESt6vectorIS3_SaIS3_EEEC2IPS3_EERKNS0_IT_NS_11__enable_ifIXsrSt10__are_sameISC_SB_E7__valueES8_E6__typeEEE
FNDA:0,_ZNK9__gnu_cxx17__normal_iteratorIPKN7testing8internal9TraceInfoESt6vectorIS3_SaIS3_EEEdeEv
FNDA:0,_ZNK9__gnu_cxx17__normal_iteratorIPPN7testing11EnvironmentESt6vectorIS3_SaIS3_EEEdeEv
FNDA:0,_ZNK9__gnu_cxx17__normal_iteratorIPPN7testing8TestCaseESt6vectorIS3_SaIS3_EEEdeEv
FNDA:0,_ZNK9__gnu_cxx17__normal_iteratorIPKPN7testing11EnvironmentESt6vectorIS3_SaIS3_EEEdeEv
FNDA:1,_ZNK9__gnu_cxx17__normal_iteratorIPKPN7testing17TestEventListenerESt6vectorIS3_SaIS3_EEEdeEv
FNDA:0,_ZNK9__gnu_cxx17__normal_iteratorIPKSsSt6vectorISsSaISsEEEdeEv
FNDA:0,_ZNK9__gnu_cxx17__normal_iteratorIPN7testing12TestPropertyESt6vectorIS2_SaIS2_EEEdeEv
FNDA:11,_ZNK9__gnu_cxx17__normal_iteratorIPKPN7testing8TestInfoESt6vectorIS3_SaIS3_EEEdeEv
FNDA:0,_ZNK9__gnu_cxx17__normal_iteratorIPKN7testing14TestPartResultESt6vectorIS2_SaIS2_EEEdeEv
FNDA:0,_ZNK9__gnu_cxx17__normal_iteratorIPPcSt6vectorIS1_SaIS1_EEEdeEv
FNDA:6,_ZNK9__gnu_cxx17__normal_iteratorIPKPN7testing8TestCaseESt6vectorIS3_SaIS3_EEEdeEv
FNDA:0,_ZNK9__gnu_cxx17__normal_iteratorIPKcSsEdeEv
FNDA:0,_ZNK9__gnu_cxx17__normal_iteratorIPPN7testing8internal29ParameterizedTestCaseInfoBaseESt6vectorIS4_SaIS4_EEEdeEv
FNDA:0,_ZNK9__gnu_cxx17__normal_iteratorIPKSsSt6vectorISsSaISsEEEptEv
FNDA:0,_ZNK9__gnu_cxx17__normal_iteratorIPN7testing12TestPropertyESt6vectorIS2_SaIS2_EEEptEv
FNDA:0,_ZN9__gnu_cxx17__normal_iteratorIPKN7testing8internal9TraceInfoESt6vectorIS3_SaIS3_EEEppEv
FNDA:0,_ZN9__gnu_cxx17__normal_iteratorIPPN7testing8TestCaseESt6vectorIS3_SaIS3_EEEppEv
FNDA:0,_ZN9__gnu_cxx17__normal_iteratorIPKPN7testing11EnvironmentESt6vectorIS3_SaIS3_EEEppEv
FNDA:1,_ZN9__gnu_cxx17__normal_iteratorIPKPN7testing17TestEventListenerESt6vectorIS3_SaIS3_EEEppEv
FNDA:0,_ZN9__gnu_cxx17__normal_iteratorIPN7testing12TestPropertyESt6vectorIS2_SaIS2_EEEppEv
FNDA:0,_ZN9__gnu_cxx17__normal_iteratorIPKSsSt6vectorISsSaISsEEEppEv
FNDA:11,_ZN9__gnu_cxx17__normal_iteratorIPKPN7testing8TestInfoESt6vectorIS3_SaIS3_EEEppEv
FNDA:0,_ZN9__gnu_cxx17__normal_iteratorIPKN7testing14TestPartResultESt6vectorIS2_SaIS2_EEEppEv
FNDA:6,_ZN9__gnu_cxx17__normal_iteratorIPKPN7testing8TestCaseESt6vectorIS3_SaIS3_EEEppEv
FNDA:0,_ZN9__gnu_cxx17__normal_iteratorIPPcSt6vectorIS1_SaIS1_EEEppEv
FNDA:0,_ZN9__gnu_cxx17__normal_iteratorIPKcSsEppEv
FNDA:0,_ZN9__gnu_cxx17__normal_iteratorIPPN7testing8internal29ParameterizedTestCaseInfoBaseESt6vectorIS4_SaIS4_EEEppEv
FNDA:0,_ZN9__gnu_cxx17__normal_iteratorIPPN7testing11EnvironmentESt6vectorIS3_SaIS3_EEEmmEv
FNDA:0,_ZNK9__gnu_cxx17__normal_iteratorIPPN7testing8TestCaseESt6vectorIS3_SaIS3_EEEplERKl
FNDA:0,_ZNK9__gnu_cxx17__normal_iteratorIPPN7testing17TestEventListenerESt6vectorIS3_SaIS3_EEEplERKl
FNDA:0,_ZNK9__gnu_cxx17__normal_iteratorIPPcSt6vectorIS1_SaIS1_EEEmiERKl
FNDA:0,_ZNK9__gnu_cxx17__normal_iteratorIPKN7testing8internal9TraceInfoESt6vectorIS3_SaIS3_EEE4baseEv
FNDA:2,_ZNK9__gnu_cxx17__normal_iteratorIPPN7testing11EnvironmentESt6vectorIS3_SaIS3_EEE4baseEv
FNDA:4,_ZNK9__gnu_cxx17__normal_iteratorIPKPN7testing11EnvironmentESt6vectorIS3_SaIS3_EEE4baseEv
FNDA:4,_ZNK9__gnu_cxx17__normal_iteratorIPKPN7testing17TestEventListenerESt6vectorIS3_SaIS3_EEE4baseEv
FNDA:0,_ZNK9__gnu_cxx17__normal_iteratorIPPN7testing17TestEventListenerESt6vectorIS3_SaIS3_EEE4baseEv
FNDA:44,_ZNK9__gnu_cxx17__normal_iteratorIPKPN7testing8TestInfoESt6vectorIS3_SaIS3_EEE4baseEv
FNDA:6,_ZNK9__gnu_cxx17__normal_iteratorIPKN7testing14TestPartResultESt6vectorIS2_SaIS2_EEE4baseEv
FNDA:0,_ZNK9__gnu_cxx17__normal_iteratorIPPcSt6vectorIS1_SaIS1_EEE4baseEv
FNDA:25,_ZNK9__gnu_cxx17__normal_iteratorIPKPN7testing8TestCaseESt6vectorIS3_SaIS3_EEE4baseEv
FNDA:6,_ZNK9__gnu_cxx17__normal_iteratorIPPN7testing8TestCaseESt6vectorIS3_SaIS3_EEE4baseEv
FNDA:0,_ZNK9__gnu_cxx17__normal_iteratorIPKcSsE4baseEv
FNDA:0,_ZNK9__gnu_cxx17__normal_iteratorIPKSsSt6vectorISsSaISsEEE4baseEv
FNDA:0,_ZNK9__gnu_cxx17__normal_iteratorIPN7testing12TestPropertyESt6vectorIS2_SaIS2_EEE4baseEv
FNDA:4,_ZNK9__gnu_cxx17__normal_iteratorIPPN7testing8internal29ParameterizedTestCaseInfoBaseESt6vectorIS4_SaIS4_EEE4baseEv
FNDA:1,_ZN9__gnu_cxxeqIPPN7testing11EnvironmentESt6vectorIS3_SaIS3_EEEEbRKNS_17__normal_iteratorIT_T0_EESD_
FNDA:0,_ZN9__gnu_cxxeqIPPcSt6vectorIS1_SaIS1_EEEEbRKNS_17__normal_iteratorIT_T0_EESB_
FNDA:0,_ZN9__gnu_cxxeqIPPN7testing8TestCaseESt6vectorIS3_SaIS3_EEEEbRKNS_17__normal_iteratorIT_T0_EESD_
FNDA:0,_ZN9__gnu_cxxeqIPN7testing12TestPropertyESt6vectorIS2_SaIS2_EEEEbRKNS_17__normal_iteratorIT_T0_EESC_
FNDA:1,_ZN9__gnu_cxxneIPKPN7testing8TestCaseEPS3_St6vectorIS3_SaIS3_EEEEbRKNS_17__normal_iteratorIT_T1_EERKNSA_IT0_SC_EE
FNDA:0,_ZN9__gnu_cxxneIPKN7testing8internal9TraceInfoESt6vectorIS3_SaIS3_EEEEbRKNS_17__normal_iteratorIT_T0_EESE_
FNDA:2,_ZN9__gnu_cxxneIPKPN7testing11EnvironmentESt6vectorIS3_SaIS3_EEEEbRKNS_17__normal_iteratorIT_T0_EESE_
FNDA:2,_ZN9__gnu_cxxneIPKPN7testing17TestEventListenerESt6vectorIS3_SaIS3_EEEEbRKNS_17__normal_iteratorIT_T0_EESE_
FNDA:0,_ZN9__gnu_cxxneIPPN7testing17TestEventListenerESt6vectorIS3_SaIS3_EEEEbRKNS_17__normal_iteratorIT_T0_EESD_
FNDA:22,_ZN9__gnu_cxxneIPKPN7testing8TestInfoESt6vectorIS3_SaIS3_EEEEbRKNS_17__normal_iteratorIT_T0_EESE_
FNDA:3,_ZN9__gnu_cxxneIPKN7testing14TestPartResultESt6vectorIS2_SaIS2_EEEEbRKNS_17__normal_iteratorIT_T0_EESD_
FNDA:12,_ZN9__gnu_cxxneIPKPN7testing8TestCaseESt6vectorIS3_SaIS3_EEEEbRKNS_17__normal_iteratorIT_T0_EESE_
FNDA:0,_ZN9__gnu_cxxneIPPcSt6vectorIS1_SaIS1_EEEEbRKNS_17__normal_iteratorIT_T0_EESB_
FNDA:0,_ZN9__gnu_cxxneIPKcSsEEbRKNS_17__normal_iteratorIT_T0_EES8_
FNDA:0,_ZN9__gnu_cxxneIPKSsSt6vectorISsSaISsEEEEbRKNS_17__normal_iteratorIT_T0_EESB_
FNDA:2,_ZN9__gnu_cxxneIPPN7testing8internal29ParameterizedTestCaseInfoBaseESt6vectorIS4_SaIS4_EEEEbRKNS_17__normal_iteratorIT_T0_EESE_
FNDA:0,_ZN9__gnu_cxxmiIPPcSt6vectorIS1_SaIS1_EEEENS_17__normal_iteratorIT_T0_E15difference_typeERKS9_SC_
FNDA:0,_ZN9__gnu_cxxmiIPKSsSt6vectorISsSaISsEEEENS_17__normal_iteratorIT_T0_E15difference_typeERKS9_SC_
FNDA:0,_ZN9__gnu_cxxmiIPN7testing12TestPropertyESt6vectorIS2_SaIS2_EEEENS_17__normal_iteratorIT_T0_E15difference_typeERKSA_SD_
FNDA:2,_ZN9__gnu_cxxmiIPPN7testing8TestCaseESt6vectorIS3_SaIS3_EEEENS_17__normal_iteratorIT_T0_E15difference_typeERKSB_SE_
FNDA:2,_ZNSt13move_iteratorIPSsEC2ES0_
FNDA:0,_ZNSt13move_iteratorIPPcEC2ES1_
FNDA:4,_ZNSt13move_iteratorIPiEC2ES0_
FNDA:2,_ZNSt13move_iteratorIPPN7testing8TestCaseEEC2ES3_
FNDA:0,_ZNSt13move_iteratorIPN7testing8internal9TraceInfoEEC2ES3_
FNDA:0,_ZNSt13move_iteratorIPPN7testing11EnvironmentEEC2ES3_
FNDA:2,_ZNSt13move_iteratorIPPN7testing17TestEventListenerEEC2ES3_
FNDA:2,_ZNSt13move_iteratorIPPN7testing8TestInfoEEC2ES3_
FNDA:0,_ZNSt13move_iteratorIPN7testing12TestPropertyEEC2ES2_
FNDA:0,_ZNSt13move_iteratorIPN7testing14TestPartResultEEC2ES2_
FNDA:0,_ZNKSt13move_iteratorIPPcE4baseEv
FNDA:4,_ZNKSt13move_iteratorIPiE4baseEv
FNDA:2,_ZNKSt13move_iteratorIPSsE4baseEv
FNDA:2,_ZNKSt13move_iteratorIPPN7testing8TestCaseEE4baseEv
FNDA:0,_ZNKSt13move_iteratorIPPN7testing11EnvironmentEE4baseEv
FNDA:2,_ZNKSt13move_iteratorIPPN7testing17TestEventListenerEE4baseEv
FNDA:2,_ZNKSt13move_iteratorIPPN7testing8TestInfoEE4baseEv
FNDA:0,_ZNKSt13move_iteratorIPN7testing8internal9TraceInfoEE4baseEv
FNDA:0,_ZNKSt13move_iteratorIPN7testing12TestPropertyEE4baseEv
FNDA:0,_ZNKSt13move_iteratorIPN7testing14TestPartResultEE4baseEv
FNDA:0,_ZNKSt13move_iteratorIPSsEdeEv
FNDA:0,_ZNKSt13move_iteratorIPN7testing8internal9TraceInfoEEdeEv
FNDA:0,_ZNKSt13move_iteratorIPN7testing12TestPropertyEEdeEv
FNDA:0,_ZNKSt13move_iteratorIPN7testing14TestPartResultEEdeEv
FNDA:0,_ZNSt13move_iteratorIPSsEppEv
FNDA:0,_ZNSt13move_iteratorIPN7testing8internal9TraceInfoEEppEv
FNDA:0,_ZNSt13move_iteratorIPN7testing12TestPropertyEEppEv
FNDA:0,_ZNSt13move_iteratorIPN7testing14TestPartResultEEppEv
FNDA:1,_ZSteqIPSsEbRKSt13move_iteratorIT_ES5_
FNDA:0,_ZSteqIPN7testing8internal9TraceInfoEEbRKSt13move_iteratorIT_ES8_
FNDA:0,_ZSteqIPN7testing12TestPropertyEEbRKSt13move_iteratorIT_ES7_
FNDA:0,_ZSteqIPN7testing14TestPartResultEEbRKSt13move_iteratorIT_ES7_
FNDA:1,_ZStneIPSsEbRKSt13move_iteratorIT_ES5_
FNDA:0,_ZStneIPN7testing8internal9TraceInfoEEbRKSt13move_iteratorIT_ES8_
FNDA:0,_ZStneIPN7testing12TestPropertyEEbRKSt13move_iteratorIT_ES7_
FNDA:0,_ZStneIPN7testing14TestPartResultEEbRKSt13move_iteratorIT_ES7_
FNDA:2,_ZSt32__make_move_if_noexcept_iteratorIPSsSt13move_iteratorIS0_EET0_T_
FNDA:0,_ZSt32__make_move_if_noexcept_iteratorIPPcSt13move_iteratorIS1_EET0_T_
FNDA:4,_ZSt32__make_move_if_noexcept_iteratorIPiSt13move_iteratorIS0_EET0_T_
FNDA:2,_ZSt32__make_move_if_noexcept_iteratorIPPN7testing8TestCaseESt13move_iteratorIS3_EET0_T_
FNDA:0,_ZSt32__make_move_if_noexcept_iteratorIPN7testing8internal9TraceInfoESt13move_iteratorIS3_EET0_T_
FNDA:0,_ZSt32__make_move_if_noexcept_iteratorIPPN7testing11EnvironmentESt13move_iteratorIS3_EET0_T_
FNDA:2,_ZSt32__make_move_if_noexcept_iteratorIPPN7testing17TestEventListenerESt13move_iteratorIS3_EET0_T_
FNDA:2,_ZSt32__make_move_if_noexcept_iteratorIPPN7testing8TestInfoESt13move_iteratorIS3_EET0_T_
FNDA:0,_ZSt32__make_move_if_noexcept_iteratorIPN7testing12TestPropertyESt13move_iteratorIS2_EET0_T_
FNDA:0,_ZSt32__make_move_if_noexcept_iteratorIPN7testing14TestPartResultESt13move_iteratorIS2_EET0_T_
FNF:132
FNH:53
DA:126,2
DA:146,2
DA:147,2
DA:160,0
DA:162,0
DA:163,0
DA:181,0
DA:183,0
DA:184,0
DA:291,1
DA:293,1
DA:303,1
DA:305,1
DA:726,68
DA:730,1
DA:734,1
DA:738,18
DA:739,18
DA:742,0
DA:743,0
DA:746,18
DA:748,18
DA:749,18
DA:758,0
DA:760,0
DA:761,0
DA:778,0
DA:779,0
DA:786,0
DA:787,0
DA:790,95
DA:791,95
DA:811,1
DA:813,1
DA:817,1
DA:819,1
DA:823,43
DA:825,43
DA:896,2
DA:898,2
DA:950,12
DA:951,12
DA:958,12
DA:959,12
DA:962,0
DA:963,0
DA:970,0
DA:972,0
DA:973,0
DA:1037,1
DA:1039,1
DA:1049,1
DA:1051,1
DA:1132,12
DA:1133,12
LF:55
LH:35
end_of_record
SF:/usr/include/c++/4.8.2/bits/stl_iterator_base_funcs.h
FN:90,_ZSt10__distanceIPcENSt15iterator_traitsIT_E15difference_typeES2_S2_St26random_access_iterator_tag
FN:90,_ZSt10__distanceIPKcENSt15iterator_traitsIT_E15difference_typeES3_S3_St26random_access_iterator_tag
FN:90,_ZSt10__distanceIPKPKcENSt15iterator_traitsIT_E15difference_typeES5_S5_St26random_access_iterator_tag
FN:114,_ZSt8distanceIPKcENSt15iterator_traitsIT_E15difference_typeES3_S3_
FN:114,_ZSt8distanceIPKPKcENSt15iterator_traitsIT_E15difference_typeES5_S5_
FN:114,_ZSt8distanceIPcENSt15iterator_traitsIT_E15difference_typeES2_S2_
FNDA:0,_ZSt10__distanceIPcENSt15iterator_traitsIT_E15difference_typeES2_S2_St26random_access_iterator_tag
FNDA:0,_ZSt10__distanceIPKPKcENSt15iterator_traitsIT_E15difference_typeES5_S5_St26random_access_iterator_tag
FNDA:12,_ZSt10__distanceIPKcENSt15iterator_traitsIT_E15difference_typeES3_S3_St26random_access_iterator_tag
FNDA:0,_ZSt8distanceIPcENSt15iterator_traitsIT_E15difference_typeES2_S2_
FNDA:0,_ZSt8distanceIPKPKcENSt15iterator_traitsIT_E15difference_typeES5_S5_
FNDA:12,_ZSt8distanceIPKcENSt15iterator_traitsIT_E15difference_typeES3_S3_
FNF:6
FNH:2
DA:90,12
DA:96,12
DA:114,12
DA:118,12
LF:4
LH:4
end_of_record
SF:/usr/include/c++/4.8.2/bits/stl_iterator_base_types.h
FN:118,_ZNSt8iteratorISt26random_access_iterator_tagPN7testing11EnvironmentElPS3_RS3_EC2Ev
FN:201,_ZSt19__iterator_categoryIPcENSt15iterator_traitsIT_E17iterator_categoryERKS2_
FN:201,_ZSt19__iterator_categoryIN9__gnu_cxx17__normal_iteratorIPKSsSt6vectorISsSaISsEEEEENSt15iterator_traitsIT_E17iterator_categoryERKS9_
FN:201,_ZSt19__iterator_categoryIN9__gnu_cxx17__normal_iteratorIPN7testing12TestPropertyESt6vectorIS3_SaIS3_EEEEENSt15iterator_traitsIT_E17iterator_categoryERKSA_
FN:201,_ZSt19__iterator_categoryIPKcENSt15iterator_traitsIT_E17iterator_categoryERKS3_
FN:201,_ZSt19__iterator_categoryIPKPKcENSt15iterator_traitsIT_E17iterator_categoryERKS5_
FN:201,_ZSt19__iterator_categoryIN9__gnu_cxx17__normal_iteratorIPPN7testing8TestCaseESt6vectorIS4_SaIS4_EEEEENSt15iterator_traitsIT_E17iterator_categoryERKSB_
FN:212,_ZNSt10_Iter_baseIPPcLb0EE7_S_baseES1_
FN:212,_ZNSt10_Iter_baseIPPN7testing11EnvironmentELb0EE7_S_baseES3_
FN:212,_ZNSt10_Iter_baseIPiLb0EE7_S_baseES0_
FN:212,_ZNSt10_Iter_baseIN9__gnu_cxx17__normal_iteratorIPPN7testing17TestEventListenerESt6vectorIS4_SaIS4_EEEELb0EE7_S_baseES9_
FN:212,_ZNSt10_Iter_baseIPPN7testing8TestCaseELb0EE7_S_baseES3_
FN:212,_ZNSt10_Iter_baseIPPN7testing8TestInfoELb0EE7_S_baseES3_
FN:212,_ZNSt10_Iter_baseIPPN7testing17TestEventListenerELb0EE7_S_baseES3_
FN:220,_ZNSt10_Iter_baseISt13move_iteratorIPPN7testing8TestInfoEELb1EE7_S_baseES5_
FN:220,_ZNSt10_Iter_baseISt13move_iteratorIPPN7testing11EnvironmentEELb1EE7_S_baseES5_
FN:220,_ZNSt10_Iter_baseIN9__gnu_cxx17__normal_iteratorIPPN7testing17TestEventListenerESt6vectorIS4_SaIS4_EEEELb1EE7_S_baseES9_
FN:220,_ZNSt10_Iter_baseISt13move_iteratorIPPN7testing17TestEventListenerEELb1EE7_S_baseES5_
FN:220,_ZNSt10_Iter_baseISt13move_iteratorIPPcELb1EE7_S_baseES3_
FN:220,_ZNSt10_Iter_baseISt13move_iteratorIPiELb1EE7_S_baseES2_
FN:220,_ZNSt10_Iter_baseISt13move_iteratorIPPN7testing8TestCaseEELb1EE7_S_baseES5_
FNDA:2,_ZNSt8iteratorISt26random_access_iterator_tagPN7testing11EnvironmentElPS3_RS3_EC2Ev
FNDA:0,_ZSt19__iterator_categoryIPcENSt15iterator_traitsIT_E17iterator_categoryERKS2_
FNDA:0,_ZSt19__iterator_categoryIPKPKcENSt15iterator_traitsIT_E17iterator_categoryERKS5_
FNDA:12,_ZSt19__iterator_categoryIPKcENSt15iterator_traitsIT_E17iterator_categoryERKS3_
FNDA:1,_ZSt19__iterator_categoryIN9__gnu_cxx17__normal_iteratorIPPN7testing8TestCaseESt6vectorIS4_SaIS4_EEEEENSt15iterator_traitsIT_E17iterator_categoryERKSB_
FNDA:0,_ZSt19__iterator_categoryIN9__gnu_cxx17__normal_iteratorIPKSsSt6vectorISsSaISsEEEEENSt15iterator_traitsIT_E17iterator_categoryERKS9_
FNDA:0,_ZSt19__iterator_categoryIN9__gnu_cxx17__normal_iteratorIPN7testing12TestPropertyESt6vectorIS3_SaIS3_EEEEENSt15iterator_traitsIT_E17iterator_categoryERKSA_
FNDA:6,_ZNSt10_Iter_baseIPiLb0EE7_S_baseES0_
FNDA:0,_ZNSt10_Iter_baseIPPN7testing11EnvironmentELb0EE7_S_baseES3_
FNDA:3,_ZNSt10_Iter_baseIPPN7testing17TestEventListenerELb0EE7_S_baseES3_
FNDA:3,_ZNSt10_Iter_baseIPPN7testing8TestInfoELb0EE7_S_baseES3_
FNDA:0,_ZNSt10_Iter_baseIPPcLb0EE7_S_baseES1_
FNDA:3,_ZNSt10_Iter_baseIPPN7testing8TestCaseELb0EE7_S_baseES3_
FNDA:0,_ZNSt10_Iter_baseIN9__gnu_cxx17__normal_iteratorIPPN7testing17TestEventListenerESt6vectorIS4_SaIS4_EEEELb0EE7_S_baseES9_
FNDA:0,_ZNSt10_Iter_baseISt13move_iteratorIPPcELb1EE7_S_baseES3_
FNDA:4,_ZNSt10_Iter_baseISt13move_iteratorIPiELb1EE7_S_baseES2_
FNDA:2,_ZNSt10_Iter_baseISt13move_iteratorIPPN7testing8TestCaseEELb1EE7_S_baseES5_
FNDA:0,_ZNSt10_Iter_baseISt13move_iteratorIPPN7testing11EnvironmentEELb1EE7_S_baseES5_
FNDA:2,_ZNSt10_Iter_baseISt13move_iteratorIPPN7testing17TestEventListenerEELb1EE7_S_baseES5_
FNDA:2,_ZNSt10_Iter_baseISt13move_iteratorIPPN7testing8TestInfoEELb1EE7_S_baseES5_
FNDA:0,_ZNSt10_Iter_baseIN9__gnu_cxx17__normal_iteratorIPPN7testing17TestEventListenerESt6vectorIS4_SaIS4_EEEELb1EE7_S_baseES9_
FNF:21
FNH:11
DA:118,2
DA:201,13
DA:202,13
DA:212,15
DA:213,15
DA:220,10
DA:221,10
LF:7
LH:7
end_of_record
SF:/usr/include/c++/4.8.2/bits/stl_pair.h
FN:133,_ZNSt4pairIPSt18_Rb_tree_node_baseS1_EC2IRS1_vEEOT_RKS1_
FN:144,_ZNSt4pairISt23_Rb_tree_const_iteratorISsEbEC2IRSt17_Rb_tree_iteratorISsERbvEEOT_OT0_
FN:144,_ZNSt4pairISt17_Rb_tree_iteratorISsEbEC2IS1_bvEEOT_OT0_
FN:144,_ZNSt4pairIPSt18_Rb_tree_node_baseS1_EC2IRPSt13_Rb_tree_nodeISsES7_vEEOT_OT0_
FNDA:0,_ZNSt4pairIPSt18_Rb_tree_node_baseS1_EC2IRS1_vEEOT_RKS1_
FNDA:0,_ZNSt4pairIPSt18_Rb_tree_node_baseS1_EC2IRPSt13_Rb_tree_nodeISsES7_vEEOT_OT0_
FNDA:0,_ZNSt4pairISt17_Rb_tree_iteratorISsEbEC2IS1_bvEEOT_OT0_
FNDA:0,_ZNSt4pairISt23_Rb_tree_const_iteratorISsEbEC2IRSt17_Rb_tree_iteratorISsERbvEEOT_OT0_
FNF:4
FNH:0
DA:133,0
DA:134,0
DA:144,0
DA:145,0
LF:4
LH:0
end_of_record
SF:/usr/include/c++/4.8.2/bits/stl_set.h
FN:90,_ZNSt3setISsSt4lessISsESaISsEED2Ev
FN:139,_ZNSt3setISsSt4lessISsESaISsEEC2Ev
FN:298,_ZNKSt3setIPKcSt4lessIS1_ESaIS1_EE5beginEv
FN:307,_ZNKSt3setIPKcSt4lessIS1_ESaIS1_EE3endEv
FN:460,_ZNSt3setISsSt4lessISsESaISsEE6insertERKSs
FN:644,_ZNKSt3setISsSt4lessISsESaISsEE5countERKSs
FNDA:0,_ZNSt3setISsSt4lessISsESaISsEED2Ev
FNDA:0,_ZNSt3setISsSt4lessISsESaISsEEC2Ev
FNDA:0,_ZNKSt3setIPKcSt4lessIS1_ESaIS1_EE5beginEv
FNDA:0,_ZNKSt3setIPKcSt4lessIS1_ESaIS1_EE3endEv
FNDA:0,_ZNSt3setISsSt4lessISsESaISsEE6insertERKSs
FNDA:0,_ZNKSt3setISsSt4lessISsESaISsEE5countERKSs
FNF:6
FNH:0
DA:90,0
DA:139,0
DA:140,0
DA:298,0
DA:299,0
DA:307,0
DA:308,0
DA:460,0
DA:463,0
DA:464,0
DA:644,0
DA:645,0
LF:12
LH:0
end_of_record
SF:/usr/include/c++/4.8.2/bits/stl_tree.h
FN:131,_ZNSt13_Rb_tree_nodeISsED2Ev
FN:138,_ZNSt13_Rb_tree_nodeISsEC2IIRKSsEEEDpOT_
FN:174,_ZNSt17_Rb_tree_iteratorISsEC2EPSt13_Rb_tree_nodeISsE
FN:202,_ZNSt17_Rb_tree_iteratorISsEmmEv
FN:217,_ZNKSt17_Rb_tree_iteratorISsEeqERKS0_
FN:247,_ZNSt23_Rb_tree_const_iteratorISsEC2EPKSt13_Rb_tree_nodeISsE
FN:247,_ZNSt23_Rb_tree_const_iteratorIPKcEC2EPKSt13_Rb_tree_nodeIS1_E
FN:250,_ZNSt23_Rb_tree_const_iteratorISsEC2ERKSt17_Rb_tree_iteratorISsE
FN:259,_ZNKSt23_Rb_tree_const_iteratorIPKcEdeEv
FN:268,_ZNSt23_Rb_tree_const_iteratorIPKcEppEv
FN:298,_ZNKSt23_Rb_tree_const_iteratorISsEeqERKS0_
FN:302,_ZNKSt23_Rb_tree_const_iteratorIPKcEneERKS2_
FN:356,_ZNSt8_Rb_treeISsSsSt9_IdentityISsESt4lessISsESaISsEE21_M_get_Node_allocatorEv
FN:369,_ZNSt8_Rb_treeISsSsSt9_IdentityISsESt4lessISsESaISsEE11_M_get_nodeEv
FN:373,_ZNSt8_Rb_treeISsSsSt9_IdentityISsESt4lessISsESaISsEE11_M_put_nodeEPSt13_Rb_tree_nodeISsE
FN:401,_ZNSt8_Rb_treeISsSsSt9_IdentityISsESt4lessISsESaISsEE14_M_create_nodeIIRKSsEEEPSt13_Rb_tree_nodeISsEDpOT_
FN:419,_ZNSt8_Rb_treeISsSsSt9_IdentityISsESt4lessISsESaISsEE15_M_destroy_nodeEPSt13_Rb_tree_nodeISsE
FN:439,_ZNSt8_Rb_treeISsSsSt9_IdentityISsESt4lessISsESaISsEE13_Rb_tree_implIS3_Lb1EED2Ev
FN:445,_ZNSt8_Rb_treeISsSsSt9_IdentityISsESt4lessISsESaISsEE13_Rb_tree_implIS3_Lb1EEC2Ev
FN:464,_ZNSt8_Rb_treeISsSsSt9_IdentityISsESt4lessISsESaISsEE13_Rb_tree_implIS3_Lb1EE13_M_initializeEv
FN:501,_ZNSt8_Rb_treeISsSsSt9_IdentityISsESt4lessISsESaISsEE8_M_beginEv
FN:505,_ZNKSt8_Rb_treeISsSsSt9_IdentityISsESt4lessISsESaISsEE8_M_beginEv
FN:512,_ZNSt8_Rb_treeISsSsSt9_IdentityISsESt4lessISsESaISsEE6_M_endEv
FN:516,_ZNKSt8_Rb_treeISsSsSt9_IdentityISsESt4lessISsESaISsEE6_M_endEv
FN:520,_ZNSt8_Rb_treeISsSsSt9_IdentityISsESt4lessISsESaISsEE8_S_valueEPKSt13_Rb_tree_nodeISsE
FN:524,_ZNSt8_Rb_treeISsSsSt9_IdentityISsESt4lessISsESaISsEE6_S_keyEPKSt13_Rb_tree_nodeISsE
FN:528,_ZNSt8_Rb_treeISsSsSt9_IdentityISsESt4lessISsESaISsEE7_S_leftEPSt18_Rb_tree_node_base
FN:532,_ZNSt8_Rb_treeISsSsSt9_IdentityISsESt4lessISsESaISsEE7_S_leftEPKSt18_Rb_tree_node_base
FN:536,_ZNSt8_Rb_treeISsSsSt9_IdentityISsESt4lessISsESaISsEE8_S_rightEPSt18_Rb_tree_node_base
FN:540,_ZNSt8_Rb_treeISsSsSt9_IdentityISsESt4lessISsESaISsEE8_S_rightEPKSt18_Rb_tree_node_base
FN:544,_ZNSt8_Rb_treeISsSsSt9_IdentityISsESt4lessISsESaISsEE8_S_valueEPKSt18_Rb_tree_node_base
FN:548,_ZNSt8_Rb_treeISsSsSt9_IdentityISsESt4lessISsESaISsEE6_S_keyEPKSt18_Rb_tree_node_base
FN:648,_ZNSt8_Rb_treeISsSsSt9_IdentityISsESt4lessISsESaISsEEC2Ev
FN:670,_ZNSt8_Rb_treeISsSsSt9_IdentityISsESt4lessISsESaISsEED2Ev
FN:682,_ZNSt8_Rb_treeISsSsSt9_IdentityISsESt4lessISsESaISsEE5beginEv
FN:689,_ZNKSt8_Rb_treeIPKcS1_St9_IdentityIS1_ESt4lessIS1_ESaIS1_EE5beginEv
FN:700,_ZNKSt8_Rb_treeIPKcS1_St9_IdentityIS1_ESt4lessIS1_ESaIS1_EE3endEv
FN:700,_ZNKSt8_Rb_treeISsSsSt9_IdentityISsESt4lessISsESaISsEE3endEv
FN:1012,_ZNSt8_Rb_treeISsSsSt9_IdentityISsESt4lessISsESaISsEE10_M_insert_IRKSsEESt17_Rb_tree_iteratorISsEPSt18_Rb_tree_node_baseSC_OT_
FN:1119,_ZNSt8_Rb_treeISsSsSt9_IdentityISsESt4lessISsESaISsEE8_M_eraseEPSt13_Rb_tree_nodeISsE
FN:1152,_ZNKSt8_Rb_treeISsSsSt9_IdentityISsESt4lessISsESaISsEE14_M_lower_boundEPKSt13_Rb_tree_nodeISsES9_RKSs
FN:1314,_ZNSt8_Rb_treeISsSsSt9_IdentityISsESt4lessISsESaISsEE24_M_get_insert_unique_posERKSs
FN:1368,_ZNSt8_Rb_treeISsSsSt9_IdentityISsESt4lessISsESaISsEE16_M_insert_uniqueIRKSsEESt4pairISt17_Rb_tree_iteratorISsEbEOT_
FN:1802,_ZNKSt8_Rb_treeISsSsSt9_IdentityISsESt4lessISsESaISsEE4findERKSs
FNDA:0,_ZNSt13_Rb_tree_nodeISsED2Ev
FNDA:0,_ZNSt13_Rb_tree_nodeISsEC2IIRKSsEEEDpOT_
FNDA:0,_ZNSt17_Rb_tree_iteratorISsEC2EPSt13_Rb_tree_nodeISsE
FNDA:0,_ZNSt17_Rb_tree_iteratorISsEmmEv
FNDA:0,_ZNKSt17_Rb_tree_iteratorISsEeqERKS0_
FNDA:0,_ZNSt23_Rb_tree_const_iteratorIPKcEC2EPKSt13_Rb_tree_nodeIS1_E
FNDA:0,_ZNSt23_Rb_tree_const_iteratorISsEC2EPKSt13_Rb_tree_nodeISsE
FNDA:0,_ZNSt23_Rb_tree_const_iteratorISsEC2ERKSt17_Rb_tree_iteratorISsE
FNDA:0,_ZNKSt23_Rb_tree_const_iteratorIPKcEdeEv
FNDA:0,_ZNSt23_Rb_tree_const_iteratorIPKcEppEv
FNDA:0,_ZNKSt23_Rb_tree_const_iteratorISsEeqERKS0_
FNDA:0,_ZNKSt23_Rb_tree_const_iteratorIPKcEneERKS2_
FNDA:0,_ZNSt8_Rb_treeISsSsSt9_IdentityISsESt4lessISsESaISsEE21_M_get_Node_allocatorEv
FNDA:0,_ZNSt8_Rb_treeISsSsSt9_IdentityISsESt4lessISsESaISsEE11_M_get_nodeEv
FNDA:0,_ZNSt8_Rb_treeISsSsSt9_IdentityISsESt4lessISsESaISsEE11_M_put_nodeEPSt13_Rb_tree_nodeISsE
FNDA:0,_ZNSt8_Rb_treeISsSsSt9_IdentityISsESt4lessISsESaISsEE14_M_create_nodeIIRKSsEEEPSt13_Rb_tree_nodeISsEDpOT_
FNDA:0,_ZNSt8_Rb_treeISsSsSt9_IdentityISsESt4lessISsESaISsEE15_M_destroy_nodeEPSt13_Rb_tree_nodeISsE
FNDA:0,_ZNSt8_Rb_treeISsSsSt9_IdentityISsESt4lessISsESaISsEE13_Rb_tree_implIS3_Lb1EED2Ev
FNDA:0,_ZNSt8_Rb_treeISsSsSt9_IdentityISsESt4lessISsESaISsEE13_Rb_tree_implIS3_Lb1EEC2Ev
FNDA:0,_ZNSt8_Rb_treeISsSsSt9_IdentityISsESt4lessISsESaISsEE13_Rb_tree_implIS3_Lb1EE13_M_initializeEv
FNDA:0,_ZNSt8_Rb_treeISsSsSt9_IdentityISsESt4lessISsESaISsEE8_M_beginEv
FNDA:0,_ZNKSt8_Rb_treeISsSsSt9_IdentityISsESt4lessISsESaISsEE8_M_beginEv
FNDA:0,_ZNSt8_Rb_treeISsSsSt9_IdentityISsESt4lessISsESaISsEE6_M_endEv
FNDA:0,_ZNKSt8_Rb_treeISsSsSt9_IdentityISsESt4lessISsESaISsEE6_M_endEv
FNDA:0,_ZNSt8_Rb_treeISsSsSt9_IdentityISsESt4lessISsESaISsEE8_S_valueEPKSt13_Rb_tree_nodeISsE
FNDA:0,_ZNSt8_Rb_treeISsSsSt9_IdentityISsESt4lessISsESaISsEE6_S_keyEPKSt13_Rb_tree_nodeISsE
FNDA:0,_ZNSt8_Rb_treeISsSsSt9_IdentityISsESt4lessISsESaISsEE7_S_leftEPSt18_Rb_tree_node_base
FNDA:0,_ZNSt8_Rb_treeISsSsSt9_IdentityISsESt4lessISsESaISsEE7_S_leftEPKSt18_Rb_tree_node_base
FNDA:0,_ZNSt8_Rb_treeISsSsSt9_IdentityISsESt4lessISsESaISsEE8_S_rightEPSt18_Rb_tree_node_base
FNDA:0,_ZNSt8_Rb_treeISsSsSt9_IdentityISsESt4lessISsESaISsEE8_S_rightEPKSt18_Rb_tree_node_base
FNDA:0,_ZNSt8_Rb_treeISsSsSt9_IdentityISsESt4lessISsESaISsEE8_S_valueEPKSt18_Rb_tree_node_base
FNDA:0,_ZNSt8_Rb_treeISsSsSt9_IdentityISsESt4lessISsESaISsEE6_S_keyEPKSt18_Rb_tree_node_base
FNDA:0,_ZNSt8_Rb_treeISsSsSt9_IdentityISsESt4lessISsESaISsEEC2Ev
FNDA:0,_ZNSt8_Rb_treeISsSsSt9_IdentityISsESt4lessISsESaISsEED2Ev
FNDA:0,_ZNSt8_Rb_treeISsSsSt9_IdentityISsESt4lessISsESaISsEE5beginEv
FNDA:0,_ZNKSt8_Rb_treeIPKcS1_St9_IdentityIS1_ESt4lessIS1_ESaIS1_EE5beginEv
FNDA:0,_ZNKSt8_Rb_treeIPKcS1_St9_IdentityIS1_ESt4lessIS1_ESaIS1_EE3endEv
FNDA:0,_ZNKSt8_Rb_treeISsSsSt9_IdentityISsESt4lessISsESaISsEE3endEv
FNDA:0,_ZNSt8_Rb_treeISsSsSt9_IdentityISsESt4lessISsESaISsEE10_M_insert_IRKSsEESt17_Rb_tree_iteratorISsEPSt18_Rb_tree_node_baseSC_OT_
FNDA:0,_ZNSt8_Rb_treeISsSsSt9_IdentityISsESt4lessISsESaISsEE8_M_eraseEPSt13_Rb_tree_nodeISsE
FNDA:0,_ZNKSt8_Rb_treeISsSsSt9_IdentityISsESt4lessISsESaISsEE14_M_lower_boundEPKSt13_Rb_tree_nodeISsES9_RKSs
FNDA:0,_ZNSt8_Rb_treeISsSsSt9_IdentityISsESt4lessISsESaISsEE24_M_get_insert_unique_posERKSs
FNDA:0,_ZNSt8_Rb_treeISsSsSt9_IdentityISsESt4lessISsESaISsEE16_M_insert_uniqueIRKSsEESt4pairISt17_Rb_tree_iteratorISsEbEOT_
FNDA:0,_ZNKSt8_Rb_treeISsSsSt9_IdentityISsESt4lessISsESaISsEE4findERKSs
FNF:44
FNH:0
DA:131,0
DA:138,0
DA:140,0
DA:174,0
DA:175,0
DA:202,0
DA:204,0
DA:205,0
DA:217,0
DA:218,0
DA:247,0
DA:248,0
DA:250,0
DA:251,0
DA:259,0
DA:260,0
DA:268,0
DA:270,0
DA:271,0
DA:298,0
DA:299,0
DA:302,0
DA:303,0
DA:356,0
DA:357,0
DA:369,0
DA:370,0
DA:373,0
DA:374,0
DA:401,0
DA:403,0
DA:406,0
DA:407,0
DA:408,0
DA:410,0
DA:412,0
DA:413,0
DA:415,0
DA:419,0
DA:421,0
DA:422,0
DA:423,0
DA:439,0
DA:445,0
DA:447,0
DA:448,0
DA:464,0
DA:466,0
DA:467,0
DA:468,0
DA:469,0
DA:470,0
DA:501,0
DA:502,0
DA:505,0
DA:508,0
DA:512,0
DA:513,0
DA:516,0
DA:517,0
DA:520,0
DA:521,0
DA:524,0
DA:525,0
DA:528,0
DA:529,0
DA:532,0
DA:533,0
DA:536,0
DA:537,0
DA:540,0
DA:541,0
DA:544,0
DA:545,0
DA:548,0
DA:549,0
DA:648,0
DA:670,0
DA:671,0
DA:682,0
DA:685,0
DA:689,0
DA:692,0
DA:700,0
DA:703,0
DA:1012,0
DA:1019,0
DA:1020,0
DA:1021,0
DA:1023,0
DA:1025,0
DA:1026,0
DA:1027,0
DA:1028,0
DA:1119,0
DA:1123,0
DA:1125,0
DA:1126,0
DA:1127,0
DA:1128,0
DA:1130,0
DA:1152,0
DA:1156,0
DA:1157,0
DA:1158,0
DA:1160,0
DA:1161,0
DA:1314,0
DA:1318,0
DA:1319,0
DA:1320,0
DA:1321,0
DA:1323,0
DA:1324,0
DA:1325,0
DA:1327,0
DA:1328,0
DA:1330,0
DA:1331,0
DA:1333,0
DA:1335,0
DA:1336,0
DA:1337,0
DA:1368,0
DA:1377,0
DA:1379,0
DA:1381,0
DA:1382,0
DA:1384,0
DA:1802,0
DA:1805,0
DA:1806,0
DA:1807,0
DA:1808,0
LF:134
LH:0
end_of_record
SF:/usr/include/c++/4.8.2/bits/stl_uninitialized.h
FN:68,_ZNSt20__uninitialized_copyILb0EE13__uninit_copyISt13move_iteratorIPN7testing8internal9TraceInfoEES6_EET0_T_S9_S8_
FN:68,_ZNSt20__uninitialized_copyILb0EE13__uninit_copyISt13move_iteratorIPSsES3_EET0_T_S6_S5_
FN:68,_ZNSt20__uninitialized_copyILb0EE13__uninit_copyISt13move_iteratorIPN7testing14TestPartResultEES5_EET0_T_S8_S7_
FN:68,_ZNSt20__uninitialized_copyILb0EE13__uninit_copyISt13move_iteratorIPN7testing12TestPropertyEES5_EET0_T_S8_S7_
FN:68,_ZNSt20__uninitialized_copyILb0EE13__uninit_copyIN9__gnu_cxx17__normal_iteratorIPKSsSt6vectorISsSaISsEEEEPSsEET0_T_SC_SB_
FN:68,_ZNSt20__uninitialized_copyILb0EE13__uninit_copyIPKPKcPSsEET0_T_S8_S7_
FN:68,_ZNSt20__uninitialized_copyILb0EE13__uninit_copyIN9__gnu_cxx17__normal_iteratorIPKN7testing8internal9TraceInfoESt6vectorIS6_SaIS6_EEEEPS6_EET0_T_SF_SE_
FN:91,_ZNSt20__uninitialized_copyILb1EE13__uninit_copyISt13move_iteratorIPPcES4_EET0_T_S7_S6_
FN:91,_ZNSt20__uninitialized_copyILb1EE13__uninit_copyISt13move_iteratorIPPN7testing8TestCaseEES6_EET0_T_S9_S8_
FN:91,_ZNSt20__uninitialized_copyILb1EE13__uninit_copyISt13move_iteratorIPiES3_EET0_T_S6_S5_
FN:91,_ZNSt20__uninitialized_copyILb1EE13__uninit_copyISt13move_iteratorIPPN7testing8TestInfoEES6_EET0_T_S9_S8_
FN:91,_ZNSt20__uninitialized_copyILb1EE13__uninit_copyISt13move_iteratorIPPN7testing17TestEventListenerEES6_EET0_T_S9_S8_
FN:91,_ZNSt20__uninitialized_copyILb1EE13__uninit_copyISt13move_iteratorIPPN7testing11EnvironmentEES6_EET0_T_S9_S8_
FN:107,_ZSt18uninitialized_copyIN9__gnu_cxx17__normal_iteratorIPKN7testing8internal9TraceInfoESt6vectorIS4_SaIS4_EEEEPS4_ET0_T_SD_SC_
FN:107,_ZSt18uninitialized_copyISt13move_iteratorIPPN7testing8TestInfoEES4_ET0_T_S7_S6_
FN:107,_ZSt18uninitialized_copyISt13move_iteratorIPN7testing14TestPartResultEES3_ET0_T_S6_S5_
FN:107,_ZSt18uninitialized_copyIN9__gnu_cxx17__normal_iteratorIPKSsSt6vectorISsSaISsEEEEPSsET0_T_SA_S9_
FN:107,_ZSt18uninitialized_copyISt13move_iteratorIPPN7testing17TestEventListenerEES4_ET0_T_S7_S6_
FN:107,_ZSt18uninitialized_copyISt13move_iteratorIPN7testing8internal9TraceInfoEES4_ET0_T_S7_S6_
FN:107,_ZSt18uninitialized_copyISt13move_iteratorIPPN7testing8TestCaseEES4_ET0_T_S7_S6_
FN:107,_ZSt18uninitialized_copyISt13move_iteratorIPiES1_ET0_T_S4_S3_
FN:107,_ZSt18uninitialized_copyISt13move_iteratorIPN7testing12TestPropertyEES3_ET0_T_S6_S5_
FN:107,_ZSt18uninitialized_copyISt13move_iteratorIPSsES1_ET0_T_S4_S3_
FN:107,_ZSt18uninitialized_copyISt13move_iteratorIPPN7testing11EnvironmentEES4_ET0_T_S7_S6_
FN:107,_ZSt18uninitialized_copyIPKPKcPSsET0_T_S6_S5_
FN:107,_ZSt18uninitialized_copyISt13move_iteratorIPPcES2_ET0_T_S5_S4_
FN:256,_ZSt22__uninitialized_copy_aIPKPKcPSsSsET0_T_S6_S5_RSaIT1_E
FN:256,_ZSt22__uninitialized_copy_aISt13move_iteratorIPPN7testing11EnvironmentEES4_S3_ET0_T_S7_S6_RSaIT1_E
FN:256,_ZSt22__uninitialized_copy_aISt13move_iteratorIPiES1_iET0_T_S4_S3_RSaIT1_E
FN:256,_ZSt22__uninitialized_copy_aIN9__gnu_cxx17__normal_iteratorIPKN7testing8internal9TraceInfoESt6vectorIS4_SaIS4_EEEEPS4_S4_ET0_T_SD_SC_RSaIT1_E
FN:256,_ZSt22__uninitialized_copy_aISt13move_iteratorIPPN7testing8TestInfoEES4_S3_ET0_T_S7_S6_RSaIT1_E
FN:256,_ZSt22__uninitialized_copy_aISt13move_iteratorIPN7testing8internal9TraceInfoEES4_S3_ET0_T_S7_S6_RSaIT1_E
FN:256,_ZSt22__uninitialized_copy_aISt13move_iteratorIPPcES2_S1_ET0_T_S5_S4_RSaIT1_E
FN:256,_ZSt22__uninitialized_copy_aISt13move_iteratorIPPN7testing8TestCaseEES4_S3_ET0_T_S7_S6_RSaIT1_E
FN:256,_ZSt22__uninitialized_copy_aISt13move_iteratorIPN7testing14TestPartResultEES3_S2_ET0_T_S6_S5_RSaIT1_E
FN:256,_ZSt22__uninitialized_copy_aIN9__gnu_cxx17__normal_iteratorIPKSsSt6vectorISsSaISsEEEEPSsSsET0_T_SA_S9_RSaIT1_E
FN:256,_ZSt22__uninitialized_copy_aISt13move_iteratorIPN7testing12TestPropertyEES3_S2_ET0_T_S6_S5_RSaIT1_E
FN:256,_ZSt22__uninitialized_copy_aISt13move_iteratorIPPN7testing17TestEventListenerEES4_S3_ET0_T_S7_S6_RSaIT1_E
FN:256,_ZSt22__uninitialized_copy_aISt13move_iteratorIPSsES1_SsET0_T_S4_S3_RSaIT1_E
FN:274,_ZSt34__uninitialized_move_if_noexcept_aIPN7testing8internal9TraceInfoES3_SaIS2_EET0_T_S6_S5_RT1_
FN:274,_ZSt34__uninitialized_move_if_noexcept_aIPPN7testing17TestEventListenerES3_SaIS2_EET0_T_S6_S5_RT1_
FN:274,_ZSt34__uninitialized_move_if_noexcept_aIPN7testing12TestPropertyES2_SaIS1_EET0_T_S5_S4_RT1_
FN:274,_ZSt34__uninitialized_move_if_noexcept_aIPiS0_SaIiEET0_T_S3_S2_RT1_
FN:274,_ZSt34__uninitialized_move_if_noexcept_aIPPN7testing11EnvironmentES3_SaIS2_EET0_T_S6_S5_RT1_
FN:274,_ZSt34__uninitialized_move_if_noexcept_aIPPcS1_SaIS0_EET0_T_S4_S3_RT1_
FN:274,_ZSt34__uninitialized_move_if_noexcept_aIPSsS0_SaISsEET0_T_S3_S2_RT1_
FN:274,_ZSt34__uninitialized_move_if_noexcept_aIPPN7testing8TestInfoES3_SaIS2_EET0_T_S6_S5_RT1_
FN:274,_ZSt34__uninitialized_move_if_noexcept_aIPPN7testing8TestCaseES3_SaIS2_EET0_T_S6_S5_RT1_
FN:274,_ZSt34__uninitialized_move_if_noexcept_aIPN7testing14TestPartResultES2_SaIS1_EET0_T_S5_S4_RT1_
FNDA:1,_ZNSt20__uninitialized_copyILb0EE13__uninit_copyISt13move_iteratorIPSsES3_EET0_T_S6_S5_
FNDA:0,_ZNSt20__uninitialized_copyILb0EE13__uninit_copyIPKPKcPSsEET0_T_S8_S7_
FNDA:0,_ZNSt20__uninitialized_copyILb0EE13__uninit_copyIN9__gnu_cxx17__normal_iteratorIPKN7testing8internal9TraceInfoESt6vectorIS6_SaIS6_EEEEPS6_EET0_T_SF_SE_
FNDA:0,_ZNSt20__uninitialized_copyILb0EE13__uninit_copyISt13move_iteratorIPN7testing8internal9TraceInfoEES6_EET0_T_S9_S8_
FNDA:0,_ZNSt20__uninitialized_copyILb0EE13__uninit_copyISt13move_iteratorIPN7testing12TestPropertyEES5_EET0_T_S8_S7_
FNDA:0,_ZNSt20__uninitialized_copyILb0EE13__uninit_copyISt13move_iteratorIPN7testing14TestPartResultEES5_EET0_T_S8_S7_
FNDA:0,_ZNSt20__uninitialized_copyILb0EE13__uninit_copyIN9__gnu_cxx17__normal_iteratorIPKSsSt6vectorISsSaISsEEEEPSsEET0_T_SC_SB_
FNDA:0,_ZNSt20__uninitialized_copyILb1EE13__uninit_copyISt13move_iteratorIPPcES4_EET0_T_S7_S6_
FNDA:2,_ZNSt20__uninitialized_copyILb1EE13__uninit_copyISt13move_iteratorIPiES3_EET0_T_S6_S5_
FNDA:1,_ZNSt20__uninitialized_copyILb1EE13__uninit_copyISt13move_iteratorIPPN7testing8TestCaseEES6_EET0_T_S9_S8_
FNDA:0,_ZNSt20__uninitialized_copyILb1EE13__uninit_copyISt13move_iteratorIPPN7testing11EnvironmentEES6_EET0_T_S9_S8_
FNDA:1,_ZNSt20__uninitialized_copyILb1EE13__uninit_copyISt13move_iteratorIPPN7testing17TestEventListenerEES6_EET0_T_S9_S8_
FNDA:1,_ZNSt20__uninitialized_copyILb1EE13__uninit_copyISt13move_iteratorIPPN7testing8TestInfoEES6_EET0_T_S9_S8_
FNDA:1,_ZSt18uninitialized_copyISt13move_iteratorIPSsES1_ET0_T_S4_S3_
FNDA:0,_ZSt18uninitialized_copyISt13move_iteratorIPPcES2_ET0_T_S5_S4_
FNDA:2,_ZSt18uninitialized_copyISt13move_iteratorIPiES1_ET0_T_S4_S3_
FNDA:0,_ZSt18uninitialized_copyIPKPKcPSsET0_T_S6_S5_
FNDA:0,_ZSt18uninitialized_copyIN9__gnu_cxx17__normal_iteratorIPKN7testing8internal9TraceInfoESt6vectorIS4_SaIS4_EEEEPS4_ET0_T_SD_SC_
FNDA:1,_ZSt18uninitialized_copyISt13move_iteratorIPPN7testing8TestCaseEES4_ET0_T_S7_S6_
FNDA:0,_ZSt18uninitialized_copyISt13move_iteratorIPN7testing8internal9TraceInfoEES4_ET0_T_S7_S6_
FNDA:0,_ZSt18uninitialized_copyISt13move_iteratorIPPN7testing11EnvironmentEES4_ET0_T_S7_S6_
FNDA:1,_ZSt18uninitialized_copyISt13move_iteratorIPPN7testing17TestEventListenerEES4_ET0_T_S7_S6_
FNDA:1,_ZSt18uninitialized_copyISt13move_iteratorIPPN7testing8TestInfoEES4_ET0_T_S7_S6_
FNDA:0,_ZSt18uninitialized_copyISt13move_iteratorIPN7testing12TestPropertyEES3_ET0_T_S6_S5_
FNDA:0,_ZSt18uninitialized_copyISt13move_iteratorIPN7testing14TestPartResultEES3_ET0_T_S6_S5_
FNDA:0,_ZSt18uninitialized_copyIN9__gnu_cxx17__normal_iteratorIPKSsSt6vectorISsSaISsEEEEPSsET0_T_SA_S9_
FNDA:1,_ZSt22__uninitialized_copy_aISt13move_iteratorIPSsES1_SsET0_T_S4_S3_RSaIT1_E
FNDA:0,_ZSt22__uninitialized_copy_aISt13move_iteratorIPPcES2_S1_ET0_T_S5_S4_RSaIT1_E
FNDA:2,_ZSt22__uninitialized_copy_aISt13move_iteratorIPiES1_iET0_T_S4_S3_RSaIT1_E
FNDA:0,_ZSt22__uninitialized_copy_aIPKPKcPSsSsET0_T_S6_S5_RSaIT1_E
FNDA:0,_ZSt22__uninitialized_copy_aIN9__gnu_cxx17__normal_iteratorIPKN7testing8internal9TraceInfoESt6vectorIS4_SaIS4_EEEEPS4_S4_ET0_T_SD_SC_RSaIT1_E
FNDA:1,_ZSt22__uninitialized_copy_aISt13move_iteratorIPPN7testing8TestCaseEES4_S3_ET0_T_S7_S6_RSaIT1_E
FNDA:0,_ZSt22__uninitialized_copy_aISt13move_iteratorIPN7testing8internal9TraceInfoEES4_S3_ET0_T_S7_S6_RSaIT1_E
FNDA:0,_ZSt22__uninitialized_copy_aISt13move_iteratorIPPN7testing11EnvironmentEES4_S3_ET0_T_S7_S6_RSaIT1_E
FNDA:1,_ZSt22__uninitialized_copy_aISt13move_iteratorIPPN7testing17TestEventListenerEES4_S3_ET0_T_S7_S6_RSaIT1_E
FNDA:1,_ZSt22__uninitialized_copy_aISt13move_iteratorIPPN7testing8TestInfoEES4_S3_ET0_T_S7_S6_RSaIT1_E
FNDA:0,_ZSt22__uninitialized_copy_aISt13move_iteratorIPN7testing12TestPropertyEES3_S2_ET0_T_S6_S5_RSaIT1_E
FNDA:0,_ZSt22__uninitialized_copy_aISt13move_iteratorIPN7testing14TestPartResultEES3_S2_ET0_T_S6_S5_RSaIT1_E
FNDA:0,_ZSt22__uninitialized_copy_aIN9__gnu_cxx17__normal_iteratorIPKSsSt6vectorISsSaISsEEEEPSsSsET0_T_SA_S9_RSaIT1_E
FNDA:1,_ZSt34__uninitialized_move_if_noexcept_aIPSsS0_SaISsEET0_T_S3_S2_RT1_
FNDA:0,_ZSt34__uninitialized_move_if_noexcept_aIPPcS1_SaIS0_EET0_T_S4_S3_RT1_
FNDA:2,_ZSt34__uninitialized_move_if_noexcept_aIPiS0_SaIiEET0_T_S3_S2_RT1_
FNDA:1,_ZSt34__uninitialized_move_if_noexcept_aIPPN7testing8TestCaseES3_SaIS2_EET0_T_S6_S5_RT1_
FNDA:0,_ZSt34__uninitialized_move_if_noexcept_aIPN7testing8internal9TraceInfoES3_SaIS2_EET0_T_S6_S5_RT1_
FNDA:0,_ZSt34__uninitialized_move_if_noexcept_aIPPN7testing11EnvironmentES3_SaIS2_EET0_T_S6_S5_RT1_
FNDA:1,_ZSt34__uninitialized_move_if_noexcept_aIPPN7testing17TestEventListenerES3_SaIS2_EET0_T_S6_S5_RT1_
FNDA:1,_ZSt34__uninitialized_move_if_noexcept_aIPPN7testing8TestInfoES3_SaIS2_EET0_T_S6_S5_RT1_
FNDA:0,_ZSt34__uninitialized_move_if_noexcept_aIPN7testing12TestPropertyES2_SaIS1_EET0_T_S5_S4_RT1_
FNDA:0,_ZSt34__uninitialized_move_if_noexcept_aIPN7testing14TestPartResultES2_SaIS1_EET0_T_S5_S4_RT1_
FNF:49
FNH:20
DA:68,1
DA:71,1
DA:74,1
DA:75,0
DA:76,1
DA:78,0
DA:80,0
DA:81,0
DA:91,5
DA:93,5
DA:107,6
DA:117,6
DA:256,6
DA:258,6
DA:274,6
DA:281,6
LF:16
LH:12
end_of_record
SF:/usr/include/c++/4.8.2/bits/stl_vector.h
FN:79,_ZNSt12_Vector_baseIPN7testing8internal29ParameterizedTestCaseInfoBaseESaIS3_EE12_Vector_implD2Ev
FN:79,_ZNSt12_Vector_baseIPN7testing11EnvironmentESaIS2_EE12_Vector_implD2Ev
FN:79,_ZNSt12_Vector_baseISsSaISsEE12_Vector_implD2Ev
FN:79,_ZNSt12_Vector_baseIPN7testing8TestInfoESaIS2_EE12_Vector_implD2Ev
FN:79,_ZNSt12_Vector_baseIN7testing14TestPartResultESaIS1_EE12_Vector_implD2Ev
FN:79,_ZNSt12_Vector_baseIN7testing8internal9TraceInfoESaIS2_EE12_Vector_implD2Ev
FN:79,_ZNSt12_Vector_baseIiSaIiEE12_Vector_implD2Ev
FN:79,_ZNSt12_Vector_baseIPcSaIS0_EE12_Vector_implD2Ev
FN:79,_ZNSt12_Vector_baseIPN7testing17TestEventListenerESaIS2_EE12_Vector_implD2Ev
FN:79,_ZNSt12_Vector_baseIPN7testing8TestCaseESaIS2_EE12_Vector_implD2Ev
FN:79,_ZNSt12_Vector_baseIN7testing12TestPropertyESaIS1_EE12_Vector_implD2Ev
FN:86,_ZNSt12_Vector_baseIPN7testing17TestEventListenerESaIS2_EE12_Vector_implC2Ev
FN:86,_ZNSt12_Vector_baseIPcSaIS0_EE12_Vector_implC2Ev
FN:86,_ZNSt12_Vector_baseIPN7testing11EnvironmentESaIS2_EE12_Vector_implC2Ev
FN:86,_ZNSt12_Vector_baseIN7testing14TestPartResultESaIS1_EE12_Vector_implC2Ev
FN:86,_ZNSt12_Vector_baseIPN7testing8TestInfoESaIS2_EE12_Vector_implC2Ev
FN:86,_ZNSt12_Vector_baseIPN7testing8TestCaseESaIS2_EE12_Vector_implC2Ev
FN:86,_ZNSt12_Vector_baseIN7testing8internal9TraceInfoESaIS2_EE12_Vector_implC2Ev
FN:86,_ZNSt12_Vector_baseIiSaIiEE12_Vector_implC2Ev
FN:86,_ZNSt12_Vector_baseIPN7testing8internal29ParameterizedTestCaseInfoBaseESaIS3_EE12_Vector_implC2Ev
FN:86,_ZNSt12_Vector_baseIN7testing12TestPropertyESaIS1_EE12_Vector_implC2Ev
FN:86,_ZNSt12_Vector_baseISsSaISsEE12_Vector_implC2Ev
FN:90,_ZNSt12_Vector_baseISsSaISsEE12_Vector_implC2ERKS0_
FN:90,_ZNSt12_Vector_baseIN7testing8internal9TraceInfoESaIS2_EE12_Vector_implC2ERKS3_
FN:101,_ZNSt12_Vector_baseISsSaISsEE12_Vector_impl12_M_swap_dataERS2_
FN:113,_ZNSt12_Vector_baseIPN7testing17TestEventListenerESaIS2_EE19_M_get_Tp_allocatorEv
FN:113,_ZNSt12_Vector_baseIN7testing12TestPropertyESaIS1_EE19_M_get_Tp_allocatorEv
FN:113,_ZNSt12_Vector_baseIN7testing8internal9TraceInfoESaIS2_EE19_M_get_Tp_allocatorEv
FN:113,_ZNSt12_Vector_baseIPN7testing11EnvironmentESaIS2_EE19_M_get_Tp_allocatorEv
FN:113,_ZNSt12_Vector_baseIN7testing14TestPartResultESaIS1_EE19_M_get_Tp_allocatorEv
FN:113,_ZNSt12_Vector_baseIiSaIiEE19_M_get_Tp_allocatorEv
FN:113,_ZNSt12_Vector_baseIPN7testing8internal29ParameterizedTestCaseInfoBaseESaIS3_EE19_M_get_Tp_allocatorEv
FN:113,_ZNSt12_Vector_baseIPN7testing8TestInfoESaIS2_EE19_M_get_Tp_allocatorEv
FN:113,_ZNSt12_Vector_baseIPN7testing8TestCaseESaIS2_EE19_M_get_Tp_allocatorEv
FN:113,_ZNSt12_Vector_baseISsSaISsEE19_M_get_Tp_allocatorEv
FN:113,_ZNSt12_Vector_baseIPcSaIS0_EE19_M_get_Tp_allocatorEv
FN:117,_ZNKSt12_Vector_baseISsSaISsEE19_M_get_Tp_allocatorEv
FN:117,_ZNKSt12_Vector_baseIPN7testing8TestCaseESaIS2_EE19_M_get_Tp_allocatorEv
FN:117,_ZNKSt12_Vector_baseIPN7testing17TestEventListenerESaIS2_EE19_M_get_Tp_allocatorEv
FN:117,_ZNKSt12_Vector_baseIN7testing12TestPropertyESaIS1_EE19_M_get_Tp_allocatorEv
FN:117,_ZNKSt12_Vector_baseIPN7testing8TestInfoESaIS2_EE19_M_get_Tp_allocatorEv
FN:117,_ZNKSt12_Vector_baseIPcSaIS0_EE19_M_get_Tp_allocatorEv
FN:117,_ZNKSt12_Vector_baseIPN7testing11EnvironmentESaIS2_EE19_M_get_Tp_allocatorEv
FN:117,_ZNKSt12_Vector_baseIN7testing8internal9TraceInfoESaIS2_EE19_M_get_Tp_allocatorEv
FN:117,_ZNKSt12_Vector_baseIN7testing14TestPartResultESaIS1_EE19_M_get_Tp_allocatorEv
FN:117,_ZNKSt12_Vector_baseIiSaIiEE19_M_get_Tp_allocatorEv
FN:124,_ZNSt12_Vector_baseIiSaIiEEC2Ev
FN:124,_ZNSt12_Vector_baseIN7testing14TestPartResultESaIS1_EEC2Ev
FN:124,_ZNSt12_Vector_baseIPcSaIS0_EEC2Ev
FN:124,_ZNSt12_Vector_baseIPN7testing8internal29ParameterizedTestCaseInfoBaseESaIS3_EEC2Ev
FN:124,_ZNSt12_Vector_baseIPN7testing11EnvironmentESaIS2_EEC2Ev
FN:124,_ZNSt12_Vector_baseIPN7testing17TestEventListenerESaIS2_EEC2Ev
FN:124,_ZNSt12_Vector_baseIN7testing12TestPropertyESaIS1_EEC2Ev
FN:124,_ZNSt12_Vector_baseIN7testing8internal9TraceInfoESaIS2_EEC2Ev
FN:124,_ZNSt12_Vector_baseIPN7testing8TestCaseESaIS2_EEC2Ev
FN:124,_ZNSt12_Vector_baseIPN7testing8TestInfoESaIS2_EEC2Ev
FN:124,_ZNSt12_Vector_baseISsSaISsEEC2Ev
FN:127,_ZNSt12_Vector_baseISsSaISsEEC2ERKS0_
FN:134,_ZNSt12_Vector_baseISsSaISsEEC2EmRKS0_
FN:134,_ZNSt12_Vector_baseIN7testing8internal9TraceInfoESaIS2_EEC2EmRKS3_
FN:159,_ZNSt12_Vector_baseIN7testing8internal9TraceInfoESaIS2_EED2Ev
FN:159,_ZNSt12_Vector_baseIN7testing12TestPropertyESaIS1_EED2Ev
FN:159,_ZNSt12_Vector_baseIN7testing14TestPartResultESaIS1_EED2Ev
FN:159,_ZNSt12_Vector_baseIPN7testing8TestInfoESaIS2_EED2Ev
FN:159,_ZNSt12_Vector_baseIPN7testing17TestEventListenerESaIS2_EED2Ev
FN:159,_ZNSt12_Vector_baseISsSaISsEED2Ev
FN:159,_ZNSt12_Vector_baseIPN7testing8internal29ParameterizedTestCaseInfoBaseESaIS3_EED2Ev
FN:159,_ZNSt12_Vector_baseIPN7testing8TestCaseESaIS2_EED2Ev
FN:159,_ZNSt12_Vector_baseIPcSaIS0_EED2Ev
FN:159,_ZNSt12_Vector_baseIPN7testing11EnvironmentESaIS2_EED2Ev
FN:159,_ZNSt12_Vector_baseIiSaIiEED2Ev
FN:167,_ZNSt12_Vector_baseIPN7testing11EnvironmentESaIS2_EE11_M_allocateEm
FN:167,_ZNSt12_Vector_baseIiSaIiEE11_M_allocateEm
FN:167,_ZNSt12_Vector_baseIPN7testing8TestInfoESaIS2_EE11_M_allocateEm
FN:167,_ZNSt12_Vector_baseIN7testing14TestPartResultESaIS1_EE11_M_allocateEm
FN:167,_ZNSt12_Vector_baseISsSaISsEE11_M_allocateEm
FN:167,_ZNSt12_Vector_baseIN7testing12TestPropertyESaIS1_EE11_M_allocateEm
FN:167,_ZNSt12_Vector_baseIPcSaIS0_EE11_M_allocateEm
FN:167,_ZNSt12_Vector_baseIPN7testing17TestEventListenerESaIS2_EE11_M_allocateEm
FN:167,_ZNSt12_Vector_baseIN7testing8internal9TraceInfoESaIS2_EE11_M_allocateEm
FN:167,_ZNSt12_Vector_baseIPN7testing8TestCaseESaIS2_EE11_M_allocateEm
FN:171,_ZNSt12_Vector_baseIPN7testing8TestCaseESaIS2_EE13_M_deallocateEPS2_m
FN:171,_ZNSt12_Vector_baseIPN7testing8TestInfoESaIS2_EE13_M_deallocateEPS2_m
FN:171,_ZNSt12_Vector_baseIPN7testing11EnvironmentESaIS2_EE13_M_deallocateEPS2_m
FN:171,_ZNSt12_Vector_baseIN7testing8internal9TraceInfoESaIS2_EE13_M_deallocateEPS2_m
FN:171,_ZNSt12_Vector_baseIiSaIiEE13_M_deallocateEPim
FN:171,_ZNSt12_Vector_baseIN7testing14TestPartResultESaIS1_EE13_M_deallocateEPS1_m
FN:171,_ZNSt12_Vector_baseISsSaISsEE13_M_deallocateEPSsm
FN:171,_ZNSt12_Vector_baseIPN7testing8internal29ParameterizedTestCaseInfoBaseESaIS3_EE13_M_deallocateEPS3_m
FN:171,_ZNSt12_Vector_baseIPN7testing17TestEventListenerESaIS2_EE13_M_deallocateEPS2_m
FN:171,_ZNSt12_Vector_baseIPcSaIS0_EE13_M_deallocateEPS0_m
FN:171,_ZNSt12_Vector_baseIN7testing12TestPropertyESaIS1_EE13_M_deallocateEPS1_m
FN:179,_ZNSt12_Vector_baseISsSaISsEE17_M_create_storageEm
FN:179,_ZNSt12_Vector_baseIN7testing8internal9TraceInfoESaIS2_EE17_M_create_storageEm
FN:248,_ZNSt6vectorIPcSaIS0_EEC2Ev
FN:248,_ZNSt6vectorIN7testing12TestPropertyESaIS1_EEC2Ev
FN:248,_ZNSt6vectorISsSaISsEEC2Ev
FN:248,_ZNSt6vectorIPN7testing8TestCaseESaIS2_EEC2Ev
FN:248,_ZNSt6vectorIPN7testing8TestInfoESaIS2_EEC2Ev
FN:248,_ZNSt6vectorIPN7testing17TestEventListenerESaIS2_EEC2Ev
FN:248,_ZNSt6vectorIPN7testing11EnvironmentESaIS2_EEC2Ev
FN:248,_ZNSt6vectorIPN7testing8internal29ParameterizedTestCaseInfoBaseESaIS3_EEC2Ev
FN:248,_ZNSt6vectorIiSaIiEEC2Ev
FN:248,_ZNSt6vectorIN7testing8internal9TraceInfoESaIS2_EEC2Ev
FN:248,_ZNSt6vectorIN7testing14TestPartResultESaIS1_EEC2Ev
FN:310,_ZNSt6vectorISsSaISsEEC2ERKS1_
FN:310,_ZNSt6vectorIN7testing8internal9TraceInfoESaIS2_EEC2ERKS4_
FN:392,_ZNSt6vectorISsSaISsEEC2IPKPKcvEET_S7_RKS0_
FN:414,_ZNSt6vectorIPcSaIS0_EED2Ev
FN:414,_ZNSt6vectorIPN7testing8TestInfoESaIS2_EED2Ev
FN:414,_ZNSt6vectorIPN7testing8internal29ParameterizedTestCaseInfoBaseESaIS3_EED2Ev
FN:414,_ZNSt6vectorIN7testing12TestPropertyESaIS1_EED2Ev
FN:414,_ZNSt6vectorIPN7testing17TestEventListenerESaIS2_EED2Ev
FN:414,_ZNSt6vectorIPN7testing11EnvironmentESaIS2_EED2Ev
FN:414,_ZNSt6vectorIiSaIiEED2Ev
FN:414,_ZNSt6vectorISsSaISsEED2Ev
FN:414,_ZNSt6vectorIN7testing14TestPartResultESaIS1_EED2Ev
FN:414,_ZNSt6vectorIPN7testing8TestCaseESaIS2_EED2Ev
FN:414,_ZNSt6vectorIN7testing8internal9TraceInfoESaIS2_EED2Ev
FN:538,_ZNSt6vectorIPN7testing11EnvironmentESaIS2_EE5beginEv
FN:538,_ZNSt6vectorIPN7testing17TestEventListenerESaIS2_EE5beginEv
FN:538,_ZNSt6vectorIN7testing12TestPropertyESaIS1_EE5beginEv
FN:538,_ZNSt6vectorIPcSaIS0_EE5beginEv
FN:538,_ZNSt6vectorIPN7testing8internal29ParameterizedTestCaseInfoBaseESaIS3_EE5beginEv
FN:538,_ZNSt6vectorIPN7testing8TestCaseESaIS2_EE5beginEv
FN:547,_ZNKSt6vectorIPN7testing17TestEventListenerESaIS2_EE5beginEv
FN:547,_ZNKSt6vectorISsSaISsEE5beginEv
FN:547,_ZNKSt6vectorIPN7testing8TestCaseESaIS2_EE5beginEv
FN:547,_ZNKSt6vectorIN7testing14TestPartResultESaIS1_EE5beginEv
FN:547,_ZNKSt6vectorIN7testing8internal9TraceInfoESaIS2_EE5beginEv
FN:547,_ZNKSt6vectorIPN7testing11EnvironmentESaIS2_EE5beginEv
FN:547,_ZNKSt6vectorIPN7testing8TestInfoESaIS2_EE5beginEv
FN:556,_ZNSt6vectorIPN7testing11EnvironmentESaIS2_EE3endEv
FN:556,_ZNSt6vectorIPcSaIS0_EE3endEv
FN:556,_ZNSt6vectorIPN7testing17TestEventListenerESaIS2_EE3endEv
FN:556,_ZNSt6vectorIN7testing12TestPropertyESaIS1_EE3endEv
FN:556,_ZNSt6vectorIPN7testing8TestCaseESaIS2_EE3endEv
FN:556,_ZNSt6vectorIPN7testing8internal29ParameterizedTestCaseInfoBaseESaIS3_EE3endEv
FN:565,_ZNKSt6vectorIN7testing14TestPartResultESaIS1_EE3endEv
FN:565,_ZNKSt6vectorIPN7testing17TestEventListenerESaIS2_EE3endEv
FN:565,_ZNKSt6vectorISsSaISsEE3endEv
FN:565,_ZNKSt6vectorIN7testing8internal9TraceInfoESaIS2_EE3endEv
FN:565,_ZNKSt6vectorIPN7testing8TestInfoESaIS2_EE3endEv
FN:565,_ZNKSt6vectorIPN7testing8TestCaseESaIS2_EE3endEv
FN:565,_ZNKSt6vectorIPN7testing11EnvironmentESaIS2_EE3endEv
FN:574,_ZNSt6vectorIPN7testing11EnvironmentESaIS2_EE6rbeginEv
FN:592,_ZNSt6vectorIPN7testing11EnvironmentESaIS2_EE4rendEv
FN:645,_ZNKSt6vectorISsSaISsEE4sizeEv
FN:645,_ZNKSt6vectorIPcSaIS0_EE4sizeEv
FN:645,_ZNKSt6vectorIiSaIiEE4sizeEv
FN:645,_ZNKSt6vectorIPN7testing8TestInfoESaIS2_EE4sizeEv
FN:645,_ZNKSt6vectorIN7testing14TestPartResultESaIS1_EE4sizeEv
FN:645,_ZNKSt6vectorIN7testing12TestPropertyESaIS1_EE4sizeEv
FN:645,_ZNKSt6vectorIPN7testing17TestEventListenerESaIS2_EE4sizeEv
FN:645,_ZNKSt6vectorIPN7testing8TestCaseESaIS2_EE4sizeEv
FN:645,_ZNKSt6vectorIPN7testing11EnvironmentESaIS2_EE4sizeEv
FN:645,_ZNKSt6vectorIN7testing8internal9TraceInfoESaIS2_EE4sizeEv
FN:650,_ZNKSt6vectorIN7testing12TestPropertyESaIS1_EE8max_sizeEv
FN:650,_ZNKSt6vectorISsSaISsEE8max_sizeEv
FN:650,_ZNKSt6vectorIPcSaIS0_EE8max_sizeEv
FN:650,_ZNKSt6vectorIPN7testing17TestEventListenerESaIS2_EE8max_sizeEv
FN:650,_ZNKSt6vectorIPN7testing8TestCaseESaIS2_EE8max_sizeEv
FN:650,_ZNKSt6vectorIPN7testing8TestInfoESaIS2_EE8max_sizeEv
FN:650,_ZNKSt6vectorIPN7testing11EnvironmentESaIS2_EE8max_sizeEv
FN:650,_ZNKSt6vectorIN7testing14TestPartResultESaIS1_EE8max_sizeEv
FN:650,_ZNKSt6vectorIN7testing8internal9TraceInfoESaIS2_EE8max_sizeEv
FN:650,_ZNKSt6vectorIiSaIiEE8max_sizeEv
FN:770,_ZNSt6vectorIiSaIiEEixEm
FN:770,_ZNSt6vectorIN7testing8internal9TraceInfoESaIS2_EEixEm
FN:770,_ZNSt6vectorIPN7testing17TestEventListenerESaIS2_EEixEm
FN:770,_ZNSt6vectorIPN7testing8TestInfoESaIS2_EEixEm
FN:770,_ZNSt6vectorIPcSaIS0_EEixEm
FN:770,_ZNSt6vectorISsSaISsEEixEm
FN:770,_ZNSt6vectorIPN7testing8TestCaseESaIS2_EEixEm
FN:785,_ZNKSt6vectorIPN7testing8TestInfoESaIS2_EEixEm
FN:785,_ZNKSt6vectorIN7testing14TestPartResultESaIS1_EEixEm
FN:785,_ZNKSt6vectorIN7testing12TestPropertyESaIS1_EEixEm
FN:785,_ZNKSt6vectorIiSaIiEEixEm
FN:785,_ZNKSt6vectorIPN7testing8TestCaseESaIS2_EEixEm
FN:785,_ZNKSt6vectorISsSaISsEEixEm
FN:791,_ZNKSt6vectorIN7testing14TestPartResultESaIS1_EE14_M_range_checkEm
FN:791,_ZNKSt6vectorIN7testing12TestPropertyESaIS1_EE14_M_range_checkEm
FN:828,_ZNKSt6vectorIN7testing12TestPropertyESaIS1_EE2atEm
FN:828,_ZNKSt6vectorIN7testing14TestPartResultESaIS1_EE2atEm
FN:901,_ZNSt6vectorIPN7testing11EnvironmentESaIS2_EE9push_backERKS2_
FN:901,_ZNSt6vectorIN7testing12TestPropertyESaIS1_EE9push_backERKS1_
FN:901,_ZNSt6vectorIN7testing8internal9TraceInfoESaIS2_EE9push_backERKS2_
FN:901,_ZNSt6vectorIN7testing14TestPartResultESaIS1_EE9push_backERKS1_
FN:901,_ZNSt6vectorIPN7testing8TestCaseESaIS2_EE9push_backERKS2_
FN:901,_ZNSt6vectorIPN7testing17TestEventListenerESaIS2_EE9push_backERKS2_
FN:901,_ZNSt6vectorIPN7testing8TestInfoESaIS2_EE9push_backERKS2_
FN:919,_ZNSt6vectorIiSaIiEE9push_backEOi
FN:919,_ZNSt6vectorIPcSaIS0_EE9push_backEOS0_
FN:919,_ZNSt6vectorISsSaISsEE9push_backEOSs
FN:937,_ZNSt6vectorIN7testing8internal9TraceInfoESaIS2_EE8pop_backEv
FN:988,_ZNSt6vectorIPcSaIS0_EE6insertEN9__gnu_cxx17__normal_iteratorIPS0_S2_EEOS0_
FN:1108,_ZNSt6vectorISsSaISsEE4swapERS1_
FN:1125,_ZNSt6vectorISsSaISsEE5clearEv
FN:1125,_ZNSt6vectorIN7testing12TestPropertyESaIS1_EE5clearEv
FN:1125,_ZNSt6vectorIN7testing14TestPartResultESaIS1_EE5clearEv
FN:1172,_ZNSt6vectorISsSaISsEE22_M_initialize_dispatchIPKPKcEEvT_S7_St12__false_type
FN:1197,_ZNSt6vectorISsSaISsEE19_M_range_initializeIPKPKcEEvT_S7_St20forward_iterator_tag
FN:1336,_ZNKSt6vectorIPN7testing11EnvironmentESaIS2_EE12_M_check_lenEmPKc
FN:1336,_ZNKSt6vectorISsSaISsEE12_M_check_lenEmPKc
FN:1336,_ZNKSt6vectorIN7testing8internal9TraceInfoESaIS2_EE12_M_check_lenEmPKc
FN:1336,_ZNKSt6vectorIN7testing12TestPropertyESaIS1_EE12_M_check_lenEmPKc
FN:1336,_ZNKSt6vectorIPcSaIS0_EE12_M_check_lenEmPKc
FN:1336,_ZNKSt6vectorIiSaIiEE12_M_check_lenEmPKc
FN:1336,_ZNKSt6vectorIPN7testing8TestInfoESaIS2_EE12_M_check_lenEmPKc
FN:1336,_ZNKSt6vectorIN7testing14TestPartResultESaIS1_EE12_M_check_lenEmPKc
FN:1336,_ZNKSt6vectorIPN7testing17TestEventListenerESaIS2_EE12_M_check_lenEmPKc
FN:1336,_ZNKSt6vectorIPN7testing8TestCaseESaIS2_EE12_M_check_lenEmPKc
FN:1350,_ZNSt6vectorIN7testing12TestPropertyESaIS1_EE15_M_erase_at_endEPS1_
FN:1350,_ZNSt6vectorISsSaISsEE15_M_erase_at_endEPSs
FN:1350,_ZNSt6vectorIN7testing14TestPartResultESaIS1_EE15_M_erase_at_endEPS1_
FNDA:1,_ZNSt12_Vector_baseIN7testing8internal9TraceInfoESaIS2_EE12_Vector_implD2Ev
FNDA:0,_ZNSt12_Vector_baseIPcSaIS0_EE12_Vector_implD2Ev
FNDA:1,_ZNSt12_Vector_baseIPN7testing8TestCaseESaIS2_EE12_Vector_implD2Ev
FNDA:1,_ZNSt12_Vector_baseIPN7testing11EnvironmentESaIS2_EE12_Vector_implD2Ev
FNDA:1,_ZNSt12_Vector_baseIPN7testing17TestEventListenerESaIS2_EE12_Vector_implD2Ev
FNDA:2,_ZNSt12_Vector_baseIiSaIiEE12_Vector_implD2Ev
FNDA:1,_ZNSt12_Vector_baseIPN7testing8TestInfoESaIS2_EE12_Vector_implD2Ev
FNDA:1,_ZNSt12_Vector_baseISsSaISsEE12_Vector_implD2Ev
FNDA:3,_ZNSt12_Vector_baseIN7testing12TestPropertyESaIS1_EE12_Vector_implD2Ev
FNDA:3,_ZNSt12_Vector_baseIN7testing14TestPartResultESaIS1_EE12_Vector_implD2Ev
FNDA:1,_ZNSt12_Vector_baseIPN7testing8internal29ParameterizedTestCaseInfoBaseESaIS3_EE12_Vector_implD2Ev
FNDA:1,_ZNSt12_Vector_baseIN7testing8internal9TraceInfoESaIS2_EE12_Vector_implC2Ev
FNDA:0,_ZNSt12_Vector_baseIPcSaIS0_EE12_Vector_implC2Ev
FNDA:1,_ZNSt12_Vector_baseIPN7testing8TestCaseESaIS2_EE12_Vector_implC2Ev
FNDA:1,_ZNSt12_Vector_baseIPN7testing11EnvironmentESaIS2_EE12_Vector_implC2Ev
FNDA:1,_ZNSt12_Vector_baseIPN7testing17TestEventListenerESaIS2_EE12_Vector_implC2Ev
FNDA:2,_ZNSt12_Vector_baseIiSaIiEE12_Vector_implC2Ev
FNDA:1,_ZNSt12_Vector_baseIPN7testing8TestInfoESaIS2_EE12_Vector_implC2Ev
FNDA:1,_ZNSt12_Vector_baseISsSaISsEE12_Vector_implC2Ev
FNDA:3,_ZNSt12_Vector_baseIN7testing12TestPropertyESaIS1_EE12_Vector_implC2Ev
FNDA:3,_ZNSt12_Vector_baseIN7testing14TestPartResultESaIS1_EE12_Vector_implC2Ev
FNDA:1,_ZNSt12_Vector_baseIPN7testing8internal29ParameterizedTestCaseInfoBaseESaIS3_EE12_Vector_implC2Ev
FNDA:0,_ZNSt12_Vector_baseIN7testing8internal9TraceInfoESaIS2_EE12_Vector_implC2ERKS3_
FNDA:0,_ZNSt12_Vector_baseISsSaISsEE12_Vector_implC2ERKS0_
FNDA:0,_ZNSt12_Vector_baseISsSaISsEE12_Vector_impl12_M_swap_dataERS2_
FNDA:1,_ZNSt12_Vector_baseIN7testing8internal9TraceInfoESaIS2_EE19_M_get_Tp_allocatorEv
FNDA:0,_ZNSt12_Vector_baseIPcSaIS0_EE19_M_get_Tp_allocatorEv
FNDA:3,_ZNSt12_Vector_baseIPN7testing8TestCaseESaIS2_EE19_M_get_Tp_allocatorEv
FNDA:1,_ZNSt12_Vector_baseIPN7testing11EnvironmentESaIS2_EE19_M_get_Tp_allocatorEv
FNDA:3,_ZNSt12_Vector_baseIPN7testing17TestEventListenerESaIS2_EE19_M_get_Tp_allocatorEv
FNDA:6,_ZNSt12_Vector_baseIiSaIiEE19_M_get_Tp_allocatorEv
FNDA:3,_ZNSt12_Vector_baseIPN7testing8TestInfoESaIS2_EE19_M_get_Tp_allocatorEv
FNDA:4,_ZNSt12_Vector_baseISsSaISsEE19_M_get_Tp_allocatorEv
FNDA:5,_ZNSt12_Vector_baseIN7testing12TestPropertyESaIS1_EE19_M_get_Tp_allocatorEv
FNDA:5,_ZNSt12_Vector_baseIN7testing14TestPartResultESaIS1_EE19_M_get_Tp_allocatorEv
FNDA:1,_ZNSt12_Vector_baseIPN7testing8internal29ParameterizedTestCaseInfoBaseESaIS3_EE19_M_get_Tp_allocatorEv
FNDA:0,_ZNKSt12_Vector_baseIPcSaIS0_EE19_M_get_Tp_allocatorEv
FNDA:4,_ZNKSt12_Vector_baseIiSaIiEE19_M_get_Tp_allocatorEv
FNDA:2,_ZNKSt12_Vector_baseIPN7testing8TestCaseESaIS2_EE19_M_get_Tp_allocatorEv
FNDA:0,_ZNKSt12_Vector_baseIPN7testing11EnvironmentESaIS2_EE19_M_get_Tp_allocatorEv
FNDA:2,_ZNKSt12_Vector_baseIPN7testing17TestEventListenerESaIS2_EE19_M_get_Tp_allocatorEv
FNDA:2,_ZNKSt12_Vector_baseIPN7testing8TestInfoESaIS2_EE19_M_get_Tp_allocatorEv
FNDA:0,_ZNKSt12_Vector_baseIN7testing12TestPropertyESaIS1_EE19_M_get_Tp_allocatorEv
FNDA:0,_ZNKSt12_Vector_baseIN7testing14TestPartResultESaIS1_EE19_M_get_Tp_allocatorEv
FNDA:0,_ZNKSt12_Vector_baseIN7testing8internal9TraceInfoESaIS2_EE19_M_get_Tp_allocatorEv
FNDA:2,_ZNKSt12_Vector_baseISsSaISsEE19_M_get_Tp_allocatorEv
FNDA:1,_ZNSt12_Vector_baseIN7testing8internal9TraceInfoESaIS2_EEC2Ev
FNDA:0,_ZNSt12_Vector_baseIPcSaIS0_EEC2Ev
FNDA:1,_ZNSt12_Vector_baseIPN7testing8TestCaseESaIS2_EEC2Ev
FNDA:1,_ZNSt12_Vector_baseIPN7testing11EnvironmentESaIS2_EEC2Ev
FNDA:1,_ZNSt12_Vector_baseIPN7testing17TestEventListenerESaIS2_EEC2Ev
FNDA:2,_ZNSt12_Vector_baseIiSaIiEEC2Ev
FNDA:1,_ZNSt12_Vector_baseIPN7testing8TestInfoESaIS2_EEC2Ev
FNDA:1,_ZNSt12_Vector_baseISsSaISsEEC2Ev
FNDA:3,_ZNSt12_Vector_baseIN7testing12TestPropertyESaIS1_EEC2Ev
FNDA:3,_ZNSt12_Vector_baseIN7testing14TestPartResultESaIS1_EEC2Ev
FNDA:1,_ZNSt12_Vector_baseIPN7testing8internal29ParameterizedTestCaseInfoBaseESaIS3_EEC2Ev
FNDA:0,_ZNSt12_Vector_baseISsSaISsEEC2ERKS0_
FNDA:0,_ZNSt12_Vector_baseIN7testing8internal9TraceInfoESaIS2_EEC2EmRKS3_
FNDA:0,_ZNSt12_Vector_baseISsSaISsEEC2EmRKS0_
FNDA:1,_ZNSt12_Vector_baseIN7testing8internal9TraceInfoESaIS2_EED2Ev
FNDA:0,_ZNSt12_Vector_baseIPcSaIS0_EED2Ev
FNDA:1,_ZNSt12_Vector_baseIPN7testing8TestCaseESaIS2_EED2Ev
FNDA:1,_ZNSt12_Vector_baseIPN7testing11EnvironmentESaIS2_EED2Ev
FNDA:1,_ZNSt12_Vector_baseIPN7testing17TestEventListenerESaIS2_EED2Ev
FNDA:2,_ZNSt12_Vector_baseIiSaIiEED2Ev
FNDA:1,_ZNSt12_Vector_baseIPN7testing8TestInfoESaIS2_EED2Ev
FNDA:1,_ZNSt12_Vector_baseISsSaISsEED2Ev
FNDA:3,_ZNSt12_Vector_baseIN7testing12TestPropertyESaIS1_EED2Ev
FNDA:3,_ZNSt12_Vector_baseIN7testing14TestPartResultESaIS1_EED2Ev
FNDA:1,_ZNSt12_Vector_baseIPN7testing8internal29ParameterizedTestCaseInfoBaseESaIS3_EED2Ev
FNDA:0,_ZNSt12_Vector_baseIPcSaIS0_EE11_M_allocateEm
FNDA:1,_ZNSt12_Vector_baseISsSaISsEE11_M_allocateEm
FNDA:2,_ZNSt12_Vector_baseIiSaIiEE11_M_allocateEm
FNDA:1,_ZNSt12_Vector_baseIPN7testing8TestCaseESaIS2_EE11_M_allocateEm
FNDA:0,_ZNSt12_Vector_baseIN7testing8internal9TraceInfoESaIS2_EE11_M_allocateEm
FNDA:0,_ZNSt12_Vector_baseIPN7testing11EnvironmentESaIS2_EE11_M_allocateEm
FNDA:1,_ZNSt12_Vector_baseIPN7testing17TestEventListenerESaIS2_EE11_M_allocateEm
FNDA:1,_ZNSt12_Vector_baseIPN7testing8TestInfoESaIS2_EE11_M_allocateEm
FNDA:0,_ZNSt12_Vector_baseIN7testing12TestPropertyESaIS1_EE11_M_allocateEm
FNDA:0,_ZNSt12_Vector_baseIN7testing14TestPartResultESaIS1_EE11_M_allocateEm
FNDA:0,_ZNSt12_Vector_baseIPcSaIS0_EE13_M_deallocateEPS0_m
FNDA:2,_ZNSt12_Vector_baseIPN7testing8TestCaseESaIS2_EE13_M_deallocateEPS2_m
FNDA:1,_ZNSt12_Vector_baseIN7testing8internal9TraceInfoESaIS2_EE13_M_deallocateEPS2_m
FNDA:1,_ZNSt12_Vector_baseIPN7testing11EnvironmentESaIS2_EE13_M_deallocateEPS2_m
FNDA:2,_ZNSt12_Vector_baseIPN7testing17TestEventListenerESaIS2_EE13_M_deallocateEPS2_m
FNDA:4,_ZNSt12_Vector_baseIiSaIiEE13_M_deallocateEPim
FNDA:2,_ZNSt12_Vector_baseIPN7testing8TestInfoESaIS2_EE13_M_deallocateEPS2_m
FNDA:2,_ZNSt12_Vector_baseISsSaISsEE13_M_deallocateEPSsm
FNDA:3,_ZNSt12_Vector_baseIN7testing12TestPropertyESaIS1_EE13_M_deallocateEPS1_m
FNDA:3,_ZNSt12_Vector_baseIN7testing14TestPartResultESaIS1_EE13_M_deallocateEPS1_m
FNDA:1,_ZNSt12_Vector_baseIPN7testing8internal29ParameterizedTestCaseInfoBaseESaIS3_EE13_M_deallocateEPS3_m
FNDA:0,_ZNSt12_Vector_baseIN7testing8internal9TraceInfoESaIS2_EE17_M_create_storageEm
FNDA:0,_ZNSt12_Vector_baseISsSaISsEE17_M_create_storageEm
FNDA:1,_ZNSt6vectorIN7testing8internal9TraceInfoESaIS2_EEC2Ev
FNDA:0,_ZNSt6vectorIPcSaIS0_EEC2Ev
FNDA:1,_ZNSt6vectorIPN7testing8TestCaseESaIS2_EEC2Ev
FNDA:1,_ZNSt6vectorIPN7testing11EnvironmentESaIS2_EEC2Ev
FNDA:1,_ZNSt6vectorIPN7testing17TestEventListenerESaIS2_EEC2Ev
FNDA:2,_ZNSt6vectorIiSaIiEEC2Ev
FNDA:1,_ZNSt6vectorIPN7testing8TestInfoESaIS2_EEC2Ev
FNDA:1,_ZNSt6vectorISsSaISsEEC2Ev
FNDA:3,_ZNSt6vectorIN7testing12TestPropertyESaIS1_EEC2Ev
FNDA:3,_ZNSt6vectorIN7testing14TestPartResultESaIS1_EEC2Ev
FNDA:1,_ZNSt6vectorIPN7testing8internal29ParameterizedTestCaseInfoBaseESaIS3_EEC2Ev
FNDA:0,_ZNSt6vectorIN7testing8internal9TraceInfoESaIS2_EEC2ERKS4_
FNDA:0,_ZNSt6vectorISsSaISsEEC2ERKS1_
FNDA:0,_ZNSt6vectorISsSaISsEEC2IPKPKcvEET_S7_RKS0_
FNDA:1,_ZNSt6vectorIN7testing8internal9TraceInfoESaIS2_EED2Ev
FNDA:0,_ZNSt6vectorIPcSaIS0_EED2Ev
FNDA:1,_ZNSt6vectorIPN7testing8TestCaseESaIS2_EED2Ev
FNDA:1,_ZNSt6vectorIPN7testing11EnvironmentESaIS2_EED2Ev
FNDA:1,_ZNSt6vectorIPN7testing17TestEventListenerESaIS2_EED2Ev
FNDA:2,_ZNSt6vectorIiSaIiEED2Ev
FNDA:1,_ZNSt6vectorIPN7testing8TestInfoESaIS2_EED2Ev
FNDA:1,_ZNSt6vectorISsSaISsEED2Ev
FNDA:3,_ZNSt6vectorIN7testing12TestPropertyESaIS1_EED2Ev
FNDA:3,_ZNSt6vectorIN7testing14TestPartResultESaIS1_EED2Ev
FNDA:1,_ZNSt6vectorIPN7testing8internal29ParameterizedTestCaseInfoBaseESaIS3_EED2Ev
FNDA:1,_ZNSt6vectorIPN7testing11EnvironmentESaIS2_EE5beginEv
FNDA:0,_ZNSt6vectorIPcSaIS0_EE5beginEv
FNDA:1,_ZNSt6vectorIPN7testing8TestCaseESaIS2_EE5beginEv
FNDA:0,_ZNSt6vectorIPN7testing17TestEventListenerESaIS2_EE5beginEv
FNDA:0,_ZNSt6vectorIN7testing12TestPropertyESaIS1_EE5beginEv
FNDA:2,_ZNSt6vectorIPN7testing8internal29ParameterizedTestCaseInfoBaseESaIS3_EE5beginEv
FNDA:0,_ZNKSt6vectorIN7testing8internal9TraceInfoESaIS2_EE5beginEv
FNDA:2,_ZNKSt6vectorIPN7testing11EnvironmentESaIS2_EE5beginEv
FNDA:1,_ZNKSt6vectorIPN7testing17TestEventListenerESaIS2_EE5beginEv
FNDA:11,_ZNKSt6vectorIPN7testing8TestInfoESaIS2_EE5beginEv
FNDA:3,_ZNKSt6vectorIN7testing14TestPartResultESaIS1_EE5beginEv
FNDA:6,_ZNKSt6vectorIPN7testing8TestCaseESaIS2_EE5beginEv
FNDA:0,_ZNKSt6vectorISsSaISsEE5beginEv
FNDA:1,_ZNSt6vectorIPN7testing11EnvironmentESaIS2_EE3endEv
FNDA:0,_ZNSt6vectorIPN7testing17TestEventListenerESaIS2_EE3endEv
FNDA:0,_ZNSt6vectorIPcSaIS0_EE3endEv
FNDA:2,_ZNSt6vectorIPN7testing8TestCaseESaIS2_EE3endEv
FNDA:0,_ZNSt6vectorIN7testing12TestPropertyESaIS1_EE3endEv
FNDA:2,_ZNSt6vectorIPN7testing8internal29ParameterizedTestCaseInfoBaseESaIS3_EE3endEv
FNDA:0,_ZNKSt6vectorIN7testing8internal9TraceInfoESaIS2_EE3endEv
FNDA:2,_ZNKSt6vectorIPN7testing11EnvironmentESaIS2_EE3endEv
FNDA:1,_ZNKSt6vectorIPN7testing17TestEventListenerESaIS2_EE3endEv
FNDA:20,_ZNKSt6vectorIPN7testing8TestInfoESaIS2_EE3endEv
FNDA:3,_ZNKSt6vectorIN7testing14TestPartResultESaIS1_EE3endEv
FNDA:10,_ZNKSt6vectorIPN7testing8TestCaseESaIS2_EE3endEv
FNDA:0,_ZNKSt6vectorISsSaISsEE3endEv
FNDA:1,_ZNSt6vectorIPN7testing11EnvironmentESaIS2_EE6rbeginEv
FNDA:1,_ZNSt6vectorIPN7testing11EnvironmentESaIS2_EE4rendEv
FNDA:0,_ZNKSt6vectorIPcSaIS0_EE4sizeEv
FNDA:0,_ZNKSt6vectorIPN7testing11EnvironmentESaIS2_EE4sizeEv
FNDA:0,_ZNKSt6vectorIN7testing8internal9TraceInfoESaIS2_EE4sizeEv
FNDA:24,_ZNKSt6vectorIPN7testing17TestEventListenerESaIS2_EE4sizeEv
FNDA:16,_ZNKSt6vectorIiSaIiEE4sizeEv
FNDA:9,_ZNKSt6vectorIPN7testing8TestInfoESaIS2_EE4sizeEv
FNDA:0,_ZNKSt6vectorIN7testing12TestPropertyESaIS1_EE4sizeEv
FNDA:8,_ZNKSt6vectorIN7testing14TestPartResultESaIS1_EE4sizeEv
FNDA:5,_ZNKSt6vectorISsSaISsEE4sizeEv
FNDA:21,_ZNKSt6vectorIPN7testing8TestCaseESaIS2_EE4sizeEv
FNDA:2,_ZNKSt6vectorISsSaISsEE8max_sizeEv
FNDA:0,_ZNKSt6vectorIPcSaIS0_EE8max_sizeEv
FNDA:4,_ZNKSt6vectorIiSaIiEE8max_sizeEv
FNDA:2,_ZNKSt6vectorIPN7testing8TestCaseESaIS2_EE8max_sizeEv
FNDA:0,_ZNKSt6vectorIN7testing8internal9TraceInfoESaIS2_EE8max_sizeEv
FNDA:0,_ZNKSt6vectorIPN7testing11EnvironmentESaIS2_EE8max_sizeEv
FNDA:2,_ZNKSt6vectorIPN7testing17TestEventListenerESaIS2_EE8max_sizeEv
FNDA:2,_ZNKSt6vectorIPN7testing8TestInfoESaIS2_EE8max_sizeEv
FNDA:0,_ZNKSt6vectorIN7testing12TestPropertyESaIS1_EE8max_sizeEv
FNDA:0,_ZNKSt6vectorIN7testing14TestPartResultESaIS1_EE8max_sizeEv
FNDA:0,_ZNSt6vectorISsSaISsEEixEm
FNDA:0,_ZNSt6vectorIPcSaIS0_EEixEm
FNDA:0,_ZNSt6vectorIN7testing8internal9TraceInfoESaIS2_EEixEm
FNDA:12,_ZNSt6vectorIPN7testing17TestEventListenerESaIS2_EEixEm
FNDA:2,_ZNSt6vectorIiSaIiEEixEm
FNDA:2,_ZNSt6vectorIPN7testing8TestInfoESaIS2_EEixEm
FNDA:3,_ZNSt6vectorIPN7testing8TestCaseESaIS2_EEixEm
FNDA:0,_ZNKSt6vectorIN7testing12TestPropertyESaIS1_EEixEm
FNDA:2,_ZNKSt6vectorIiSaIiEEixEm
FNDA:0,_ZNKSt6vectorIN7testing14TestPartResultESaIS1_EEixEm
FNDA:1,_ZNKSt6vectorIPN7testing8TestInfoESaIS2_EEixEm
FNDA:0,_ZNKSt6vectorISsSaISsEEixEm
FNDA:5,_ZNKSt6vectorIPN7testing8TestCaseESaIS2_EEixEm
FNDA:0,_ZNKSt6vectorIN7testing12TestPropertyESaIS1_EE14_M_range_checkEm
FNDA:0,_ZNKSt6vectorIN7testing14TestPartResultESaIS1_EE14_M_range_checkEm
FNDA:0,_ZNKSt6vectorIN7testing12TestPropertyESaIS1_EE2atEm
FNDA:0,_ZNKSt6vectorIN7testing14TestPartResultESaIS1_EE2atEm
FNDA:1,_ZNSt6vectorIPN7testing8TestCaseESaIS2_EE9push_backERKS2_
FNDA:0,_ZNSt6vectorIN7testing8internal9TraceInfoESaIS2_EE9push_backERKS2_
FNDA:0,_ZNSt6vectorIPN7testing11EnvironmentESaIS2_EE9push_backERKS2_
FNDA:1,_ZNSt6vectorIPN7testing17TestEventListenerESaIS2_EE9push_backERKS2_
FNDA:1,_ZNSt6vectorIPN7testing8TestInfoESaIS2_EE9push_backERKS2_
FNDA:0,_ZNSt6vectorIN7testing12TestPropertyESaIS1_EE9push_backERKS1_
FNDA:0,_ZNSt6vectorIN7testing14TestPartResultESaIS1_EE9push_backERKS1_
FNDA:1,_ZNSt6vectorISsSaISsEE9push_backEOSs
FNDA:0,_ZNSt6vectorIPcSaIS0_EE9push_backEOS0_
FNDA:2,_ZNSt6vectorIiSaIiEE9push_backEOi
FNDA:0,_ZNSt6vectorIN7testing8internal9TraceInfoESaIS2_EE8pop_backEv
FNDA:0,_ZNSt6vectorIPcSaIS0_EE6insertEN9__gnu_cxx17__normal_iteratorIPS0_S2_EEOS0_
FNDA:0,_ZNSt6vectorISsSaISsEE4swapERS1_
FNDA:1,_ZNSt6vectorISsSaISsEE5clearEv
FNDA:2,_ZNSt6vectorIN7testing12TestPropertyESaIS1_EE5clearEv
FNDA:2,_ZNSt6vectorIN7testing14TestPartResultESaIS1_EE5clearEv
FNDA:0,_ZNSt6vectorISsSaISsEE22_M_initialize_dispatchIPKPKcEEvT_S7_St12__false_type
FNDA:0,_ZNSt6vectorISsSaISsEE19_M_range_initializeIPKPKcEEvT_S7_St20forward_iterator_tag
FNDA:1,_ZNKSt6vectorISsSaISsEE12_M_check_lenEmPKc
FNDA:0,_ZNKSt6vectorIPcSaIS0_EE12_M_check_lenEmPKc
FNDA:2,_ZNKSt6vectorIiSaIiEE12_M_check_lenEmPKc
FNDA:1,_ZNKSt6vectorIPN7testing8TestCaseESaIS2_EE12_M_check_lenEmPKc
FNDA:0,_ZNKSt6vectorIN7testing8internal9TraceInfoESaIS2_EE12_M_check_lenEmPKc
FNDA:0,_ZNKSt6vectorIPN7testing11EnvironmentESaIS2_EE12_M_check_lenEmPKc
FNDA:1,_ZNKSt6vectorIPN7testing17TestEventListenerESaIS2_EE12_M_check_lenEmPKc
FNDA:1,_ZNKSt6vectorIPN7testing8TestInfoESaIS2_EE12_M_check_lenEmPKc
FNDA:0,_ZNKSt6vectorIN7testing12TestPropertyESaIS1_EE12_M_check_lenEmPKc
FNDA:0,_ZNKSt6vectorIN7testing14TestPartResultESaIS1_EE12_M_check_lenEmPKc
FNDA:1,_ZNSt6vectorISsSaISsEE15_M_erase_at_endEPSs
FNDA:2,_ZNSt6vectorIN7testing12TestPropertyESaIS1_EE15_M_erase_at_endEPS1_
FNDA:2,_ZNSt6vectorIN7testing14TestPartResultESaIS1_EE15_M_erase_at_endEPS1_
FNF:215
FNH:142
DA:79,15
DA:86,15
DA:87,15
DA:88,15
DA:90,0
DA:91,0
DA:92,0
DA:101,0
DA:103,0
DA:104,0
DA:105,0
DA:106,0
DA:113,32
DA:114,32
DA:117,12
DA:118,12
DA:124,15
DA:125,15
DA:127,0
DA:128,0
DA:134,0
DA:135,0
DA:136,0
DA:159,15
DA:160,15
DA:161,30
DA:167,6
DA:168,6
DA:171,21
DA:173,21
DA:174,6
DA:175,21
DA:179,0
DA:181,0
DA:182,0
DA:183,0
DA:184,0
DA:248,15
DA:249,15
DA:310,0
DA:312,0
DA:313,0
DA:316,0
DA:317,0
DA:392,0
DA:394,0
DA:395,0
DA:414,15
DA:415,15
DA:416,30
DA:538,4
DA:539,4
DA:547,23
DA:548,23
DA:556,5
DA:557,5
DA:565,36
DA:566,36
DA:574,1
DA:575,1
DA:592,1
DA:593,1
DA:645,83
DA:646,83
DA:650,12
DA:651,12
DA:770,19
DA:771,19
DA:785,8
DA:786,8
DA:791,0
DA:793,0
DA:794,0
DA:795,0
DA:828,0
DA:830,0
DA:831,0
DA:901,3
DA:903,3
DA:905,0
DA:906,0
DA:907,0
DA:911,3
DA:915,3
DA:919,3
DA:920,3
DA:937,0
DA:939,0
DA:940,0
DA:941,0
DA:988,0
DA:989,0
DA:1108,0
DA:1113,0
DA:1114,0
DA:1115,0
DA:1116,0
DA:1125,5
DA:1126,5
DA:1172,0
DA:1177,0
DA:1178,0
DA:1197,0
DA:1200,0
DA:1201,0
DA:1202,0
DA:1203,0
DA:1206,0
DA:1207,0
DA:1336,6
DA:1338,6
DA:1339,0
DA:1341,6
DA:1342,6
DA:1350,5
DA:1352,5
DA:1353,5
DA:1354,5
LF:118
LH:60
end_of_record
SF:/usr/include/c++/4.8.2/bits/vector.tcc
FN:91,_ZNSt6vectorISsSaISsEE12emplace_backIISsEEEvDpOT_
FN:91,_ZNSt6vectorIiSaIiEE12emplace_backIIiEEEvDpOT_
FN:91,_ZNSt6vectorIPcSaIS0_EE12emplace_backIIS0_EEEvDpOT_
FN:107,_ZNSt6vectorIPN7testing8TestCaseESaIS2_EE6insertEN9__gnu_cxx17__normal_iteratorIPS2_S4_EERKS2_
FN:134,_ZNSt6vectorIPN7testing17TestEventListenerESaIS2_EE5eraseEN9__gnu_cxx17__normal_iteratorIPS2_S4_EE
FN:294,_ZNSt6vectorIPcSaIS0_EE7emplaceIIS0_EEEN9__gnu_cxx17__normal_iteratorIPS0_S2_EES7_DpOT_
FN:313,_ZNSt6vectorIPN7testing8TestCaseESaIS2_EE13_M_insert_auxIIS2_EEEvN9__gnu_cxx17__normal_iteratorIPS2_S4_EEDpOT_
FN:313,_ZNSt6vectorIPcSaIS0_EE13_M_insert_auxIIS0_EEEvN9__gnu_cxx17__normal_iteratorIPS0_S2_EEDpOT_
FN:313,_ZNSt6vectorIPN7testing8TestCaseESaIS2_EE13_M_insert_auxIIRKS2_EEEvN9__gnu_cxx17__normal_iteratorIPS2_S4_EEDpOT_
FN:399,_ZNSt6vectorIN7testing14TestPartResultESaIS1_EE19_M_emplace_back_auxIIRKS1_EEEvDpOT_
FN:399,_ZNSt6vectorIN7testing8internal9TraceInfoESaIS2_EE19_M_emplace_back_auxIIRKS2_EEEvDpOT_
FN:399,_ZNSt6vectorIPN7testing8TestCaseESaIS2_EE19_M_emplace_back_auxIIRKS2_EEEvDpOT_
FN:399,_ZNSt6vectorIPN7testing11EnvironmentESaIS2_EE19_M_emplace_back_auxIIRKS2_EEEvDpOT_
FN:399,_ZNSt6vectorIPN7testing8TestInfoESaIS2_EE19_M_emplace_back_auxIIRKS2_EEEvDpOT_
FN:399,_ZNSt6vectorIiSaIiEE19_M_emplace_back_auxIIiEEEvDpOT_
FN:399,_ZNSt6vectorIPN7testing17TestEventListenerESaIS2_EE19_M_emplace_back_auxIIRKS2_EEEvDpOT_
FN:399,_ZNSt6vectorISsSaISsEE19_M_emplace_back_auxIISsEEEvDpOT_
FN:399,_ZNSt6vectorIN7testing12TestPropertyESaIS1_EE19_M_emplace_back_auxIIRKS1_EEEvDpOT_
FN:399,_ZNSt6vectorIPcSaIS0_EE19_M_emplace_back_auxIIS0_EEEvDpOT_
FNDA:1,_ZNSt6vectorISsSaISsEE12emplace_backIISsEEEvDpOT_
FNDA:0,_ZNSt6vectorIPcSaIS0_EE12emplace_backIIS0_EEEvDpOT_
FNDA:2,_ZNSt6vectorIiSaIiEE12emplace_backIIiEEEvDpOT_
FNDA:0,_ZNSt6vectorIPN7testing8TestCaseESaIS2_EE6insertEN9__gnu_cxx17__normal_iteratorIPS2_S4_EERKS2_
FNDA:0,_ZNSt6vectorIPN7testing17TestEventListenerESaIS2_EE5eraseEN9__gnu_cxx17__normal_iteratorIPS2_S4_EE
FNDA:0,_ZNSt6vectorIPcSaIS0_EE7emplaceIIS0_EEEN9__gnu_cxx17__normal_iteratorIPS0_S2_EES7_DpOT_
FNDA:0,_ZNSt6vectorIPcSaIS0_EE13_M_insert_auxIIS0_EEEvN9__gnu_cxx17__normal_iteratorIPS0_S2_EEDpOT_
FNDA:0,_ZNSt6vectorIPN7testing8TestCaseESaIS2_EE13_M_insert_auxIIRKS2_EEEvN9__gnu_cxx17__normal_iteratorIPS2_S4_EEDpOT_
FNDA:0,_ZNSt6vectorIPN7testing8TestCaseESaIS2_EE13_M_insert_auxIIS2_EEEvN9__gnu_cxx17__normal_iteratorIPS2_S4_EEDpOT_
FNDA:1,_ZNSt6vectorISsSaISsEE19_M_emplace_back_auxIISsEEEvDpOT_
FNDA:0,_ZNSt6vectorIPcSaIS0_EE19_M_emplace_back_auxIIS0_EEEvDpOT_
FNDA:2,_ZNSt6vectorIiSaIiEE19_M_emplace_back_auxIIiEEEvDpOT_
FNDA:1,_ZNSt6vectorIPN7testing8TestCaseESaIS2_EE19_M_emplace_back_auxIIRKS2_EEEvDpOT_
FNDA:0,_ZNSt6vectorIN7testing8internal9TraceInfoESaIS2_EE19_M_emplace_back_auxIIRKS2_EEEvDpOT_
FNDA:0,_ZNSt6vectorIPN7testing11EnvironmentESaIS2_EE19_M_emplace_back_auxIIRKS2_EEEvDpOT_
FNDA:1,_ZNSt6vectorIPN7testing17TestEventListenerESaIS2_EE19_M_emplace_back_auxIIRKS2_EEEvDpOT_
FNDA:1,_ZNSt6vectorIPN7testing8TestInfoESaIS2_EE19_M_emplace_back_auxIIRKS2_EEEvDpOT_
FNDA:0,_ZNSt6vectorIN7testing12TestPropertyESaIS1_EE19_M_emplace_back_auxIIRKS1_EEEvDpOT_
FNDA:0,_ZNSt6vectorIN7testing14TestPartResultESaIS1_EE19_M_emplace_back_auxIIRKS1_EEEvDpOT_
FNF:19
FNH:7
DA:91,3
DA:94,3
DA:96,0
DA:97,0
DA:98,0
DA:101,3
DA:102,3
DA:107,0
DA:110,0
DA:111,0
DA:112,0
DA:114,0
DA:115,0
DA:120,0
DA:122,0
DA:123,0
DA:127,0
DA:129,0
DA:134,0
DA:137,0
DA:138,0
DA:139,0
DA:140,0
DA:141,0
DA:294,0
DA:297,0
DA:298,0
DA:299,0
DA:301,0
DA:302,0
DA:303,0
DA:306,0
DA:307,0
DA:313,0
DA:322,0
DA:324,0
DA:325,0
DA:326,0
DA:327,0
DA:331,0
DA:337,0
DA:343,0
DA:344,0
DA:345,0
DA:346,0
DA:353,0
DA:356,0
DA:360,0
DA:362,0
DA:365,0
DA:367,0
DA:369,0
DA:372,0
DA:374,0
DA:376,0
DA:377,0
DA:378,0
DA:380,0
DA:381,0
DA:382,0
DA:384,0
DA:385,0
DA:386,0
DA:388,0
DA:389,0
DA:390,0
DA:391,0
DA:393,0
DA:399,6
DA:403,6
DA:404,6
DA:405,6
DA:408,12
DA:409,12
DA:410,6
DA:412,6
DA:415,6
DA:417,6
DA:419,0
DA:421,0
DA:422,0
DA:424,0
DA:425,0
DA:426,0
DA:428,6
DA:429,6
DA:430,6
DA:432,6
DA:433,6
DA:434,6
DA:435,6
DA:436,6
LF:92
LH:22
end_of_record
SF:/usr/include/c++/4.8.2/ext/alloc_traits.h
FN:166,_ZN9__gnu_cxx14__alloc_traitsISaISsEE17_S_select_on_copyERKS1_
FN:166,_ZN9__gnu_cxx14__alloc_traitsISaIN7testing8internal9TraceInfoEEE17_S_select_on_copyERKS4_
FN:169,_ZN9__gnu_cxx14__alloc_traitsISaISsEE10_S_on_swapERS1_S3_
FNDA:0,_ZN9__gnu_cxx14__alloc_traitsISaIN7testing8internal9TraceInfoEEE17_S_select_on_copyERKS4_
FNDA:0,_ZN9__gnu_cxx14__alloc_traitsISaISsEE17_S_select_on_copyERKS1_
FNDA:0,_ZN9__gnu_cxx14__alloc_traitsISaISsEE10_S_on_swapERS1_S3_
FNF:3
FNH:0
DA:166,0
DA:167,0
DA:169,0
DA:170,0
LF:4
LH:0
end_of_record
SF:/usr/include/c++/4.8.2/ext/atomicity.h
FN:48,_ZN9__gnu_cxxL18__exchange_and_addEPVii
FN:65,_ZN9__gnu_cxxL25__exchange_and_add_singleEPii
FN:78,_ZN9__gnu_cxxL27__exchange_and_add_dispatchEPii
FNDA:0,_ZN9__gnu_cxxL18__exchange_and_addEPVii
FNDA:0,_ZN9__gnu_cxxL25__exchange_and_add_singleEPii
FNDA:0,_ZN9__gnu_cxxL27__exchange_and_add_dispatchEPii
FNF:3
FNH:0
DA:48,0
DA:49,0
DA:65,0
DA:67,0
DA:68,0
DA:69,0
DA:78,0
DA:81,0
DA:82,0
DA:84,0
LF:10
LH:0
end_of_record
SF:/usr/include/c++/4.8.2/ext/new_allocator.h
FN:79,_ZN9__gnu_cxx13new_allocatorIPN7testing11EnvironmentEEC2Ev
FN:79,_ZN9__gnu_cxx13new_allocatorIN7testing8internal9TraceInfoEEC2Ev
FN:79,_ZN9__gnu_cxx13new_allocatorIPN7testing8internal29ParameterizedTestCaseInfoBaseEEC2Ev
FN:79,_ZN9__gnu_cxx13new_allocatorISsEC2Ev
FN:79,_ZN9__gnu_cxx13new_allocatorIcEC2Ev
FN:79,_ZN9__gnu_cxx13new_allocatorIiEC2Ev
FN:79,_ZN9__gnu_cxx13new_allocatorIN7testing12TestPropertyEEC2Ev
FN:79,_ZN9__gnu_cxx13new_allocatorIPN7testing8TestInfoEEC2Ev
FN:79,_ZN9__gnu_cxx13new_allocatorIPN7testing8TestCaseEEC2Ev
FN:79,_ZN9__gnu_cxx13new_allocatorIPcEC2Ev
FN:79,_ZN9__gnu_cxx13new_allocatorIN7testing14TestPartResultEEC2Ev
FN:79,_ZN9__gnu_cxx13new_allocatorIwEC2Ev
FN:79,_ZN9__gnu_cxx13new_allocatorIPN7testing17TestEventListenerEEC2Ev
FN:79,_ZN9__gnu_cxx13new_allocatorISt13_Rb_tree_nodeISsEEC2Ev
FN:81,_ZN9__gnu_cxx13new_allocatorISsEC2ERKS1_
FN:81,_ZN9__gnu_cxx13new_allocatorIcEC2ERKS1_
FN:81,_ZN9__gnu_cxx13new_allocatorIwEC2ERKS1_
FN:81,_ZN9__gnu_cxx13new_allocatorIN7testing8internal9TraceInfoEEC2ERKS4_
FN:86,_ZN9__gnu_cxx13new_allocatorIwED2Ev
FN:86,_ZN9__gnu_cxx13new_allocatorISt13_Rb_tree_nodeISsEED2Ev
FN:86,_ZN9__gnu_cxx13new_allocatorIPN7testing8TestCaseEED2Ev
FN:86,_ZN9__gnu_cxx13new_allocatorIN7testing8internal9TraceInfoEED2Ev
FN:86,_ZN9__gnu_cxx13new_allocatorIcED2Ev
FN:86,_ZN9__gnu_cxx13new_allocatorIPN7testing11EnvironmentEED2Ev
FN:86,_ZN9__gnu_cxx13new_allocatorIN7testing12TestPropertyEED2Ev
FN:86,_ZN9__gnu_cxx13new_allocatorIPN7testing17TestEventListenerEED2Ev
FN:86,_ZN9__gnu_cxx13new_allocatorIiED2Ev
FN:86,_ZN9__gnu_cxx13new_allocatorIPN7testing8TestInfoEED2Ev
FN:86,_ZN9__gnu_cxx13new_allocatorIN7testing14TestPartResultEED2Ev
FN:86,_ZN9__gnu_cxx13new_allocatorIPcED2Ev
FN:86,_ZN9__gnu_cxx13new_allocatorIPN7testing8internal29ParameterizedTestCaseInfoBaseEED2Ev
FN:86,_ZN9__gnu_cxx13new_allocatorISsED2Ev
FN:99,_ZN9__gnu_cxx13new_allocatorIPN7testing8TestInfoEE8allocateEmPKv
FN:99,_ZN9__gnu_cxx13new_allocatorIN7testing12TestPropertyEE8allocateEmPKv
FN:99,_ZN9__gnu_cxx13new_allocatorISt13_Rb_tree_nodeISsEE8allocateEmPKv
FN:99,_ZN9__gnu_cxx13new_allocatorIN7testing8internal9TraceInfoEE8allocateEmPKv
FN:99,_ZN9__gnu_cxx13new_allocatorIiE8allocateEmPKv
FN:99,_ZN9__gnu_cxx13new_allocatorIPN7testing8TestCaseEE8allocateEmPKv
FN:99,_ZN9__gnu_cxx13new_allocatorIPcE8allocateEmPKv
FN:99,_ZN9__gnu_cxx13new_allocatorIPN7testing17TestEventListenerEE8allocateEmPKv
FN:99,_ZN9__gnu_cxx13new_allocatorIPN7testing11EnvironmentEE8allocateEmPKv
FN:99,_ZN9__gnu_cxx13new_allocatorISsE8allocateEmPKv
FN:99,_ZN9__gnu_cxx13new_allocatorIN7testing14TestPartResultEE8allocateEmPKv
FN:109,_ZN9__gnu_cxx13new_allocatorIPcE10deallocateEPS1_m
FN:109,_ZN9__gnu_cxx13new_allocatorIN7testing12TestPropertyEE10deallocateEPS2_m
FN:109,_ZN9__gnu_cxx13new_allocatorIPN7testing8TestCaseEE10deallocateEPS3_m
FN:109,_ZN9__gnu_cxx13new_allocatorISt13_Rb_tree_nodeISsEE10deallocateEPS2_m
FN:109,_ZN9__gnu_cxx13new_allocatorIN7testing14TestPartResultEE10deallocateEPS2_m
FN:109,_ZN9__gnu_cxx13new_allocatorIPN7testing11EnvironmentEE10deallocateEPS3_m
FN:109,_ZN9__gnu_cxx13new_allocatorIPN7testing8internal29ParameterizedTestCaseInfoBaseEE10deallocateEPS4_m
FN:109,_ZN9__gnu_cxx13new_allocatorIPN7testing8TestInfoEE10deallocateEPS3_m
FN:109,_ZN9__gnu_cxx13new_allocatorISsE10deallocateEPSsm
FN:109,_ZN9__gnu_cxx13new_allocatorIN7testing8internal9TraceInfoEE10deallocateEPS3_m
FN:109,_ZN9__gnu_cxx13new_allocatorIiE10deallocateEPim
FN:109,_ZN9__gnu_cxx13new_allocatorIPN7testing17TestEventListenerEE10deallocateEPS3_m
FN:113,_ZNK9__gnu_cxx13new_allocatorIN7testing14TestPartResultEE8max_sizeEv
FN:113,_ZNK9__gnu_cxx13new_allocatorIN7testing8internal9TraceInfoEE8max_sizeEv
FN:113,_ZNK9__gnu_cxx13new_allocatorIPN7testing17TestEventListenerEE8max_sizeEv
FN:113,_ZNK9__gnu_cxx13new_allocatorIPN7testing11EnvironmentEE8max_sizeEv
FN:113,_ZNK9__gnu_cxx13new_allocatorIPN7testing8TestInfoEE8max_sizeEv
FN:113,_ZNK9__gnu_cxx13new_allocatorIiE8max_sizeEv
FN:113,_ZNK9__gnu_cxx13new_allocatorIPN7testing8TestCaseEE8max_sizeEv
FN:113,_ZNK9__gnu_cxx13new_allocatorISt13_Rb_tree_nodeISsEE8max_sizeEv
FN:113,_ZNK9__gnu_cxx13new_allocatorIPcE8max_sizeEv
FN:113,_ZNK9__gnu_cxx13new_allocatorISsE8max_sizeEv
FN:113,_ZNK9__gnu_cxx13new_allocatorIN7testing12TestPropertyEE8max_sizeEv
FN:119,_ZN9__gnu_cxx13new_allocatorIPN7testing8TestCaseEE9constructIS3_IRKS3_EEEvPT_DpOT0_
FN:119,_ZN9__gnu_cxx13new_allocatorIN7testing14TestPartResultEE9constructIS2_IRKS2_EEEvPT_DpOT0_
FN:119,_ZN9__gnu_cxx13new_allocatorISt13_Rb_tree_nodeISsEE9constructIS2_IRKSsEEEvPT_DpOT0_
FN:119,_ZN9__gnu_cxx13new_allocatorIPN7testing8TestInfoEE9constructIS3_IRKS3_EEEvPT_DpOT0_
FN:119,_ZN9__gnu_cxx13new_allocatorIPcE9constructIS1_IS1_EEEvPT_DpOT0_
FN:119,_ZN9__gnu_cxx13new_allocatorIPN7testing11EnvironmentEE9constructIS3_IRKS3_EEEvPT_DpOT0_
FN:119,_ZN9__gnu_cxx13new_allocatorIPN7testing17TestEventListenerEE9constructIS3_IRKS3_EEEvPT_DpOT0_
FN:119,_ZN9__gnu_cxx13new_allocatorIPN7testing8TestCaseEE9constructIS3_IS3_EEEvPT_DpOT0_
FN:119,_ZN9__gnu_cxx13new_allocatorIN7testing12TestPropertyEE9constructIS2_IRKS2_EEEvPT_DpOT0_
FN:119,_ZN9__gnu_cxx13new_allocatorIiE9constructIiIiEEEvPT_DpOT0_
FN:119,_ZN9__gnu_cxx13new_allocatorIN7testing8internal9TraceInfoEE9constructIS3_IRKS3_EEEvPT_DpOT0_
FN:119,_ZN9__gnu_cxx13new_allocatorISsE9constructISsISsEEEvPT_DpOT0_
FN:124,_ZN9__gnu_cxx13new_allocatorIiE7destroyIiEEvPT_
FN:124,_ZN9__gnu_cxx13new_allocatorIPN7testing8TestCaseEE7destroyIS3_EEvPT_
FN:124,_ZN9__gnu_cxx13new_allocatorISt13_Rb_tree_nodeISsEE7destroyIS2_EEvPT_
FN:124,_ZN9__gnu_cxx13new_allocatorISsE7destroyISsEEvPT_
FN:124,_ZN9__gnu_cxx13new_allocatorIPN7testing8TestInfoEE7destroyIS3_EEvPT_
FN:124,_ZN9__gnu_cxx13new_allocatorIPN7testing17TestEventListenerEE7destroyIS3_EEvPT_
FN:124,_ZN9__gnu_cxx13new_allocatorIN7testing14TestPartResultEE7destroyIS2_EEvPT_
FN:124,_ZN9__gnu_cxx13new_allocatorIPcE7destroyIS1_EEvPT_
FN:124,_ZN9__gnu_cxx13new_allocatorIN7testing12TestPropertyEE7destroyIS2_EEvPT_
FN:124,_ZN9__gnu_cxx13new_allocatorIN7testing8internal9TraceInfoEE7destroyIS3_EEvPT_
FN:124,_ZN9__gnu_cxx13new_allocatorIPN7testing11EnvironmentEE7destroyIS3_EEvPT_
FNDA:1,_ZN9__gnu_cxx13new_allocatorIN7testing8internal9TraceInfoEEC2Ev
FNDA:0,_ZN9__gnu_cxx13new_allocatorISt13_Rb_tree_nodeISsEEC2Ev
FNDA:0,_ZN9__gnu_cxx13new_allocatorIPcEC2Ev
FNDA:1,_ZN9__gnu_cxx13new_allocatorIPN7testing8TestCaseEEC2Ev
FNDA:1,_ZN9__gnu_cxx13new_allocatorIPN7testing11EnvironmentEEC2Ev
FNDA:1,_ZN9__gnu_cxx13new_allocatorIPN7testing17TestEventListenerEEC2Ev
FNDA:2,_ZN9__gnu_cxx13new_allocatorIiEC2Ev
FNDA:1,_ZN9__gnu_cxx13new_allocatorIPN7testing8TestInfoEEC2Ev
FNDA:3,_ZN9__gnu_cxx13new_allocatorIN7testing12TestPropertyEEC2Ev
FNDA:3,_ZN9__gnu_cxx13new_allocatorIN7testing14TestPartResultEEC2Ev
FNDA:1,_ZN9__gnu_cxx13new_allocatorIPN7testing8internal29ParameterizedTestCaseInfoBaseEEC2Ev
FNDA:1,_ZN9__gnu_cxx13new_allocatorISsEC2Ev
FNDA:0,_ZN9__gnu_cxx13new_allocatorIwEC2Ev
FNDA:0,_ZN9__gnu_cxx13new_allocatorIcEC2Ev
FNDA:0,_ZN9__gnu_cxx13new_allocatorIN7testing8internal9TraceInfoEEC2ERKS4_
FNDA:0,_ZN9__gnu_cxx13new_allocatorISsEC2ERKS1_
FNDA:0,_ZN9__gnu_cxx13new_allocatorIwEC2ERKS1_
FNDA:0,_ZN9__gnu_cxx13new_allocatorIcEC2ERKS1_
FNDA:1,_ZN9__gnu_cxx13new_allocatorIN7testing8internal9TraceInfoEED2Ev
FNDA:0,_ZN9__gnu_cxx13new_allocatorIPcED2Ev
FNDA:1,_ZN9__gnu_cxx13new_allocatorIPN7testing8TestCaseEED2Ev
FNDA:1,_ZN9__gnu_cxx13new_allocatorIPN7testing11EnvironmentEED2Ev
FNDA:1,_ZN9__gnu_cxx13new_allocatorIPN7testing17TestEventListenerEED2Ev
FNDA:2,_ZN9__gnu_cxx13new_allocatorIiED2Ev
FNDA:1,_ZN9__gnu_cxx13new_allocatorIPN7testing8TestInfoEED2Ev
FNDA:3,_ZN9__gnu_cxx13new_allocatorIN7testing12TestPropertyEED2Ev
FNDA:3,_ZN9__gnu_cxx13new_allocatorIN7testing14TestPartResultEED2Ev
FNDA:1,_ZN9__gnu_cxx13new_allocatorIPN7testing8internal29ParameterizedTestCaseInfoBaseEED2Ev
FNDA:0,_ZN9__gnu_cxx13new_allocatorISt13_Rb_tree_nodeISsEED2Ev
FNDA:1,_ZN9__gnu_cxx13new_allocatorISsED2Ev
FNDA:0,_ZN9__gnu_cxx13new_allocatorIwED2Ev
FNDA:0,_ZN9__gnu_cxx13new_allocatorIcED2Ev
FNDA:0,_ZN9__gnu_cxx13new_allocatorISt13_Rb_tree_nodeISsEE8allocateEmPKv
FNDA:0,_ZN9__gnu_cxx13new_allocatorIPcE8allocateEmPKv
FNDA:1,_ZN9__gnu_cxx13new_allocatorISsE8allocateEmPKv
FNDA:2,_ZN9__gnu_cxx13new_allocatorIiE8allocateEmPKv
FNDA:1,_ZN9__gnu_cxx13new_allocatorIPN7testing8TestCaseEE8allocateEmPKv
FNDA:0,_ZN9__gnu_cxx13new_allocatorIN7testing8internal9TraceInfoEE8allocateEmPKv
FNDA:0,_ZN9__gnu_cxx13new_allocatorIPN7testing11EnvironmentEE8allocateEmPKv
FNDA:1,_ZN9__gnu_cxx13new_allocatorIPN7testing17TestEventListenerEE8allocateEmPKv
FNDA:1,_ZN9__gnu_cxx13new_allocatorIPN7testing8TestInfoEE8allocateEmPKv
FNDA:0,_ZN9__gnu_cxx13new_allocatorIN7testing12TestPropertyEE8allocateEmPKv
FNDA:0,_ZN9__gnu_cxx13new_allocatorIN7testing14TestPartResultEE8allocateEmPKv
FNDA:0,_ZN9__gnu_cxx13new_allocatorISt13_Rb_tree_nodeISsEE10deallocateEPS2_m
FNDA:0,_ZN9__gnu_cxx13new_allocatorIPcE10deallocateEPS1_m
FNDA:1,_ZN9__gnu_cxx13new_allocatorIPN7testing8TestCaseEE10deallocateEPS3_m
FNDA:0,_ZN9__gnu_cxx13new_allocatorIN7testing8internal9TraceInfoEE10deallocateEPS3_m
FNDA:0,_ZN9__gnu_cxx13new_allocatorIPN7testing11EnvironmentEE10deallocateEPS3_m
FNDA:1,_ZN9__gnu_cxx13new_allocatorIPN7testing17TestEventListenerEE10deallocateEPS3_m
FNDA:2,_ZN9__gnu_cxx13new_allocatorIiE10deallocateEPim
FNDA:1,_ZN9__gnu_cxx13new_allocatorIPN7testing8TestInfoEE10deallocateEPS3_m
FNDA:1,_ZN9__gnu_cxx13new_allocatorISsE10deallocateEPSsm
FNDA:0,_ZN9__gnu_cxx13new_allocatorIN7testing12TestPropertyEE10deallocateEPS2_m
FNDA:0,_ZN9__gnu_cxx13new_allocatorIN7testing14TestPartResultEE10deallocateEPS2_m
FNDA:0,_ZN9__gnu_cxx13new_allocatorIPN7testing8internal29ParameterizedTestCaseInfoBaseEE10deallocateEPS4_m
FNDA:0,_ZNK9__gnu_cxx13new_allocatorISt13_Rb_tree_nodeISsEE8max_sizeEv
FNDA:0,_ZNK9__gnu_cxx13new_allocatorIPcE8max_sizeEv
FNDA:3,_ZNK9__gnu_cxx13new_allocatorISsE8max_sizeEv
FNDA:6,_ZNK9__gnu_cxx13new_allocatorIiE8max_sizeEv
FNDA:3,_ZNK9__gnu_cxx13new_allocatorIPN7testing8TestCaseEE8max_sizeEv
FNDA:0,_ZNK9__gnu_cxx13new_allocatorIN7testing8internal9TraceInfoEE8max_sizeEv
FNDA:0,_ZNK9__gnu_cxx13new_allocatorIPN7testing11EnvironmentEE8max_sizeEv
FNDA:3,_ZNK9__gnu_cxx13new_allocatorIPN7testing17TestEventListenerEE8max_sizeEv
FNDA:3,_ZNK9__gnu_cxx13new_allocatorIPN7testing8TestInfoEE8max_sizeEv
FNDA:0,_ZNK9__gnu_cxx13new_allocatorIN7testing12TestPropertyEE8max_sizeEv
FNDA:0,_ZNK9__gnu_cxx13new_allocatorIN7testing14TestPartResultEE8max_sizeEv
FNDA:0,_ZN9__gnu_cxx13new_allocatorISt13_Rb_tree_nodeISsEE9constructIS2_IRKSsEEEvPT_DpOT0_
FNDA:1,_ZN9__gnu_cxx13new_allocatorISsE9constructISsISsEEEvPT_DpOT0_
FNDA:0,_ZN9__gnu_cxx13new_allocatorIPcE9constructIS1_IS1_EEEvPT_DpOT0_
FNDA:0,_ZN9__gnu_cxx13new_allocatorIPN7testing8TestCaseEE9constructIS3_IS3_EEEvPT_DpOT0_
FNDA:2,_ZN9__gnu_cxx13new_allocatorIiE9constructIiIiEEEvPT_DpOT0_
FNDA:1,_ZN9__gnu_cxx13new_allocatorIPN7testing8TestCaseEE9constructIS3_IRKS3_EEEvPT_DpOT0_
FNDA:0,_ZN9__gnu_cxx13new_allocatorIN7testing8internal9TraceInfoEE9constructIS3_IRKS3_EEEvPT_DpOT0_
FNDA:0,_ZN9__gnu_cxx13new_allocatorIPN7testing11EnvironmentEE9constructIS3_IRKS3_EEEvPT_DpOT0_
FNDA:1,_ZN9__gnu_cxx13new_allocatorIPN7testing17TestEventListenerEE9constructIS3_IRKS3_EEEvPT_DpOT0_
FNDA:1,_ZN9__gnu_cxx13new_allocatorIPN7testing8TestInfoEE9constructIS3_IRKS3_EEEvPT_DpOT0_
FNDA:0,_ZN9__gnu_cxx13new_allocatorIN7testing12TestPropertyEE9constructIS2_IRKS2_EEEvPT_DpOT0_
FNDA:0,_ZN9__gnu_cxx13new_allocatorIN7testing14TestPartResultEE9constructIS2_IRKS2_EEEvPT_DpOT0_
FNDA:0,_ZN9__gnu_cxx13new_allocatorISsE7destroyISsEEvPT_
FNDA:0,_ZN9__gnu_cxx13new_allocatorIPcE7destroyIS1_EEvPT_
FNDA:0,_ZN9__gnu_cxx13new_allocatorIiE7destroyIiEEvPT_
FNDA:0,_ZN9__gnu_cxx13new_allocatorIPN7testing8TestCaseEE7destroyIS3_EEvPT_
FNDA:0,_ZN9__gnu_cxx13new_allocatorIPN7testing11EnvironmentEE7destroyIS3_EEvPT_
FNDA:0,_ZN9__gnu_cxx13new_allocatorIPN7testing8TestInfoEE7destroyIS3_EEvPT_
FNDA:0,_ZN9__gnu_cxx13new_allocatorIN7testing12TestPropertyEE7destroyIS2_EEvPT_
FNDA:0,_ZN9__gnu_cxx13new_allocatorIN7testing14TestPartResultEE7destroyIS2_EEvPT_
FNDA:0,_ZN9__gnu_cxx13new_allocatorISt13_Rb_tree_nodeISsEE7destroyIS2_EEvPT_
FNDA:0,_ZN9__gnu_cxx13new_allocatorIN7testing8internal9TraceInfoEE7destroyIS3_EEvPT_
FNDA:0,_ZN9__gnu_cxx13new_allocatorIPN7testing17TestEventListenerEE7destroyIS3_EEvPT_
FNF:89
FNH:40
DA:79,15
DA:81,0
DA:86,15
DA:99,6
DA:101,6
DA:102,0
DA:104,6
DA:109,6
DA:110,6
DA:113,18
DA:114,18
DA:119,6
DA:120,6
DA:124,0
LF:14
LH:11
end_of_record
SF:/usr/include/c++/4.8.2/ext/type_traits.h
FN:150,_ZN9__gnu_cxx17__is_null_pointerIcEEbPT_
FN:150,_ZN9__gnu_cxx17__is_null_pointerIKcEEbPT_
FNDA:0,_ZN9__gnu_cxx17__is_null_pointerIcEEbPT_
FNDA:12,_ZN9__gnu_cxx17__is_null_pointerIKcEEbPT_
FNF:2
FNH:1
DA:150,12
DA:151,12
LF:2
LH:2
end_of_record
SF:/usr/include/c++/4.8.2/iomanip
FN:162,_ZSt7setfillIcESt8_SetfillIT_ES1_
FN:192,_ZSt12setprecisioni
FN:222,_ZSt4setwi
FNDA:0,_ZSt7setfillIcESt8_SetfillIT_ES1_
FNDA:42,_ZSt12setprecisioni
FNDA:0,_ZSt4setwi
FNF:3
FNH:1
DA:162,0
DA:163,0
DA:192,42
DA:193,42
DA:222,0
DA:223,0
LF:6
LH:2
end_of_record
SF:/usr/include/c++/4.8.2/iostream
DA:74,1
LF:1
LH:1
end_of_record
SF:/usr/include/c++/4.8.2/new
FN:109,_ZnwmPv
FN:115,_ZdlPvS_
FNDA:6,_ZnwmPv
FNDA:0,_ZdlPvS_
FNF:2
FNH:1
DA:109,6
DA:110,6
DA:115,0
LF:3
LH:2
end_of_record
SF:/usr/include/c++/4.8.2/sstream
FN:64,_ZNSt15basic_stringbufIcSt11char_traitsIcESaIcEED0Ev
FN:64,_ZNSt15basic_stringbufIcSt11char_traitsIcESaIcEED2Ev
FNDA:0,_ZNSt15basic_stringbufIcSt11char_traitsIcESaIcEED0Ev
FNDA:0,_ZNSt15basic_stringbufIcSt11char_traitsIcESaIcEED2Ev
FNF:2
FNH:0
DA:64,0
LF:1
LH:0
end_of_record
SF:/usr/include/c++/4.8.2/typeinfo
FN:120,_ZNKSt9type_infoeqERKS_
FNDA:0,_ZNKSt9type_infoeqERKS_
FNF:1
FNH:0
DA:120,0
DA:122,0
DA:123,0
DA:124,0
LF:4
LH:0
end_of_record
SF:/usr/include/c++/4.8.2/x86_64-redhat-linux/bits/gthr-default.h
FN:247,_ZL18__gthread_active_pv
FNDA:0,_ZL18__gthread_active_pv
FNF:1
FNH:0
DA:247,0
DA:251,0
LF:2
LH:0
end_of_record
SF:/home/vagrant/project/cleancode/201610/DupDetector/ut/tool/ut_framework/gmock/gmock/gtest/include/gtest/gtest-message.h
FN:85,_ZN7testing7MessageD2Ev
FN:96,_ZN7testing7MessageC2ERKS0_
FN:115,_ZN7testing7MessagelsIS0_EERS0_RKT_
FN:115,_ZN7testing7MessagelsIA30_cEERS0_RKT_
FN:115,_ZN7testing7MessagelsIA37_cEERS0_RKT_
FN:115,_ZN7testing7MessagelsINS_14TestPartResultEEERS0_RKT_
FN:115,_ZN7testing7MessagelsIA28_cEERS0_RKT_
FN:115,_ZN7testing7MessagelsIA64_cEERS0_RKT_
FN:115,_ZN7testing7MessagelsIdEERS0_RKT_
FN:115,_ZN7testing7MessagelsIA35_cEERS0_RKT_
FN:115,_ZN7testing7MessagelsIA6_cEERS0_RKT_
FN:115,_ZN7testing7MessagelsIA62_cEERS0_RKT_
FN:115,_ZN7testing7MessagelsIA25_cEERS0_RKT_
FN:115,_ZN7testing7MessagelsIA48_cEERS0_RKT_
FN:115,_ZN7testing7MessagelsIA9_cEERS0_RKT_
FN:115,_ZN7testing7MessagelsIA3_cEERS0_RKT_
FN:115,_ZN7testing7MessagelsIA24_cEERS0_RKT_
FN:115,_ZN7testing7MessagelsIA33_cEERS0_RKT_
FN:115,_ZN7testing7MessagelsIA34_cEERS0_RKT_
FN:115,_ZN7testing7MessagelsIA68_cEERS0_RKT_
FN:115,_ZN7testing7MessagelsIA4_cEERS0_RKT_
FN:115,_ZN7testing7MessagelsIA12_cEERS0_RKT_
FN:115,_ZN7testing7MessagelsIA2_cEERS0_RKT_
FN:115,_ZN7testing7MessagelsIA59_cEERS0_RKT_
FN:115,_ZN7testing7MessagelsIA8_cEERS0_RKT_
FN:115,_ZN7testing7MessagelsIcEERS0_RKT_
FN:115,_ZN7testing7MessagelsImEERS0_RKT_
FN:115,_ZN7testing7MessagelsIA14_cEERS0_RKT_
FN:115,_ZN7testing7MessagelsIA47_cEERS0_RKT_
FN:115,_ZN7testing7MessagelsIA16_cEERS0_RKT_
FN:115,_ZN7testing7MessagelsIA22_cEERS0_RKT_
FN:115,_ZN7testing7MessagelsIA19_cEERS0_RKT_
FN:115,_ZN7testing7MessagelsIiEERS0_RKT_
FN:115,_ZN7testing7MessagelsIA63_cEERS0_RKT_
FN:115,_ZN7testing7MessagelsIA5_cEERS0_RKT_
FN:115,_ZN7testing7MessagelsIA10_cEERS0_RKT_
FN:115,_ZN7testing7MessagelsIA15_cEERS0_RKT_
FN:115,_ZN7testing7MessagelsISsEERS0_RKT_
FN:115,_ZN7testing7MessagelsIA31_cEERS0_RKT_
FN:115,_ZN7testing7MessagelsIA18_cEERS0_RKT_
FN:115,_ZN7testing7MessagelsIxEERS0_RKT_
FN:115,_ZN7testing7MessagelsIA20_cEERS0_RKT_
FN:115,_ZN7testing7MessagelsIA39_cEERS0_RKT_
FN:115,_ZN7testing7MessagelsIA11_cEERS0_RKT_
FN:115,_ZN7testing7MessagelsIA40_cEERS0_RKT_
FN:115,_ZN7testing7MessagelsIA29_cEERS0_RKT_
FN:115,_ZN7testing7MessagelsIA21_cEERS0_RKT_
FN:115,_ZN7testing7MessagelsIA256_cEERS0_RKT_
FN:115,_ZN7testing7MessagelsIA50_cEERS0_RKT_
FN:115,_ZN7testing7MessagelsIA13_cEERS0_RKT_
FN:115,_ZN7testing7MessagelsIA7_cEERS0_RKT_
FN:115,_ZN7testing7MessagelsIA41_cEERS0_RKT_
FN:115,_ZN7testing7MessagelsIA51_cEERS0_RKT_
FN:115,_ZN7testing7MessagelsIA17_cEERS0_RKT_
FN:115,_ZN7testing7MessagelsIA52_cEERS0_RKT_
FN:115,_ZN7testing7MessagelsIA53_cEERS0_RKT_
FN:149,_ZN7testing7MessagelsIKcEERS0_RKPT_
FN:149,_ZN7testing7MessagelsIcEERS0_RKPT_
FN:232,_ZN7testinglsERSoRKNS_7MessageE
FN:243,_ZN7testing8internal18StreamableToStringIPcEESsRKT_
FN:243,_ZN7testing8internal18StreamableToStringIxEESsRKT_
FN:243,_ZN7testing8internal18StreamableToStringIPwEESsRKT_
FN:243,_ZN7testing8internal18StreamableToStringIiEESsRKT_
FNDA:0,_ZN7testing7MessageD2Ev
FNDA:0,_ZN7testing7MessageC2ERKS0_
FNDA:0,_ZN7testing7MessagelsIA29_cEERS0_RKT_
FNDA:0,_ZN7testing7MessagelsIdEERS0_RKT_
FNDA:0,_ZN7testing7MessagelsIA14_cEERS0_RKT_
FNDA:3,_ZN7testing7MessagelsIxEERS0_RKT_
FNDA:0,_ZN7testing7MessagelsIA34_cEERS0_RKT_
FNDA:0,_ZN7testing7MessagelsIA20_cEERS0_RKT_
FNDA:0,_ZN7testing7MessagelsIA50_cEERS0_RKT_
FNDA:0,_ZN7testing7MessagelsIS0_EERS0_RKT_
FNDA:0,_ZN7testing7MessagelsIA52_cEERS0_RKT_
FNDA:0,_ZN7testing7MessagelsIA51_cEERS0_RKT_
FNDA:0,_ZN7testing7MessagelsIA47_cEERS0_RKT_
FNDA:0,_ZN7testing7MessagelsIA28_cEERS0_RKT_
FNDA:0,_ZN7testing7MessagelsIA256_cEERS0_RKT_
FNDA:0,_ZN7testing7MessagelsImEERS0_RKT_
FNDA:0,_ZN7testing7MessagelsIA53_cEERS0_RKT_
FNDA:0,_ZN7testing7MessagelsIA25_cEERS0_RKT_
FNDA:0,_ZN7testing7MessagelsIA21_cEERS0_RKT_
FNDA:0,_ZN7testing7MessagelsIA35_cEERS0_RKT_
FNDA:0,_ZN7testing7MessagelsIA16_cEERS0_RKT_
FNDA:0,_ZN7testing7MessagelsIA48_cEERS0_RKT_
FNDA:0,_ZN7testing7MessagelsIA9_cEERS0_RKT_
FNDA:0,_ZN7testing7MessagelsIA19_cEERS0_RKT_
FNDA:0,_ZN7testing7MessagelsIA41_cEERS0_RKT_
FNDA:0,_ZN7testing7MessagelsIA15_cEERS0_RKT_
FNDA:0,_ZN7testing7MessagelsIA8_cEERS0_RKT_
FNDA:0,_ZN7testing7MessagelsIA4_cEERS0_RKT_
FNDA:15,_ZN7testing7MessagelsIA7_cEERS0_RKT_
FNDA:0,_ZN7testing7MessagelsIA68_cEERS0_RKT_
FNDA:0,_ZN7testing7MessagelsIA13_cEERS0_RKT_
FNDA:0,_ZN7testing7MessagelsIA37_cEERS0_RKT_
FNDA:0,_ZN7testing7MessagelsIA22_cEERS0_RKT_
FNDA:0,_ZN7testing7MessagelsIA33_cEERS0_RKT_
FNDA:0,_ZN7testing7MessagelsIA63_cEERS0_RKT_
FNDA:0,_ZN7testing7MessagelsIA31_cEERS0_RKT_
FNDA:0,_ZN7testing7MessagelsIA62_cEERS0_RKT_
FNDA:0,_ZN7testing7MessagelsIA39_cEERS0_RKT_
FNDA:0,_ZN7testing7MessagelsIA30_cEERS0_RKT_
FNDA:0,_ZN7testing7MessagelsIA6_cEERS0_RKT_
FNDA:0,_ZN7testing7MessagelsIA24_cEERS0_RKT_
FNDA:0,_ZN7testing7MessagelsIA59_cEERS0_RKT_
FNDA:0,_ZN7testing7MessagelsIA64_cEERS0_RKT_
FNDA:0,_ZN7testing7MessagelsIA18_cEERS0_RKT_
FNDA:0,_ZN7testing7MessagelsIA40_cEERS0_RKT_
FNDA:0,_ZN7testing7MessagelsIA5_cEERS0_RKT_
FNDA:0,_ZN7testing7MessagelsIA3_cEERS0_RKT_
FNDA:0,_ZN7testing7MessagelsIA17_cEERS0_RKT_
FNDA:0,_ZN7testing7MessagelsIA12_cEERS0_RKT_
FNDA:280,_ZN7testing7MessagelsIcEERS0_RKT_
FNDA:0,_ZN7testing7MessagelsINS_14TestPartResultEEERS0_RKT_
FNDA:0,_ZN7testing7MessagelsIA10_cEERS0_RKT_
FNDA:7,_ZN7testing7MessagelsIiEERS0_RKT_
FNDA:0,_ZN7testing7MessagelsIA2_cEERS0_RKT_
FNDA:0,_ZN7testing7MessagelsISsEERS0_RKT_
FNDA:0,_ZN7testing7MessagelsIA11_cEERS0_RKT_
FNDA:2,_ZN7testing7MessagelsIcEERS0_RKPT_
FNDA:15,_ZN7testing7MessagelsIKcEERS0_RKPT_
FNDA:0,_ZN7testinglsERSoRKNS_7MessageE
FNDA:0,_ZN7testing8internal18StreamableToStringIPwEESsRKT_
FNDA:2,_ZN7testing8internal18StreamableToStringIPcEESsRKT_
FNDA:3,_ZN7testing8internal18StreamableToStringIxEESsRKT_
FNDA:7,_ZN7testing8internal18StreamableToStringIiEESsRKT_
FNF:63
FNH:9
DA:85,0
DA:96,0
DA:97,0
DA:98,0
DA:115,305
DA:131,305
DA:132,305
DA:149,17
DA:150,17
DA:151,0
DA:153,17
DA:155,17
DA:232,0
DA:233,0
DA:243,12
DA:244,12
LF:16
LH:9
end_of_record
SF:/home/vagrant/project/cleancode/201610/DupDetector/ut/tool/ut_framework/gmock/gmock/gtest/include/gtest/gtest-printers.h
FN:218,_ZN16testing_internal26DefaultPrintNonContainerToIxEEvRKT_PSo
FN:335,_ZN7testing8internal14DefaultPrintToIxEEvcNS0_13bool_constantILb0EEERKT_PSo
FN:353,_ZN7testing8internal7PrintToIxEEvRKT_PSo
FN:464,_ZN7testing8internal7PrintToERKSsPSo
FN:478,_ZN7testing8internal7PrintToERKSbIwSt11char_traitsIwESaIwEEPSo
FN:591,_ZN7testing8internal16UniversalPrinterISsE5PrintERKSsPSo
FN:591,_ZN7testing8internal16UniversalPrinterIxE5PrintERKxPSo
FN:591,_ZN7testing8internal16UniversalPrinterISbIwSt11char_traitsIwESaIwEEE5PrintERKS5_PSo
FN:683,_ZN7testing8internal21UniversalTersePrinterIxE5PrintERKxPSo
FN:704,_ZN7testing8internal21UniversalTersePrinterIPKcE5PrintES3_PSo
FN:724,_ZN7testing8internal21UniversalTersePrinterIPKwE5PrintES3_PSo
FN:752,_ZN7testing8internal14UniversalPrintISbIwSt11char_traitsIwESaIwEEEEvRKT_PSo
FN:752,_ZN7testing8internal14UniversalPrintISsEEvRKT_PSo
FN:752,_ZN7testing8internal14UniversalPrintIxEEvRKT_PSo
FN:847,_ZN7testing13PrintToStringIPKcEESsRKT_
FN:847,_ZN7testing13PrintToStringIPKwEESsRKT_
FN:847,_ZN7testing13PrintToStringIxEESsRKT_
FNDA:0,_ZN16testing_internal26DefaultPrintNonContainerToIxEEvRKT_PSo
FNDA:0,_ZN7testing8internal14DefaultPrintToIxEEvcNS0_13bool_constantILb0EEERKT_PSo
FNDA:0,_ZN7testing8internal7PrintToIxEEvRKT_PSo
FNDA:0,_ZN7testing8internal7PrintToERKSsPSo
FNDA:0,_ZN7testing8internal7PrintToERKSbIwSt11char_traitsIwESaIwEEPSo
FNDA:0,_ZN7testing8internal16UniversalPrinterIxE5PrintERKxPSo
FNDA:0,_ZN7testing8internal16UniversalPrinterISbIwSt11char_traitsIwESaIwEEE5PrintERKS5_PSo
FNDA:0,_ZN7testing8internal16UniversalPrinterISsE5PrintERKSsPSo
FNDA:0,_ZN7testing8internal21UniversalTersePrinterIxE5PrintERKxPSo
FNDA:0,_ZN7testing8internal21UniversalTersePrinterIPKcE5PrintES3_PSo
FNDA:0,_ZN7testing8internal21UniversalTersePrinterIPKwE5PrintES3_PSo
FNDA:0,_ZN7testing8internal14UniversalPrintIxEEvRKT_PSo
FNDA:0,_ZN7testing8internal14UniversalPrintISbIwSt11char_traitsIwESaIwEEEEvRKT_PSo
FNDA:0,_ZN7testing8internal14UniversalPrintISsEEvRKT_PSo
FNDA:0,_ZN7testing13PrintToStringIxEESsRKT_
FNDA:0,_ZN7testing13PrintToStringIPKwEESsRKT_
FNDA:0,_ZN7testing13PrintToStringIPKcEESsRKT_
FNF:17
FNH:0
DA:218,0
DA:245,0
DA:246,0
DA:335,0
DA:338,0
DA:339,0
DA:353,0
DA:376,0
DA:377,0
DA:464,0
DA:465,0
DA:466,0
DA:478,0
DA:479,0
DA:480,0
DA:591,0
DA:600,0
DA:601,0
DA:683,0
DA:684,0
DA:685,0
DA:704,0
DA:705,0
DA:706,0
DA:708,0
DA:710,0
DA:724,0
DA:725,0
DA:726,0
DA:728,0
DA:730,0
DA:752,0
DA:756,0
DA:757,0
DA:847,0
DA:848,0
DA:849,0
DA:850,0
LF:38
LH:0
end_of_record
SF:/home/vagrant/project/cleancode/201610/DupDetector/ut/tool/ut_framework/gmock/gmock/gtest/include/gtest/gtest-test-part.h
FN:47,_ZN7testing14TestPartResultC2EOS0_
FN:47,_ZN7testing14TestPartResultC2ERKS0_
FN:47,_ZN7testing14TestPartResultD2Ev
FN:60,_ZN7testing14TestPartResultC2ENS0_4TypeEPKciS3_
FN:72,_ZNK7testing14TestPartResult4typeEv
FN:76,_ZNK7testing14TestPartResult9file_nameEv
FN:82,_ZNK7testing14TestPartResult11line_numberEv
FN:85,_ZNK7testing14TestPartResult7summaryEv
FN:88,_ZNK7testing14TestPartResult7messageEv
FN:94,_ZNK7testing14TestPartResult6failedEv
FN:97,_ZNK7testing14TestPartResult17nonfatally_failedEv
FN:100,_ZNK7testing14TestPartResult14fatally_failedEv
FN:146,_ZN7testing31TestPartResultReporterInterfaceC2Ev
FN:148,_ZN7testing31TestPartResultReporterInterfaceD2Ev
FN:148,_ZN7testing31TestPartResultReporterInterfaceD0Ev
FNDA:0,_ZN7testing14TestPartResultC2ERKS0_
FNDA:0,_ZN7testing14TestPartResultC2EOS0_
FNDA:0,_ZN7testing14TestPartResultD2Ev
FNDA:0,_ZN7testing14TestPartResultC2ENS0_4TypeEPKciS3_
FNDA:0,_ZNK7testing14TestPartResult4typeEv
FNDA:0,_ZNK7testing14TestPartResult9file_nameEv
FNDA:0,_ZNK7testing14TestPartResult11line_numberEv
FNDA:0,_ZNK7testing14TestPartResult7summaryEv
FNDA:0,_ZNK7testing14TestPartResult7messageEv
FNDA:0,_ZNK7testing14TestPartResult6failedEv
FNDA:0,_ZNK7testing14TestPartResult17nonfatally_failedEv
FNDA:0,_ZNK7testing14TestPartResult14fatally_failedEv
FNDA:2,_ZN7testing31TestPartResultReporterInterfaceC2Ev
FNDA:0,_ZN7testing31TestPartResultReporterInterfaceD0Ev
FNDA:2,_ZN7testing31TestPartResultReporterInterfaceD2Ev
FNF:15
FNH:2
DA:47,0
DA:60,0
DA:68,0
DA:69,0
DA:72,0
DA:76,0
DA:77,0
DA:82,0
DA:85,0
DA:88,0
DA:94,0
DA:97,0
DA:100,0
DA:146,2
DA:148,2
LF:15
LH:2
end_of_record
SF:/home/vagrant/project/cleancode/201610/DupDetector/ut/tool/ut_framework/gmock/gmock/gtest/include/gtest/gtest.h
FN:256,_ZN7testing15AssertionResultD2Ev
FN:262,_ZN7testing15AssertionResultC2Eb
FN:265,_ZNK7testing15AssertionResultcvbEv
FN:274,_ZNK7testing15AssertionResult7messageEv
FN:279,_ZNK7testing15AssertionResult15failure_messageEv
FN:282,_ZN7testing15AssertionResultlsIA9_cEERS0_RKT_
FN:282,_ZN7testing15AssertionResultlsIdEERS0_RKT_
FN:282,_ZN7testing15AssertionResultlsISbIwSt11char_traitsIwESaIwEEEERS0_RKT_
FN:282,_ZN7testing15AssertionResultlsIA7_cEERS0_RKT_
FN:282,_ZN7testing15AssertionResultlsIA14_cEERS0_RKT_
FN:282,_ZN7testing15AssertionResultlsIA3_cEERS0_RKT_
FN:282,_ZN7testing15AssertionResultlsIPKcEERS0_RKT_
FN:282,_ZN7testing15AssertionResultlsIA5_cEERS0_RKT_
FN:282,_ZN7testing15AssertionResultlsIA6_cEERS0_RKT_
FN:282,_ZN7testing15AssertionResultlsIA29_cEERS0_RKT_
FN:282,_ZN7testing15AssertionResultlsIA24_cEERS0_RKT_
FN:282,_ZN7testing15AssertionResultlsINS_14TestPartResultEEERS0_RKT_
FN:282,_ZN7testing15AssertionResultlsIA2_cEERS0_RKT_
FN:282,_ZN7testing15AssertionResultlsIA16_cEERS0_RKT_
FN:282,_ZN7testing15AssertionResultlsIA13_cEERS0_RKT_
FN:282,_ZN7testing15AssertionResultlsIA11_cEERS0_RKT_
FN:282,_ZN7testing15AssertionResultlsIA17_cEERS0_RKT_
FN:282,_ZN7testing15AssertionResultlsIA15_cEERS0_RKT_
FN:282,_ZN7testing15AssertionResultlsISsEERS0_RKT_
FN:282,_ZN7testing15AssertionResultlsIA12_cEERS0_RKT_
FN:282,_ZN7testing15AssertionResultlsIPKwEERS0_RKT_
FN:282,_ZN7testing15AssertionResultlsINS_7MessageEEERS0_RKT_
FN:297,_ZN7testing15AssertionResult13AppendMessageERKNS_7MessageE
FN:429,_ZN7testing4Test11DeleteSelf_Ev
FN:451,_ZN7testing4Test5SetupEv
FN:463,_ZN7testing12TestPropertyC2ERKS0_
FN:463,_ZN7testing12TestPropertyD2Ev
FN:463,_ZN7testing12TestPropertyC2EOS0_
FN:468,_ZN7testing12TestPropertyC2ERKSsS2_
FN:473,_ZNK7testing12TestProperty3keyEv
FN:478,_ZNK7testing12TestProperty5valueEv
FN:483,_ZN7testing12TestProperty8SetValueERKSs
FN:516,_ZNK7testing10TestResult6PassedEv
FN:528,_ZNK7testing10TestResult12elapsed_timeEv
FN:561,_ZN7testing10TestResult16set_elapsed_timeEx
FN:582,_ZNK7testing10TestResult16death_test_countEv
FN:585,_ZN7testing10TestResult26increment_death_test_countEv
FN:628,_ZNK7testing8TestInfo14test_case_nameEv
FN:631,_ZNK7testing8TestInfo4nameEv
FN:635,_ZNK7testing8TestInfo10type_paramEv
FN:643,_ZNK7testing8TestInfo11value_paramEv
FN:665,_ZNK7testing8TestInfo10should_runEv
FN:668,_ZNK7testing8TestInfo13is_reportableEv
FN:676,_ZNK7testing8TestInfo6resultEv
FN:707,_ZN7testing8TestInfo26increment_death_test_countEv
FN:715,_ZN7testing8TestInfo15ClearTestResultEPS0_
FN:768,_ZNK7testing8TestCase4nameEv
FN:772,_ZNK7testing8TestCase10type_paramEv
FN:779,_ZNK7testing8TestCase10should_runEv
FN:803,_ZNK7testing8TestCase6PassedEv
FN:806,_ZNK7testing8TestCase6FailedEv
FN:809,_ZNK7testing8TestCase12elapsed_timeEv
FN:817,_ZNK7testing8TestCase18ad_hoc_test_resultEv
FN:824,_ZN7testing8TestCase14test_info_listEv
FN:827,_ZNK7testing8TestCase14test_info_listEv
FN:836,_ZN7testing8TestCase14set_should_runEb
FN:846,_ZN7testing8TestCase19ClearTestCaseResultEPS0_
FN:855,_ZN7testing8TestCase16RunSetUpTestCaseEv
FN:859,_ZN7testing8TestCase19RunTearDownTestCaseEv
FN:862,_ZN7testing8TestCase10TestPassedEPKNS_8TestInfoE
FN:867,_ZN7testing8TestCase10TestFailedEPKNS_8TestInfoE
FN:873,_ZN7testing8TestCase22TestReportableDisabledEPKNS_8TestInfoE
FN:878,_ZN7testing8TestCase12TestDisabledEPKNS_8TestInfoE
FN:883,_ZN7testing8TestCase14TestReportableEPKNS_8TestInfoE
FN:888,_ZN7testing8TestCase13ShouldRunTestEPKNS_8TestInfoE
FN:959,_ZN7testing17TestEventListenerC2Ev
FN:961,_ZN7testing17TestEventListenerD2Ev
FN:961,_ZN7testing17TestEventListenerD0Ev
FN:1012,_ZN7testing22EmptyTestEventListenerD2Ev
FN:1012,_ZN7testing22EmptyTestEventListenerC2Ev
FN:1012,_ZN7testing22EmptyTestEventListenerD0Ev
FN:1014,_ZN7testing22EmptyTestEventListener18OnTestProgramStartERKNS_8UnitTestE
FN:1015,_ZN7testing22EmptyTestEventListener20OnTestIterationStartERKNS_8UnitTestEi
FN:1017,_ZN7testing22EmptyTestEventListener24OnEnvironmentsSetUpStartERKNS_8UnitTestE
FN:1018,_ZN7testing22EmptyTestEventListener22OnEnvironmentsSetUpEndERKNS_8UnitTestE
FN:1019,_ZN7testing22EmptyTestEventListener15OnTestCaseStartERKNS_8TestCaseE
FN:1020,_ZN7testing22EmptyTestEventListener11OnTestStartERKNS_8TestInfoE
FN:1021,_ZN7testing22EmptyTestEventListener16OnTestPartResultERKNS_14TestPartResultE
FN:1022,_ZN7testing22EmptyTestEventListener9OnTestEndERKNS_8TestInfoE
FN:1023,_ZN7testing22EmptyTestEventListener13OnTestCaseEndERKNS_8TestCaseE
FN:1024,_ZN7testing22EmptyTestEventListener27OnEnvironmentsTearDownStartERKNS_8UnitTestE
FN:1025,_ZN7testing22EmptyTestEventListener25OnEnvironmentsTearDownEndERKNS_8UnitTestE
FN:1026,_ZN7testing22EmptyTestEventListener18OnTestIterationEndERKNS_8UnitTestEi
FN:1028,_ZN7testing22EmptyTestEventListener16OnTestProgramEndERKNS_8UnitTestE
FN:1255,_ZN7testing8UnitTest4implEv
FN:1256,_ZNK7testing8UnitTest4implEv
FN:1357,_ZN7testing8internal19FormatForComparisonIxxE6FormatERKx
FN:1431,_ZN7testing8internal33FormatForComparisonFailureMessageIxxEESsRKT_RKT0_
FN:1741,_ZN7testing8internal12AssertHelper16AssertHelperDataD2Ev
FN:1742,_ZN7testing8internal12AssertHelper16AssertHelperDataC2ENS_14TestPartResult4TypeEPKciS6_
FNDA:0,_ZN7testing15AssertionResultD2Ev
FNDA:1,_ZN7testing15AssertionResultC2Eb
FNDA:0,_ZNK7testing15AssertionResultcvbEv
FNDA:0,_ZNK7testing15AssertionResult7messageEv
FNDA:0,_ZNK7testing15AssertionResult15failure_messageEv
FNDA:0,_ZN7testing15AssertionResultlsISbIwSt11char_traitsIwESaIwEEEERS0_RKT_
FNDA:0,_ZN7testing15AssertionResultlsIPKwEERS0_RKT_
FNDA:0,_ZN7testing15AssertionResultlsIA16_cEERS0_RKT_
FNDA:0,_ZN7testing15AssertionResultlsIA29_cEERS0_RKT_
FNDA:0,_ZN7testing15AssertionResultlsIA13_cEERS0_RKT_
FNDA:0,_ZN7testing15AssertionResultlsIA12_cEERS0_RKT_
FNDA:0,_ZN7testing15AssertionResultlsIA7_cEERS0_RKT_
FNDA:0,_ZN7testing15AssertionResultlsIA15_cEERS0_RKT_
FNDA:0,_ZN7testing15AssertionResultlsIA9_cEERS0_RKT_
FNDA:0,_ZN7testing15AssertionResultlsIA17_cEERS0_RKT_
FNDA:0,_ZN7testing15AssertionResultlsIdEERS0_RKT_
FNDA:0,_ZN7testing15AssertionResultlsIA5_cEERS0_RKT_
FNDA:0,_ZN7testing15AssertionResultlsIA6_cEERS0_RKT_
FNDA:0,_ZN7testing15AssertionResultlsIPKcEERS0_RKT_
FNDA:0,_ZN7testing15AssertionResultlsIA24_cEERS0_RKT_
FNDA:0,_ZN7testing15AssertionResultlsIA3_cEERS0_RKT_
FNDA:0,_ZN7testing15AssertionResultlsIA14_cEERS0_RKT_
FNDA:0,_ZN7testing15AssertionResultlsINS_14TestPartResultEEERS0_RKT_
FNDA:0,_ZN7testing15AssertionResultlsIA2_cEERS0_RKT_
FNDA:0,_ZN7testing15AssertionResultlsISsEERS0_RKT_
FNDA:0,_ZN7testing15AssertionResultlsIA11_cEERS0_RKT_
FNDA:0,_ZN7testing15AssertionResultlsINS_7MessageEEERS0_RKT_
FNDA:0,_ZN7testing15AssertionResult13AppendMessageERKNS_7MessageE
FNDA:1,_ZN7testing4Test11DeleteSelf_Ev
FNDA:0,_ZN7testing4Test5SetupEv
FNDA:0,_ZN7testing12TestPropertyC2EOS0_
FNDA:0,_ZN7testing12TestPropertyC2ERKS0_
FNDA:0,_ZN7testing12TestPropertyD2Ev
FNDA:0,_ZN7testing12TestPropertyC2ERKSsS2_
FNDA:0,_ZNK7testing12TestProperty3keyEv
FNDA:0,_ZNK7testing12TestProperty5valueEv
FNDA:0,_ZN7testing12TestProperty8SetValueERKSs
FNDA:2,_ZNK7testing10TestResult6PassedEv
FNDA:1,_ZNK7testing10TestResult12elapsed_timeEv
FNDA:1,_ZN7testing10TestResult16set_elapsed_timeEx
FNDA:0,_ZNK7testing10TestResult16death_test_countEv
FNDA:0,_ZN7testing10TestResult26increment_death_test_countEv
FNDA:3,_ZNK7testing8TestInfo14test_case_nameEv
FNDA:5,_ZNK7testing8TestInfo4nameEv
FNDA:1,_ZNK7testing8TestInfo10type_paramEv
FNDA:0,_ZNK7testing8TestInfo11value_paramEv
FNDA:8,_ZNK7testing8TestInfo10should_runEv
FNDA:1,_ZNK7testing8TestInfo13is_reportableEv
FNDA:7,_ZNK7testing8TestInfo6resultEv
FNDA:0,_ZN7testing8TestInfo26increment_death_test_countEv
FNDA:1,_ZN7testing8TestInfo15ClearTestResultEPS0_
FNDA:3,_ZNK7testing8TestCase4nameEv
FNDA:1,_ZNK7testing8TestCase10type_paramEv
FNDA:5,_ZNK7testing8TestCase10should_runEv
FNDA:0,_ZNK7testing8TestCase6PassedEv
FNDA:2,_ZNK7testing8TestCase6FailedEv
FNDA:1,_ZNK7testing8TestCase12elapsed_timeEv
FNDA:0,_ZNK7testing8TestCase18ad_hoc_test_resultEv
FNDA:3,_ZN7testing8TestCase14test_info_listEv
FNDA:1,_ZNK7testing8TestCase14test_info_listEv
FNDA:2,_ZN7testing8TestCase14set_should_runEb
FNDA:1,_ZN7testing8TestCase19ClearTestCaseResultEPS0_
FNDA:1,_ZN7testing8TestCase16RunSetUpTestCaseEv
FNDA:1,_ZN7testing8TestCase19RunTearDownTestCaseEv
FNDA:1,_ZN7testing8TestCase10TestPassedEPKNS_8TestInfoE
FNDA:3,_ZN7testing8TestCase10TestFailedEPKNS_8TestInfoE
FNDA:1,_ZN7testing8TestCase22TestReportableDisabledEPKNS_8TestInfoE
FNDA:0,_ZN7testing8TestCase12TestDisabledEPKNS_8TestInfoE
FNDA:0,_ZN7testing8TestCase14TestReportableEPKNS_8TestInfoE
FNDA:4,_ZN7testing8TestCase13ShouldRunTestEPKNS_8TestInfoE
FNDA:2,_ZN7testing17TestEventListenerC2Ev
FNDA:0,_ZN7testing17TestEventListenerD0Ev
FNDA:2,_ZN7testing17TestEventListenerD2Ev
FNDA:0,_ZN7testing22EmptyTestEventListenerD0Ev
FNDA:0,_ZN7testing22EmptyTestEventListenerD2Ev
FNDA:0,_ZN7testing22EmptyTestEventListenerC2Ev
FNDA:0,_ZN7testing22EmptyTestEventListener18OnTestProgramStartERKNS_8UnitTestE
FNDA:0,_ZN7testing22EmptyTestEventListener20OnTestIterationStartERKNS_8UnitTestEi
FNDA:0,_ZN7testing22EmptyTestEventListener24OnEnvironmentsSetUpStartERKNS_8UnitTestE
FNDA:0,_ZN7testing22EmptyTestEventListener22OnEnvironmentsSetUpEndERKNS_8UnitTestE
FNDA:0,_ZN7testing22EmptyTestEventListener15OnTestCaseStartERKNS_8TestCaseE
FNDA:0,_ZN7testing22EmptyTestEventListener11OnTestStartERKNS_8TestInfoE
FNDA:0,_ZN7testing22EmptyTestEventListener16OnTestPartResultERKNS_14TestPartResultE
FNDA:0,_ZN7testing22EmptyTestEventListener9OnTestEndERKNS_8TestInfoE
FNDA:0,_ZN7testing22EmptyTestEventListener13OnTestCaseEndERKNS_8TestCaseE
FNDA:0,_ZN7testing22EmptyTestEventListener27OnEnvironmentsTearDownStartERKNS_8UnitTestE
FNDA:0,_ZN7testing22EmptyTestEventListener25OnEnvironmentsTearDownEndERKNS_8UnitTestE
FNDA:0,_ZN7testing22EmptyTestEventListener18OnTestIterationEndERKNS_8UnitTestEi
FNDA:0,_ZN7testing22EmptyTestEventListener16OnTestProgramEndERKNS_8UnitTestE
FNDA:21,_ZN7testing8UnitTest4implEv
FNDA:9,_ZNK7testing8UnitTest4implEv
FNDA:0,_ZN7testing8internal19FormatForComparisonIxxE6FormatERKx
FNDA:0,_ZN7testing8internal33FormatForComparisonFailureMessageIxxEESsRKT_RKT0_
FNDA:0,_ZN7testing8internal12AssertHelper16AssertHelperDataD2Ev
FNDA:0,_ZN7testing8internal12AssertHelper16AssertHelperDataC2ENS_14TestPartResult4TypeEPKciS6_
FNF:95
FNH:31
DA:256,0
DA:262,1
DA:265,0
DA:274,0
DA:275,0
DA:279,0
DA:282,0
DA:283,0
DA:284,0
DA:297,0
DA:298,0
DA:299,0
DA:300,0
DA:301,0
DA:429,1
DA:451,0
DA:463,0
DA:468,0
DA:469,0
DA:470,0
DA:473,0
DA:474,0
DA:478,0
DA:479,0
DA:483,0
DA:484,0
DA:485,0
DA:516,2
DA:528,1
DA:561,1
DA:582,0
DA:585,0
DA:628,3
DA:631,5
DA:635,1
DA:636,1
DA:637,0
DA:638,1
DA:643,0
DA:644,0
DA:645,0
DA:646,0
DA:665,8
DA:668,1
DA:672,1
DA:676,7
DA:707,0
DA:708,0
DA:715,1
DA:716,1
DA:717,1
DA:768,3
DA:772,1
DA:773,1
DA:774,0
DA:775,1
DA:779,5
DA:803,0
DA:806,2
DA:809,1
DA:817,0
DA:824,3
DA:827,1
DA:828,1
DA:836,2
DA:846,1
DA:847,1
DA:848,1
DA:855,1
DA:859,1
DA:862,1
DA:863,1
DA:867,3
DA:868,3
DA:873,1
DA:874,1
DA:878,0
DA:879,0
DA:883,0
DA:884,0
DA:888,4
DA:889,4
DA:959,2
DA:961,2
DA:1012,0
DA:1014,0
DA:1015,0
DA:1016,0
DA:1017,0
DA:1018,0
DA:1019,0
DA:1020,0
DA:1021,0
DA:1022,0
DA:1023,0
DA:1024,0
DA:1025,0
DA:1026,0
DA:1027,0
DA:1028,0
DA:1255,21
DA:1256,9
DA:1357,0
DA:1358,0
DA:1431,0
DA:1433,0
DA:1741,0
DA:1742,0
DA:1746,0
LF:109
LH:45
end_of_record
SF:/home/vagrant/project/cleancode/201610/DupDetector/ut/tool/ut_framework/gmock/gmock/gtest/include/gtest/internal/gtest-death-test-internal.h
FN:82,_ZN7testing8internal9DeathTestD2Ev
FN:82,_ZN7testing8internal9DeathTestD0Ev
FN:140,_ZN7testing8internal16DeathTestFactoryC2Ev
FN:142,_ZN7testing8internal16DeathTestFactoryD2Ev
FN:142,_ZN7testing8internal16DeathTestFactoryD0Ev
FN:148,_ZN7testing8internal23DefaultDeathTestFactoryD2Ev
FN:148,_ZN7testing8internal23DefaultDeathTestFactoryC2Ev
FN:148,_ZN7testing8internal23DefaultDeathTestFactoryD0Ev
FN:236,_ZN7testing8internal24InternalRunDeathTestFlagC2ERKSsiii
FN:243,_ZN7testing8internal24InternalRunDeathTestFlagD2Ev
FN:248,_ZNK7testing8internal24InternalRunDeathTestFlag4fileEv
FN:249,_ZNK7testing8internal24InternalRunDeathTestFlag4lineEv
FN:250,_ZNK7testing8internal24InternalRunDeathTestFlag5indexEv
FN:251,_ZNK7testing8internal24InternalRunDeathTestFlag8write_fdEv
FNDA:0,_ZN7testing8internal9DeathTestD0Ev
FNDA:0,_ZN7testing8internal9DeathTestD2Ev
FNDA:1,_ZN7testing8internal16DeathTestFactoryC2Ev
FNDA:0,_ZN7testing8internal16DeathTestFactoryD0Ev
FNDA:1,_ZN7testing8internal16DeathTestFactoryD2Ev
FNDA:1,_ZN7testing8internal23DefaultDeathTestFactoryD0Ev
FNDA:1,_ZN7testing8internal23DefaultDeathTestFactoryD2Ev
FNDA:1,_ZN7testing8internal23DefaultDeathTestFactoryC2Ev
FNDA:0,_ZN7testing8internal24InternalRunDeathTestFlagC2ERKSsiii
FNDA:0,_ZN7testing8internal24InternalRunDeathTestFlagD2Ev
FNDA:0,_ZNK7testing8internal24InternalRunDeathTestFlag4fileEv
FNDA:0,_ZNK7testing8internal24InternalRunDeathTestFlag4lineEv
FNDA:0,_ZNK7testing8internal24InternalRunDeathTestFlag5indexEv
FNDA:0,_ZNK7testing8internal24InternalRunDeathTestFlag8write_fdEv
FNF:14
FNH:5
DA:82,0
DA:140,1
DA:142,1
DA:148,3
DA:236,0
DA:241,0
DA:243,0
DA:244,0
DA:245,0
DA:246,0
DA:248,0
DA:249,0
DA:250,0
DA:251,0
LF:14
LH:3
end_of_record
SF:/home/vagrant/project/cleancode/201610/DupDetector/ut/tool/ut_framework/gmock/gmock/gtest/include/gtest/internal/gtest-filepath.h
FN:59,_ZN7testing8internal8FilePathD2Ev
FN:61,_ZN7testing8internal8FilePathC2Ev
FN:62,_ZN7testing8internal8FilePathC2ERKS1_
FN:64,_ZN7testing8internal8FilePathC2ERKSs
FN:68,_ZN7testing8internal8FilePathaSERKS1_
FN:73,_ZN7testing8internal8FilePath3SetERKS1_
FN:77,_ZNK7testing8internal8FilePath6stringEv
FN:78,_ZNK7testing8internal8FilePath5c_strEv
FN:111,_ZNK7testing8internal8FilePath7IsEmptyEv
FNDA:2,_ZN7testing8internal8FilePathD2Ev
FNDA:1,_ZN7testing8internal8FilePathC2Ev
FNDA:0,_ZN7testing8internal8FilePathC2ERKS1_
FNDA:1,_ZN7testing8internal8FilePathC2ERKSs
FNDA:0,_ZN7testing8internal8FilePathaSERKS1_
FNDA:1,_ZN7testing8internal8FilePath3SetERKS1_
FNDA:0,_ZNK7testing8internal8FilePath6stringEv
FNDA:0,_ZNK7testing8internal8FilePath5c_strEv
FNDA:2,_ZNK7testing8internal8FilePath7IsEmptyEv
FNF:9
FNH:5
DA:59,2
DA:61,1
DA:62,0
DA:64,1
DA:65,1
DA:66,1
DA:68,0
DA:69,0
DA:70,0
DA:73,1
DA:74,1
DA:75,1
DA:77,0
DA:78,0
DA:111,2
LF:15
LH:9
end_of_record
SF:/home/vagrant/project/cleancode/201610/DupDetector/ut/tool/ut_framework/gmock/gmock/gtest/include/gtest/internal/gtest-internal.h
FN:148,_ZN7testing8internal26GoogleTestFailureExceptionD2Ev
FN:148,_ZN7testing8internal26GoogleTestFailureExceptionD0Ev
FN:280,_ZN7testing8internal13FloatingPointIfEC2ERKf
FN:280,_ZN7testing8internal13FloatingPointIdEC2ERKd
FN:307,_ZNK7testing8internal13FloatingPointIdE13exponent_bitsEv
FN:307,_ZNK7testing8internal13FloatingPointIfE13exponent_bitsEv
FN:310,_ZNK7testing8internal13FloatingPointIfE13fraction_bitsEv
FN:310,_ZNK7testing8internal13FloatingPointIdE13fraction_bitsEv
FN:316,_ZNK7testing8internal13FloatingPointIfE6is_nanEv
FN:316,_ZNK7testing8internal13FloatingPointIdE6is_nanEv
FN:328,_ZNK7testing8internal13FloatingPointIdE12AlmostEqualsERKS2_
FN:328,_ZNK7testing8internal13FloatingPointIfE12AlmostEqualsERKS2_
FN:359,_ZN7testing8internal13FloatingPointIdE24SignAndMagnitudeToBiasedERKy
FN:359,_ZN7testing8internal13FloatingPointIfE24SignAndMagnitudeToBiasedERKj
FN:371,_ZN7testing8internal13FloatingPointIdE38DistanceBetweenSignAndMagnitudeNumbersERKyS4_
FN:371,_ZN7testing8internal13FloatingPointIfE38DistanceBetweenSignAndMagnitudeNumbersERKjS4_
FN:417,_ZN7testing8internal9GetTypeIdINS_4TestEEEPKvv
FN:542,_ZN7testing8internal9SkipCommaEPKc
FN:553,_ZN7testing8internal19GetPrefixUntilCommaEPKc
FN:660,_ZN7testing8internal11AlwaysFalseEv
FN:680,_ZN7testing8internal6RandomC2Ej
FN:682,_ZN7testing8internal6Random6ReseedEj
FN:869,_ZN7testing8internal15IsContainerTestIxEEcl
FNDA:0,_ZN7testing8internal26GoogleTestFailureExceptionD0Ev
FNDA:0,_ZN7testing8internal26GoogleTestFailureExceptionD2Ev
FNDA:0,_ZN7testing8internal13FloatingPointIdEC2ERKd
FNDA:0,_ZN7testing8internal13FloatingPointIfEC2ERKf
FNDA:0,_ZNK7testing8internal13FloatingPointIdE13exponent_bitsEv
FNDA:0,_ZNK7testing8internal13FloatingPointIfE13exponent_bitsEv
FNDA:0,_ZNK7testing8internal13FloatingPointIdE13fraction_bitsEv
FNDA:0,_ZNK7testing8internal13FloatingPointIfE13fraction_bitsEv
FNDA:0,_ZNK7testing8internal13FloatingPointIdE6is_nanEv
FNDA:0,_ZNK7testing8internal13FloatingPointIfE6is_nanEv
FNDA:0,_ZNK7testing8internal13FloatingPointIdE12AlmostEqualsERKS2_
FNDA:0,_ZNK7testing8internal13FloatingPointIfE12AlmostEqualsERKS2_
FNDA:0,_ZN7testing8internal13FloatingPointIdE24SignAndMagnitudeToBiasedERKy
FNDA:0,_ZN7testing8internal13FloatingPointIfE24SignAndMagnitudeToBiasedERKj
FNDA:0,_ZN7testing8internal13FloatingPointIdE38DistanceBetweenSignAndMagnitudeNumbersERKyS4_
FNDA:0,_ZN7testing8internal13FloatingPointIfE38DistanceBetweenSignAndMagnitudeNumbersERKjS4_
FNDA:1,_ZN7testing8internal9GetTypeIdINS_4TestEEEPKvv
FNDA:0,_ZN7testing8internal9SkipCommaEPKc
FNDA:0,_ZN7testing8internal19GetPrefixUntilCommaEPKc
FNDA:0,_ZN7testing8internal11AlwaysFalseEv
FNDA:1,_ZN7testing8internal6RandomC2Ej
FNDA:0,_ZN7testing8internal6Random6ReseedEj
FNDA:0,_ZN7testing8internal15IsContainerTestIxEEcl
FNF:23
FNH:2
DA:148,0
DA:280,0
DA:307,0
DA:310,0
DA:316,0
DA:319,0
DA:328,0
DA:331,0
DA:333,0
DA:334,0
DA:359,0
DA:360,0
DA:362,0
DA:365,0
DA:371,0
DA:373,0
DA:374,0
DA:375,0
DA:417,1
DA:422,1
DA:542,0
DA:543,0
DA:544,0
DA:545,0
DA:547,0
DA:548,0
DA:553,0
DA:554,0
DA:555,0
DA:660,0
DA:680,1
DA:682,0
DA:869,0
LF:33
LH:3
end_of_record
SF:/home/vagrant/project/cleancode/201610/DupDetector/ut/tool/ut_framework/gmock/gmock/gtest/include/gtest/internal/gtest-param-util.h
FN:558,_ZN7testing8internal29ParameterizedTestCaseRegistryC2Ev
FN:559,_ZN7testing8internal29ParameterizedTestCaseRegistryD2Ev
FN:599,_ZN7testing8internal29ParameterizedTestCaseRegistry13RegisterTestsEv
FNDA:1,_ZN7testing8internal29ParameterizedTestCaseRegistryC2Ev
FNDA:1,_ZN7testing8internal29ParameterizedTestCaseRegistryD2Ev
FNDA:1,_ZN7testing8internal29ParameterizedTestCaseRegistry13RegisterTestsEv
FNF:3
FNH:3
DA:558,1
DA:559,2
DA:560,3
DA:561,2
DA:562,0
DA:564,1
DA:599,1
DA:600,3
DA:601,2
DA:602,0
DA:604,1
LF:11
LH:9
end_of_record
SF:/home/vagrant/project/cleancode/201610/DupDetector/ut/tool/ut_framework/gmock/gmock/gtest/include/gtest/internal/gtest-port.h
FN:894,_ZN7testing8internal10scoped_ptrIKSsEC2EPS2_
FN:894,_ZN7testing8internal10scoped_ptrINS0_16DeathTestFactoryEEC2EPS2_
FN:894,_ZN7testing8internal10scoped_ptrINS0_17StreamingListener20AbstractSocketWriterEEC2EPS3_
FN:894,_ZN7testing8internal10scoped_ptrINS0_24InternalRunDeathTestFlagEEC2EPS2_
FN:894,_ZN7testing8internal10scoped_ptrISsEC2EPSs
FN:894,_ZN7testing8internal10scoped_ptrISt18basic_stringstreamIcSt11char_traitsIcESaIcEEEC2EPS6_
FN:895,_ZN7testing8internal10scoped_ptrISsED2Ev
FN:895,_ZN7testing8internal10scoped_ptrIKSsED2Ev
FN:895,_ZN7testing8internal10scoped_ptrISt18basic_stringstreamIcSt11char_traitsIcESaIcEEED2Ev
FN:895,_ZN7testing8internal10scoped_ptrINS0_17StreamingListener20AbstractSocketWriterEED2Ev
FN:895,_ZN7testing8internal10scoped_ptrINS0_16DeathTestFactoryEED2Ev
FN:895,_ZN7testing8internal10scoped_ptrINS0_24InternalRunDeathTestFlagEED2Ev
FN:897,_ZNK7testing8internal10scoped_ptrISt18basic_stringstreamIcSt11char_traitsIcESaIcEEEdeEv
FN:897,_ZNK7testing8internal10scoped_ptrISsEdeEv
FN:898,_ZNK7testing8internal10scoped_ptrINS0_17StreamingListener20AbstractSocketWriterEEptEv
FN:898,_ZNK7testing8internal10scoped_ptrISsEptEv
FN:898,_ZNK7testing8internal10scoped_ptrIKSsEptEv
FN:899,_ZNK7testing8internal10scoped_ptrINS0_24InternalRunDeathTestFlagEE3getEv
FN:899,_ZNK7testing8internal10scoped_ptrISt18basic_stringstreamIcSt11char_traitsIcESaIcEEE3getEv
FN:899,_ZNK7testing8internal10scoped_ptrISsE3getEv
FN:899,_ZNK7testing8internal10scoped_ptrIKSsE3getEv
FN:899,_ZNK7testing8internal10scoped_ptrINS0_16DeathTestFactoryEE3getEv
FN:907,_ZN7testing8internal10scoped_ptrISsE5resetEPSs
FN:907,_ZN7testing8internal10scoped_ptrIKSsE5resetEPS2_
FN:907,_ZN7testing8internal10scoped_ptrINS0_24InternalRunDeathTestFlagEE5resetEPS2_
FN:907,_ZN7testing8internal10scoped_ptrINS0_16DeathTestFactoryEE5resetEPS2_
FN:907,_ZN7testing8internal10scoped_ptrISt18basic_stringstreamIcSt11char_traitsIcESaIcEEE5resetEPS6_
FN:907,_ZN7testing8internal10scoped_ptrINS0_17StreamingListener20AbstractSocketWriterEE5resetEPS3_
FN:945,_ZNK7testing8internal2RE7patternEv
FN:1031,_ZN7testing8internal8GTestLog9GetStreamEv
FN:1043,_ZN7testing8internal11LogToStderrEv
FN:1044,_ZN7testing8internal12FlushInfoLogEv
FN:1098,_ZN7testing8internal13ImplicitCast_IPKvEET_S4_
FN:1145,_ZN7testing8internal27CheckedDowncastToActualTypeINS0_11ThreadLocalIPNS_31TestPartResultReporterInterfaceEE11ValueHolderENS0_26ThreadLocalValueHolderBaseEEEPT_PT0_
FN:1145,_ZN7testing8internal27CheckedDowncastToActualTypeINS0_11ThreadLocalISt6vectorINS0_9TraceInfoESaIS4_EEE11ValueHolderENS0_26ThreadLocalValueHolderBaseEEEPT_PT0_
FN:1336,_ZN7testing8internal9MutexBaseC2Ev
FN:1339,_ZN7testing8internal9MutexBase4LockEv
FN:1346,_ZN7testing8internal9MutexBase6UnlockEv
FN:1396,_ZN7testing8internal5MutexC2Ev
FN:1400,_ZN7testing8internal5MutexD2Ev
FN:1413,_ZN7testing8internal14GTestMutexLockC2EPNS0_9MutexBaseE
FN:1416,_ZN7testing8internal14GTestMutexLockD2Ev
FN:1432,_ZN7testing8internal26ThreadLocalValueHolderBaseC2Ev
FN:1434,_ZN7testing8internal26ThreadLocalValueHolderBaseD0Ev
FN:1434,_ZN7testing8internal26ThreadLocalValueHolderBaseD2Ev
FN:1439,DeleteThreadLocalValue
FN:1475,_ZN7testing8internal11ThreadLocalISt6vectorINS0_9TraceInfoESaIS3_EEEC2Ev
FN:1477,_ZN7testing8internal11ThreadLocalIPNS_31TestPartResultReporterInterfaceEEC2ERKS3_
FN:1480,_ZN7testing8internal11ThreadLocalIPNS_31TestPartResultReporterInterfaceEED2Ev
FN:1480,_ZN7testing8internal11ThreadLocalISt6vectorINS0_9TraceInfoESaIS3_EEED2Ev
FN:1489,_ZN7testing8internal11ThreadLocalISt6vectorINS0_9TraceInfoESaIS3_EEE7pointerEv
FN:1489,_ZN7testing8internal11ThreadLocalIPNS_31TestPartResultReporterInterfaceEE7pointerEv
FN:1490,_ZNK7testing8internal11ThreadLocalIPNS_31TestPartResultReporterInterfaceEE7pointerEv
FN:1491,_ZNK7testing8internal11ThreadLocalIPNS_31TestPartResultReporterInterfaceEE3getEv
FN:1492,_ZN7testing8internal11ThreadLocalIPNS_31TestPartResultReporterInterfaceEE3setERKS3_
FN:1496,_ZN7testing8internal11ThreadLocalIPNS_31TestPartResultReporterInterfaceEE11ValueHolderD0Ev
FN:1496,_ZN7testing8internal11ThreadLocalIPNS_31TestPartResultReporterInterfaceEE11ValueHolderD2Ev
FN:1496,_ZN7testing8internal11ThreadLocalISt6vectorINS0_9TraceInfoESaIS3_EEE11ValueHolderD2Ev
FN:1496,_ZN7testing8internal11ThreadLocalISt6vectorINS0_9TraceInfoESaIS3_EEE11ValueHolderD0Ev
FN:1498,_ZN7testing8internal11ThreadLocalIPNS_31TestPartResultReporterInterfaceEE11ValueHolderC2ERKS3_
FN:1498,_ZN7testing8internal11ThreadLocalISt6vectorINS0_9TraceInfoESaIS3_EEE11ValueHolderC2ERKS5_
FN:1500,_ZN7testing8internal11ThreadLocalISt6vectorINS0_9TraceInfoESaIS3_EEE11ValueHolder7pointerEv
FN:1500,_ZN7testing8internal11ThreadLocalIPNS_31TestPartResultReporterInterfaceEE11ValueHolder7pointerEv
FN:1507,_ZN7testing8internal11ThreadLocalIPNS_31TestPartResultReporterInterfaceEE9CreateKeyEv
FN:1507,_ZN7testing8internal11ThreadLocalISt6vectorINS0_9TraceInfoESaIS3_EEE9CreateKeyEv
FN:1516,_ZNK7testing8internal11ThreadLocalIPNS_31TestPartResultReporterInterfaceEE16GetOrCreateValueEv
FN:1516,_ZNK7testing8internal11ThreadLocalISt6vectorINS0_9TraceInfoESaIS3_EEE16GetOrCreateValueEv
FN:1665,_ZN7testing8internal7IsDigitEc
FN:1671,_ZN7testing8internal7IsSpaceEc
FN:1677,_ZN7testing8internal8IsXDigitEc
FN:1680,_ZN7testing8internal8IsXDigitEw
FN:1688,_ZN7testing8internal7ToUpperEc
FN:1741,_ZN7testing8internal5posix6FileNoEP8_IO_FILE
FN:1742,_ZN7testing8internal5posix6IsATTYEi
FN:1743,_ZN7testing8internal5posix4StatEPKcP4stat
FN:1744,_ZN7testing8internal5posix10StrCaseCmpEPKcS3_
FN:1747,_ZN7testing8internal5posix6StrDupEPKc
FN:1749,_ZN7testing8internal5posix5IsDirERK4stat
FN:1772,_ZN7testing8internal5posix5FOpenEPKcS3_
FN:1779,_ZN7testing8internal5posix6FDOpenEiPKc
FN:1781,_ZN7testing8internal5posix6FCloseEP8_IO_FILE
FN:1783,_ZN7testing8internal5posix4ReadEiPvj
FN:1786,_ZN7testing8internal5posix5WriteEiPKvj
FN:1789,_ZN7testing8internal5posix5CloseEi
FN:1790,_ZN7testing8internal5posix8StrErrorEi
FN:1792,_ZN7testing8internal5posix6GetEnvEPKc
FN:1816,_ZN7testing8internal5posix5AbortEv
FNDA:1,_ZN7testing8internal10scoped_ptrINS0_16DeathTestFactoryEEC2EPS2_
FNDA:1,_ZN7testing8internal10scoped_ptrINS0_24InternalRunDeathTestFlagEEC2EPS2_
FNDA:3,_ZN7testing8internal10scoped_ptrIKSsEC2EPS2_
FNDA:0,_ZN7testing8internal10scoped_ptrINS0_17StreamingListener20AbstractSocketWriterEEC2EPS3_
FNDA:1,_ZN7testing8internal10scoped_ptrISsEC2EPSs
FNDA:42,_ZN7testing8internal10scoped_ptrISt18basic_stringstreamIcSt11char_traitsIcESaIcEEEC2EPS6_
FNDA:1,_ZN7testing8internal10scoped_ptrINS0_16DeathTestFactoryEED2Ev
FNDA:1,_ZN7testing8internal10scoped_ptrINS0_24InternalRunDeathTestFlagEED2Ev
FNDA:3,_ZN7testing8internal10scoped_ptrIKSsED2Ev
FNDA:0,_ZN7testing8internal10scoped_ptrINS0_17StreamingListener20AbstractSocketWriterEED2Ev
FNDA:0,_ZN7testing8internal10scoped_ptrISsED2Ev
FNDA:0,_ZN7testing8internal10scoped_ptrISt18basic_stringstreamIcSt11char_traitsIcESaIcEEED2Ev
FNDA:0,_ZNK7testing8internal10scoped_ptrISsEdeEv
FNDA:364,_ZNK7testing8internal10scoped_ptrISt18basic_stringstreamIcSt11char_traitsIcESaIcEEEdeEv
FNDA:0,_ZNK7testing8internal10scoped_ptrINS0_17StreamingListener20AbstractSocketWriterEEptEv
FNDA:0,_ZNK7testing8internal10scoped_ptrIKSsEptEv
FNDA:0,_ZNK7testing8internal10scoped_ptrISsEptEv
FNDA:42,_ZNK7testing8internal10scoped_ptrISt18basic_stringstreamIcSt11char_traitsIcESaIcEEE3getEv
FNDA:0,_ZNK7testing8internal10scoped_ptrINS0_16DeathTestFactoryEE3getEv
FNDA:2,_ZNK7testing8internal10scoped_ptrINS0_24InternalRunDeathTestFlagEE3getEv
FNDA:2,_ZNK7testing8internal10scoped_ptrIKSsE3getEv
FNDA:0,_ZNK7testing8internal10scoped_ptrISsE3getEv
FNDA:1,_ZN7testing8internal10scoped_ptrINS0_16DeathTestFactoryEE5resetEPS2_
FNDA:3,_ZN7testing8internal10scoped_ptrIKSsE5resetEPS2_
FNDA:0,_ZN7testing8internal10scoped_ptrINS0_17StreamingListener20AbstractSocketWriterEE5resetEPS3_
FNDA:0,_ZN7testing8internal10scoped_ptrISt18basic_stringstreamIcSt11char_traitsIcESaIcEEE5resetEPS6_
FNDA:2,_ZN7testing8internal10scoped_ptrINS0_24InternalRunDeathTestFlagEE5resetEPS2_
FNDA:0,_ZN7testing8internal10scoped_ptrISsE5resetEPSs
FNDA:0,_ZNK7testing8internal2RE7patternEv
FNDA:0,_ZN7testing8internal8GTestLog9GetStreamEv
FNDA:0,_ZN7testing8internal11LogToStderrEv
FNDA:0,_ZN7testing8internal12FlushInfoLogEv
FNDA:0,_ZN7testing8internal13ImplicitCast_IPKvEET_S4_
FNDA:0,_ZN7testing8internal27CheckedDowncastToActualTypeINS0_11ThreadLocalIPNS_31TestPartResultReporterInterfaceEE11ValueHolderENS0_26ThreadLocalValueHolderBaseEEEPT_PT0_
FNDA:0,_ZN7testing8internal27CheckedDowncastToActualTypeINS0_11ThreadLocalISt6vectorINS0_9TraceInfoESaIS4_EEE11ValueHolderENS0_26ThreadLocalValueHolderBaseEEEPT_PT0_
FNDA:6,_ZN7testing8internal9MutexBaseC2Ev
FNDA:0,_ZN7testing8internal9MutexBase4LockEv
FNDA:0,_ZN7testing8internal9MutexBase6UnlockEv
FNDA:6,_ZN7testing8internal5MutexC2Ev
FNDA:6,_ZN7testing8internal5MutexD2Ev
FNDA:0,_ZN7testing8internal14GTestMutexLockC2EPNS0_9MutexBaseE
FNDA:0,_ZN7testing8internal14GTestMutexLockD2Ev
FNDA:0,_ZN7testing8internal26ThreadLocalValueHolderBaseC2Ev
FNDA:0,_ZN7testing8internal26ThreadLocalValueHolderBaseD0Ev
FNDA:0,_ZN7testing8internal26ThreadLocalValueHolderBaseD2Ev
FNDA:3,DeleteThreadLocalValue
FNDA:1,_ZN7testing8internal11ThreadLocalISt6vectorINS0_9TraceInfoESaIS3_EEEC2Ev
FNDA:1,_ZN7testing8internal11ThreadLocalIPNS_31TestPartResultReporterInterfaceEEC2ERKS3_
FNDA:1,_ZN7testing8internal11ThreadLocalISt6vectorINS0_9TraceInfoESaIS3_EEED2Ev
FNDA:1,_ZN7testing8internal11ThreadLocalIPNS_31TestPartResultReporterInterfaceEED2Ev
FNDA:0,_ZN7testing8internal11ThreadLocalIPNS_31TestPartResultReporterInterfaceEE7pointerEv
FNDA:0,_ZN7testing8internal11ThreadLocalISt6vectorINS0_9TraceInfoESaIS3_EEE7pointerEv
FNDA:0,_ZNK7testing8internal11ThreadLocalIPNS_31TestPartResultReporterInterfaceEE7pointerEv
FNDA:0,_ZNK7testing8internal11ThreadLocalIPNS_31TestPartResultReporterInterfaceEE3getEv
FNDA:0,_ZN7testing8internal11ThreadLocalIPNS_31TestPartResultReporterInterfaceEE3setERKS3_
FNDA:0,_ZN7testing8internal11ThreadLocalISt6vectorINS0_9TraceInfoESaIS3_EEE11ValueHolderD0Ev
FNDA:0,_ZN7testing8internal11ThreadLocalISt6vectorINS0_9TraceInfoESaIS3_EEE11ValueHolderD2Ev
FNDA:0,_ZN7testing8internal11ThreadLocalIPNS_31TestPartResultReporterInterfaceEE11ValueHolderD0Ev
FNDA:0,_ZN7testing8internal11ThreadLocalIPNS_31TestPartResultReporterInterfaceEE11ValueHolderD2Ev
FNDA:0,_ZN7testing8internal11ThreadLocalIPNS_31TestPartResultReporterInterfaceEE11ValueHolderC2ERKS3_
FNDA:0,_ZN7testing8internal11ThreadLocalISt6vectorINS0_9TraceInfoESaIS3_EEE11ValueHolderC2ERKS5_
FNDA:0,_ZN7testing8internal11ThreadLocalIPNS_31TestPartResultReporterInterfaceEE11ValueHolder7pointerEv
FNDA:0,_ZN7testing8internal11ThreadLocalISt6vectorINS0_9TraceInfoESaIS3_EEE11ValueHolder7pointerEv
FNDA:1,_ZN7testing8internal11ThreadLocalISt6vectorINS0_9TraceInfoESaIS3_EEE9CreateKeyEv
FNDA:1,_ZN7testing8internal11ThreadLocalIPNS_31TestPartResultReporterInterfaceEE9CreateKeyEv
FNDA:0,_ZNK7testing8internal11ThreadLocalIPNS_31TestPartResultReporterInterfaceEE16GetOrCreateValueEv
FNDA:0,_ZNK7testing8internal11ThreadLocalISt6vectorINS0_9TraceInfoESaIS3_EEE16GetOrCreateValueEv
FNDA:0,_ZN7testing8internal7IsDigitEc
FNDA:0,_ZN7testing8internal7IsSpaceEc
FNDA:0,_ZN7testing8internal8IsXDigitEc
FNDA:0,_ZN7testing8internal8IsXDigitEw
FNDA:280,_ZN7testing8internal7ToUpperEc
FNDA:1,_ZN7testing8internal5posix6FileNoEP8_IO_FILE
FNDA:1,_ZN7testing8internal5posix6IsATTYEi
FNDA:0,_ZN7testing8internal5posix4StatEPKcP4stat
FNDA:1,_ZN7testing8internal5posix10StrCaseCmpEPKcS3_
FNDA:0,_ZN7testing8internal5posix6StrDupEPKc
FNDA:0,_ZN7testing8internal5posix5IsDirERK4stat
FNDA:0,_ZN7testing8internal5posix5FOpenEPKcS3_
FNDA:0,_ZN7testing8internal5posix6FDOpenEiPKc
FNDA:0,_ZN7testing8internal5posix6FCloseEP8_IO_FILE
FNDA:0,_ZN7testing8internal5posix4ReadEiPvj
FNDA:0,_ZN7testing8internal5posix5WriteEiPKvj
FNDA:0,_ZN7testing8internal5posix5CloseEi
FNDA:0,_ZN7testing8internal5posix8StrErrorEi
FNDA:22,_ZN7testing8internal5posix6GetEnvEPKc
FNDA:0,_ZN7testing8internal5posix5AbortEv
FNF:87
FNH:30
DA:894,48
DA:895,5
DA:897,364
DA:898,0
DA:899,46
DA:907,6
DA:908,6
DA:909,1
DA:910,1
DA:912,1
DA:914,6
DA:945,0
DA:1031,0
DA:1043,0
DA:1044,0
DA:1098,0
DA:1145,0
DA:1147,0
DA:1148,0
DA:1336,6
DA:1339,0
DA:1340,0
DA:1341,0
DA:1342,0
DA:1343,0
DA:1346,0
DA:1351,0
DA:1352,0
DA:1353,0
DA:1396,6
DA:1397,6
DA:1398,6
DA:1399,6
DA:1400,6
DA:1401,6
DA:1402,6
DA:1413,0
DA:1414,0
DA:1416,0
DA:1432,0
DA:1434,0
DA:1439,3
DA:1440,3
DA:1441,3
DA:1475,1
DA:1476,1
DA:1477,1
DA:1478,1
DA:1480,2
DA:1482,2
DA:1486,2
DA:1487,2
DA:1489,0
DA:1490,0
DA:1491,0
DA:1492,0
DA:1496,0
DA:1498,0
DA:1500,0
DA:1507,2
DA:1511,2
DA:1513,2
DA:1516,0
DA:1518,0
DA:1519,0
DA:1520,0
DA:1523,0
DA:1524,0
DA:1525,0
DA:1526,0
DA:1665,0
DA:1666,0
DA:1671,0
DA:1672,0
DA:1677,0
DA:1678,0
DA:1680,0
DA:1681,0
DA:1682,0
DA:1688,280
DA:1689,280
DA:1741,1
DA:1742,1
DA:1743,0
DA:1744,1
DA:1745,1
DA:1747,0
DA:1749,0
DA:1772,0
DA:1773,0
DA:1779,0
DA:1781,0
DA:1783,0
DA:1784,0
DA:1786,0
DA:1787,0
DA:1789,0
DA:1790,0
DA:1792,22
DA:1802,22
DA:1816,0
LF:101
LH:40
end_of_record
SF:/home/vagrant/project/cleancode/201610/DupDetector/ut/tool/ut_framework/gmock/gmock/gtest/src/gtest-death-test.cc
FN:130,_ZN7testing8internal16InDeathTestChildEv
FN:149,_ZN7testing14ExitedWithCodeC2Ei
FN:153,_ZNK7testing14ExitedWithCodeclEi
FN:167,_ZN7testing14KilledBySignalC2Ei
FN:171,_ZNK7testing14KilledBySignalclEi
FN:182,_ZN7testing8internalL11ExitSummaryEi
FN:208,_ZN7testing8internal20ExitedUnsuccessfullyEi
FN:217,_ZN7testing8internalL22DeathTestThreadWarningEm
FN:251,_ZN7testing8internal14DeathTestAbortERKSs
FN:304,_ZN7testing8internal23GetLastErrnoDescriptionEv
FN:312,_ZN7testing8internalL21FailFromInternalErrorEi
FN:335,_ZN7testing8internal9DeathTestC2Ev
FN:345,_ZN7testing8internal9DeathTest6CreateEPKcPKNS0_2REES3_iPPS1_
FN:351,_ZN7testing8internal9DeathTest11LastMessageEv
FN:355,_ZN7testing8internal9DeathTest27set_last_death_test_messageERKSs
FN:364,_ZN7testing8internal13DeathTestImplC2EPKcPKNS0_2REE
FN:374,_ZN7testing8internal13DeathTestImplD0Ev
FN:374,_ZN7testing8internal13DeathTestImplD2Ev
FN:379,_ZNK7testing8internal13DeathTestImpl9statementEv
FN:380,_ZNK7testing8internal13DeathTestImpl5regexEv
FN:381,_ZNK7testing8internal13DeathTestImpl7spawnedEv
FN:382,_ZN7testing8internal13DeathTestImpl11set_spawnedEb
FN:383,_ZNK7testing8internal13DeathTestImpl6statusEv
FN:384,_ZN7testing8internal13DeathTestImpl10set_statusEi
FN:385,_ZNK7testing8internal13DeathTestImpl7outcomeEv
FN:386,_ZN7testing8internal13DeathTestImpl11set_outcomeENS0_16DeathTestOutcomeE
FN:387,_ZNK7testing8internal13DeathTestImpl7read_fdEv
FN:388,_ZN7testing8internal13DeathTestImpl11set_read_fdEi
FN:389,_ZNK7testing8internal13DeathTestImpl8write_fdEv
FN:390,_ZN7testing8internal13DeathTestImpl12set_write_fdEi
FN:425,_ZN7testing8internal13DeathTestImpl26ReadAndInterpretStatusByteEv
FN:470,_ZN7testing8internal13DeathTestImpl5AbortENS0_9DeathTest11AbortReasonE
FN:493,_ZN7testing8internalL21FormatDeathTestOutputERKSs
FN:530,_ZN7testing8internal13DeathTestImpl6PassedEb
FN:776,_ZN7testing8internal16ForkingDeathTestD2Ev
FN:776,_ZN7testing8internal16ForkingDeathTestD0Ev
FN:784,_ZN7testing8internal16ForkingDeathTest13set_child_pidEi
FN:792,_ZN7testing8internal16ForkingDeathTestC2EPKcPKNS0_2REE
FN:799,_ZN7testing8internal16ForkingDeathTest4WaitEv
FN:813,_ZN7testing8internal15NoExecDeathTestD2Ev
FN:813,_ZN7testing8internal15NoExecDeathTestD0Ev
FN:815,_ZN7testing8internal15NoExecDeathTestC2EPKcPKNS0_2REE
FN:822,_ZN7testing8internal15NoExecDeathTest10AssumeRoleEv
FN:868,_ZN7testing8internal13ExecDeathTestD0Ev
FN:868,_ZN7testing8internal13ExecDeathTestD2Ev
FN:870,_ZN7testing8internal13ExecDeathTestC2EPKcPKNS0_2REES3_i
FN:876,_ZN7testing8internal13ExecDeathTest32GetArgvsForDeathTestChildProcessEv
FN:889,_ZN7testing8internal9ArgumentsC2Ev
FN:893,_ZN7testing8internal9ArgumentsD2Ev
FN:899,_ZN7testing8internal9Arguments11AddArgumentEPKc
FN:904,_ZN7testing8internal9Arguments12AddArgumentsISsEEvRKSt6vectorIT_SaIS4_EE
FN:911,_ZN7testing8internal9Arguments4ArgvEv
FN:937,_ZN7testing8internal10GetEnvironEv
FN:944,_ZN7testing8internalL22ExecDeathTestChildMainEPv
FN:983,_ZN7testing8internal21StackLowerThanAddressEPKvPb
FN:988,_ZN7testing8internal14StackGrowsDownEv
FN:1002,_ZN7testing8internalL23ExecDeathTestSpawnChildEPKPci
FN:1100,_ZN7testing8internal13ExecDeathTest10AssumeRoleEv
FN:1153,_ZN7testing8internal23DefaultDeathTestFactory6CreateEPKcPKNS0_2REES3_iPPNS0_9DeathTestE
FN:1208,_ZN7testing8internalL11SplitStringERKSscPSt6vectorISsSaISsEE
FN:1296,_ZN7testing8internal29ParseInternalRunDeathTestFlagEv
FNDA:0,_ZN7testing8internal16InDeathTestChildEv
FNDA:0,_ZN7testing14ExitedWithCodeC2Ei
FNDA:0,_ZNK7testing14ExitedWithCodeclEi
FNDA:0,_ZN7testing14KilledBySignalC2Ei
FNDA:0,_ZNK7testing14KilledBySignalclEi
FNDA:0,_ZN7testing8internalL11ExitSummaryEi
FNDA:0,_ZN7testing8internal20ExitedUnsuccessfullyEi
FNDA:0,_ZN7testing8internalL22DeathTestThreadWarningEm
FNDA:0,_ZN7testing8internal14DeathTestAbortERKSs
FNDA:0,_ZN7testing8internal23GetLastErrnoDescriptionEv
FNDA:0,_ZN7testing8internalL21FailFromInternalErrorEi
FNDA:0,_ZN7testing8internal9DeathTestC2Ev
FNDA:0,_ZN7testing8internal9DeathTest6CreateEPKcPKNS0_2REES3_iPPS1_
FNDA:0,_ZN7testing8internal9DeathTest11LastMessageEv
FNDA:0,_ZN7testing8internal9DeathTest27set_last_death_test_messageERKSs
FNDA:0,_ZN7testing8internal13DeathTestImplC2EPKcPKNS0_2REE
FNDA:0,_ZN7testing8internal13DeathTestImplD0Ev
FNDA:0,_ZN7testing8internal13DeathTestImplD2Ev
FNDA:0,_ZNK7testing8internal13DeathTestImpl9statementEv
FNDA:0,_ZNK7testing8internal13DeathTestImpl5regexEv
FNDA:0,_ZNK7testing8internal13DeathTestImpl7spawnedEv
FNDA:0,_ZN7testing8internal13DeathTestImpl11set_spawnedEb
FNDA:0,_ZNK7testing8internal13DeathTestImpl6statusEv
FNDA:0,_ZN7testing8internal13DeathTestImpl10set_statusEi
FNDA:0,_ZNK7testing8internal13DeathTestImpl7outcomeEv
FNDA:0,_ZN7testing8internal13DeathTestImpl11set_outcomeENS0_16DeathTestOutcomeE
FNDA:0,_ZNK7testing8internal13DeathTestImpl7read_fdEv
FNDA:0,_ZN7testing8internal13DeathTestImpl11set_read_fdEi
FNDA:0,_ZNK7testing8internal13DeathTestImpl8write_fdEv
FNDA:0,_ZN7testing8internal13DeathTestImpl12set_write_fdEi
FNDA:0,_ZN7testing8internal13DeathTestImpl26ReadAndInterpretStatusByteEv
FNDA:0,_ZN7testing8internal13DeathTestImpl5AbortENS0_9DeathTest11AbortReasonE
FNDA:0,_ZN7testing8internalL21FormatDeathTestOutputERKSs
FNDA:0,_ZN7testing8internal13DeathTestImpl6PassedEb
FNDA:0,_ZN7testing8internal16ForkingDeathTestD0Ev
FNDA:0,_ZN7testing8internal16ForkingDeathTestD2Ev
FNDA:0,_ZN7testing8internal16ForkingDeathTest13set_child_pidEi
FNDA:0,_ZN7testing8internal16ForkingDeathTestC2EPKcPKNS0_2REE
FNDA:0,_ZN7testing8internal16ForkingDeathTest4WaitEv
FNDA:0,_ZN7testing8internal15NoExecDeathTestD0Ev
FNDA:0,_ZN7testing8internal15NoExecDeathTestD2Ev
FNDA:0,_ZN7testing8internal15NoExecDeathTestC2EPKcPKNS0_2REE
FNDA:0,_ZN7testing8internal15NoExecDeathTest10AssumeRoleEv
FNDA:0,_ZN7testing8internal13ExecDeathTestD0Ev
FNDA:0,_ZN7testing8internal13ExecDeathTestD2Ev
FNDA:0,_ZN7testing8internal13ExecDeathTestC2EPKcPKNS0_2REES3_i
FNDA:0,_ZN7testing8internal13ExecDeathTest32GetArgvsForDeathTestChildProcessEv
FNDA:0,_ZN7testing8internal9ArgumentsC2Ev
FNDA:0,_ZN7testing8internal9ArgumentsD2Ev
FNDA:0,_ZN7testing8internal9Arguments11AddArgumentEPKc
FNDA:0,_ZN7testing8internal9Arguments12AddArgumentsISsEEvRKSt6vectorIT_SaIS4_EE
FNDA:0,_ZN7testing8internal9Arguments4ArgvEv
FNDA:0,_ZN7testing8internal10GetEnvironEv
FNDA:0,_ZN7testing8internalL22ExecDeathTestChildMainEPv
FNDA:0,_ZN7testing8internal21StackLowerThanAddressEPKvPb
FNDA:0,_ZN7testing8internal14StackGrowsDownEv
FNDA:0,_ZN7testing8internalL23ExecDeathTestSpawnChildEPKPci
FNDA:0,_ZN7testing8internal13ExecDeathTest10AssumeRoleEv
FNDA:0,_ZN7testing8internal23DefaultDeathTestFactory6CreateEPKcPKNS0_2REES3_iPPNS0_9DeathTestE
FNDA:0,_ZN7testing8internalL11SplitStringERKSscPSt6vectorISsSaISsEE
FNDA:1,_ZN7testing8internal29ParseInternalRunDeathTestFlagEv
FNF:61
FNH:1
DA:85,1
DA:94,1
DA:107,1
DA:130,0
DA:139,0
DA:140,0
DA:142,0
DA:149,0
DA:150,0
DA:153,0
DA:160,0
DA:167,0
DA:168,0
DA:171,0
DA:172,0
DA:182,0
DA:183,0
DA:191,0
DA:192,0
DA:193,0
DA:194,0
DA:197,0
DA:198,0
DA:203,0
DA:208,0
DA:209,0
DA:217,0
DA:218,0
DA:219,0
DA:220,0
DA:221,0
DA:222,0
DA:224,0
DA:225,0
DA:251,0
DA:256,0
DA:257,0
DA:258,0
DA:259,0
DA:260,0
DA:261,0
DA:262,0
DA:264,0
DA:265,0
DA:266,0
DA:268,0
DA:304,0
DA:305,0
DA:312,0
DA:313,0
DA:317,0
DA:318,0
DA:319,0
DA:320,0
DA:322,0
DA:324,0
DA:325,0
DA:327,0
DA:328,0
DA:329,0
DA:330,0
DA:331,0
DA:335,0
DA:336,0
DA:337,0
DA:339,0
DA:341,0
DA:345,0
DA:347,0
DA:348,0
DA:351,0
DA:352,0
DA:355,0
DA:356,0
DA:357,0
DA:359,1
DA:364,0
DA:371,0
DA:374,0
DA:379,0
DA:380,0
DA:381,0
DA:382,0
DA:383,0
DA:384,0
DA:385,0
DA:386,0
DA:387,0
DA:388,0
DA:389,0
DA:390,0
DA:425,0
DA:433,0
DA:434,0
DA:435,0
DA:437,0
DA:438,0
DA:439,0
DA:440,0
DA:442,0
DA:443,0
DA:445,0
DA:446,0
DA:448,0
DA:449,0
DA:451,0
DA:452,0
DA:454,0
DA:455,0
DA:456,0
DA:459,0
DA:460,0
DA:462,0
DA:463,0
DA:464,0
DA:470,0
DA:476,0
DA:478,0
DA:487,0
DA:493,0
DA:494,0
DA:495,0
DA:496,0
DA:497,0
DA:498,0
DA:499,0
DA:500,0
DA:502,0
DA:503,0
DA:504,0
DA:505,0
DA:530,0
DA:531,0
DA:532,0
DA:534,0
DA:536,0
DA:537,0
DA:539,0
DA:540,0
DA:542,0
DA:543,0
DA:544,0
DA:546,0
DA:547,0
DA:548,0
DA:550,0
DA:551,0
DA:552,0
DA:554,0
DA:555,0
DA:556,0
DA:557,0
DA:559,0
DA:560,0
DA:561,0
DA:564,0
DA:565,0
DA:566,0
DA:568,0
DA:571,0
DA:572,0
DA:575,0
DA:576,0
DA:776,0
DA:784,0
DA:792,0
DA:794,0
DA:799,0
DA:800,0
DA:801,0
DA:803,0
DA:806,0
DA:807,0
DA:808,0
DA:813,0
DA:815,0
DA:816,0
DA:822,0
DA:823,0
DA:824,0
DA:825,0
DA:829,0
DA:831,0
DA:832,0
DA:840,0
DA:842,0
DA:843,0
DA:844,0
DA:845,0
DA:846,0
DA:847,0
DA:851,0
DA:854,0
DA:855,0
DA:856,0
DA:858,0
DA:859,0
DA:860,0
DA:861,0
DA:868,0
DA:870,0
DA:872,0
DA:876,0
DA:877,0
DA:878,0
DA:889,0
DA:890,0
DA:891,0
DA:893,0
DA:894,0
DA:896,0
DA:898,0
DA:899,0
DA:900,0
DA:901,0
DA:904,0
DA:905,0
DA:906,0
DA:908,0
DA:910,0
DA:911,0
DA:912,0
DA:937,0
DA:944,0
DA:945,0
DA:946,0
DA:952,0
DA:954,0
DA:955,0
DA:956,0
DA:957,0
DA:965,0
DA:966,0
DA:967,0
DA:968,0
DA:969,0
DA:983,0
DA:985,0
DA:986,0
DA:988,0
DA:991,0
DA:992,0
DA:1002,0
DA:1003,0
DA:1004,0
DA:1043,0
DA:1044,0
DA:1045,0
DA:1046,0
DA:1051,0
DA:1053,0
DA:1054,0
DA:1055,0
DA:1058,0
DA:1059,0
DA:1067,0
DA:1069,0
DA:1070,0
DA:1071,0
DA:1074,0
DA:1076,0
DA:1082,0
DA:1083,0
DA:1084,0
DA:1088,0
DA:1092,0
DA:1093,0
DA:1100,0
DA:1101,0
DA:1103,0
DA:1104,0
DA:1105,0
DA:1107,0
DA:1108,0
DA:1109,0
DA:1113,0
DA:1116,0
DA:1119,0
DA:1120,0
DA:1122,0
DA:1123,0
DA:1124,0
DA:1125,0
DA:1126,0
DA:1127,0
DA:1128,0
DA:1129,0
DA:1131,0
DA:1133,0
DA:1136,0
DA:1138,0
DA:1139,0
DA:1140,0
DA:1141,0
DA:1142,0
DA:1143,0
DA:1153,0
DA:1156,0
DA:1158,0
DA:1160,0
DA:1162,0
DA:1163,0
DA:1165,0
DA:1166,0
DA:1167,0
DA:1168,0
DA:1171,0
DA:1172,0
DA:1173,0
DA:1174,0
DA:1187,0
DA:1188,0
DA:1189,0
DA:1190,0
DA:1197,0
DA:1198,0
DA:1199,0
DA:1202,0
DA:1208,0
DA:1210,0
DA:1211,0
DA:1212,0
DA:1213,0
DA:1214,0
DA:1215,0
DA:1216,0
DA:1218,0
DA:1219,0
DA:1222,0
DA:1223,0
DA:1296,1
DA:1297,1
DA:1301,0
DA:1302,0
DA:1303,0
DA:1304,0
DA:1305,0
DA:1327,0
DA:1328,0
DA:1329,0
DA:1330,0
DA:1332,0
DA:1337,0
LF:343
LH:6
end_of_record
SF:/home/vagrant/project/cleancode/201610/DupDetector/ut/tool/ut_framework/gmock/gmock/gtest/src/gtest-filepath.cc
FN:92,_ZN7testing8internalL15IsPathSeparatorEc
FN:101,_ZN7testing8internal8FilePath13GetCurrentDirEv
FN:119,_ZNK7testing8internal8FilePath15RemoveExtensionEPKc
FN:131,_ZNK7testing8internal8FilePath21FindLastPathSeparatorEv
FN:150,_ZNK7testing8internal8FilePath19RemoveDirectoryNameEv
FN:161,_ZNK7testing8internal8FilePath14RemoveFileNameEv
FN:178,_ZN7testing8internal8FilePath12MakeFileNameERKS1_S3_iPKc
FN:194,_ZN7testing8internal8FilePath11ConcatPathsERKS1_S3_
FN:204,_ZNK7testing8internal8FilePath21FileOrDirectoryExistsEv
FN:218,_ZNK7testing8internal8FilePath15DirectoryExistsEv
FN:248,_ZNK7testing8internal8FilePath15IsRootDirectoryEv
FN:260,_ZNK7testing8internal8FilePath14IsAbsolutePathEv
FN:281,_ZN7testing8internal8FilePath22GenerateUniqueFileNameERKS1_S3_PKc
FN:295,_ZNK7testing8internal8FilePath11IsDirectoryEv
FN:303,_ZNK7testing8internal8FilePath28CreateDirectoriesRecursivelyEv
FN:320,_ZNK7testing8internal8FilePath12CreateFolderEv
FN:341,_ZNK7testing8internal8FilePath27RemoveTrailingPathSeparatorEv
FN:351,_ZN7testing8internal8FilePath9NormalizeEv
FNDA:75,_ZN7testing8internalL15IsPathSeparatorEc
FNDA:1,_ZN7testing8internal8FilePath13GetCurrentDirEv
FNDA:0,_ZNK7testing8internal8FilePath15RemoveExtensionEPKc
FNDA:0,_ZNK7testing8internal8FilePath21FindLastPathSeparatorEv
FNDA:0,_ZNK7testing8internal8FilePath19RemoveDirectoryNameEv
FNDA:0,_ZNK7testing8internal8FilePath14RemoveFileNameEv
FNDA:0,_ZN7testing8internal8FilePath12MakeFileNameERKS1_S3_iPKc
FNDA:0,_ZN7testing8internal8FilePath11ConcatPathsERKS1_S3_
FNDA:0,_ZNK7testing8internal8FilePath21FileOrDirectoryExistsEv
FNDA:0,_ZNK7testing8internal8FilePath15DirectoryExistsEv
FNDA:0,_ZNK7testing8internal8FilePath15IsRootDirectoryEv
FNDA:0,_ZNK7testing8internal8FilePath14IsAbsolutePathEv
FNDA:0,_ZN7testing8internal8FilePath22GenerateUniqueFileNameERKS1_S3_PKc
FNDA:0,_ZNK7testing8internal8FilePath11IsDirectoryEv
FNDA:0,_ZNK7testing8internal8FilePath28CreateDirectoriesRecursivelyEv
FNDA:0,_ZNK7testing8internal8FilePath12CreateFolderEv
FNDA:0,_ZNK7testing8internal8FilePath27RemoveTrailingPathSeparatorEv
FNDA:1,_ZN7testing8internal8FilePath9NormalizeEv
FNF:18
FNH:3
DA:92,75
DA:96,75
DA:101,1
DA:110,1
DA:111,1
DA:119,0
DA:120,0
DA:121,0
DA:123,0
DA:125,0
DA:131,0
DA:132,0
DA:141,0
DA:150,0
DA:151,0
DA:152,0
DA:161,0
DA:162,0
DA:163,0
DA:164,0
DA:165,0
DA:167,0
DA:169,0
DA:178,0
DA:182,0
DA:183,0
DA:184,0
DA:186,0
DA:187,0
DA:189,0
DA:194,0
DA:196,0
DA:197,0
DA:198,0
DA:199,0
DA:204,0
DA:212,0
DA:218,0
DA:219,0
DA:226,0
DA:239,0
DA:240,0
DA:243,0
DA:248,0
DA:255,0
DA:260,0
DA:261,0
DA:269,0
DA:281,0
DA:284,0
DA:285,0
DA:286,0
DA:287,0
DA:289,0
DA:295,0
DA:296,0
DA:297,0
DA:303,0
DA:304,0
DA:305,0
DA:308,0
DA:309,0
DA:312,0
DA:313,0
DA:320,0
DA:329,0
DA:332,0
DA:333,0
DA:335,0
DA:341,0
DA:342,0
DA:343,0
DA:344,0
DA:351,1
DA:352,1
DA:353,0
DA:354,1
DA:356,1
DA:357,1
DA:358,1
DA:359,1
DA:361,61
DA:362,59
DA:363,59
DA:364,51
DA:371,24
DA:372,8
DA:374,59
DA:376,1
DA:377,1
DA:378,1
LF:91
LH:22
end_of_record
SF:/home/vagrant/project/cleancode/201610/DupDetector/ut/tool/ut_framework/gmock/gmock/gtest/src/gtest-internal-inl.h
FN:135,_ZN7testing8internal21GetRandomSeedFromFlagEi
FN:151,_ZN7testing8internal17GetNextRandomSeedEi
FN:164,_ZN7testing8internal14GTestFlagSaverC2Ev
FN:185,_ZN7testing8internal14GTestFlagSaverD2Ev
FN:282,_ZN7testing8internal7CountIfISt6vectorINS_14TestPartResultESaIS3_EEPFbRKS3_EEEiRKT_T0_
FN:282,_ZN7testing8internal7CountIfISt6vectorIPNS_8TestInfoESaIS4_EEPFbPKS3_EEEiRKT_T0_
FN:282,_ZN7testing8internal7CountIfISt6vectorIPNS_8TestCaseESaIS4_EEPFbPKS3_EEEiRKT_T0_
FN:295,_ZN7testing8internal7ForEachISt6vectorIPNS_11EnvironmentESaIS4_EEPFvS4_EEEvRKT_T0_
FN:295,_ZN7testing8internal7ForEachISt6vectorIPNS_17TestEventListenerESaIS4_EEPFvS4_EEEvRKT_T0_
FN:295,_ZN7testing8internal7ForEachISt6vectorIPNS_8TestInfoESaIS4_EEPFvS4_EEEvRKT_T0_
FN:295,_ZN7testing8internal7ForEachISt6vectorIPNS_8TestCaseESaIS4_EEPFvS4_EEEvRKT_T0_
FN:302,_ZN7testing8internal12GetElementOrIiEET_RKSt6vectorIS2_SaIS2_EEiS2_
FN:311,_ZN7testing8internal12ShuffleRangeIiEEvPNS0_6RandomEiiPSt6vectorIT_SaIS5_EE
FN:332,_ZN7testing8internal7ShuffleIiEEvPNS0_6RandomEPSt6vectorIT_SaIS5_EE
FN:339,_ZN7testing8internalL6DeleteINS_8TestInfoEEEvPT_
FN:339,_ZN7testing8internalL6DeleteINS_17TestEventListenerEEEvPT_
FN:339,_ZN7testing8internalL6DeleteINS_8TestCaseEEEvPT_
FN:339,_ZN7testing8internalL6DeleteINS_11EnvironmentEEEvPT_
FN:346,_ZN7testing8internal17TestPropertyKeyIsC2ERKS1_
FN:346,_ZN7testing8internal17TestPropertyKeyIsD2Ev
FN:351,_ZN7testing8internal17TestPropertyKeyIsC2ERKSs
FN:354,_ZNK7testing8internal17TestPropertyKeyIsclERKNS_12TestPropertyE
FN:419,_ZN7testing8internal27OsStackTraceGetterInterfaceC2Ev
FN:420,_ZN7testing8internal27OsStackTraceGetterInterfaceD0Ev
FN:420,_ZN7testing8internal27OsStackTraceGetterInterfaceD2Ev
FN:440,_ZN7testing8internal18OsStackTraceGetterD2Ev
FN:440,_ZN7testing8internal18OsStackTraceGetterD0Ev
FN:442,_ZN7testing8internal18OsStackTraceGetterC2Ev
FN:466,_ZN7testing8internal9TraceInfoC2EOS1_
FN:466,_ZN7testing8internal9TraceInfoD2Ev
FN:466,_ZN7testing8internal9TraceInfoC2ERKS1_
FN:466,_ZN7testing8internal9TraceInfoC2Ev
FN:474,_ZN7testing8internal35DefaultGlobalTestPartResultReporterD2Ev
FN:474,_ZN7testing8internal35DefaultGlobalTestPartResultReporterD0Ev
FN:490,_ZN7testing8internal38DefaultPerThreadTestPartResultReporterD2Ev
FN:490,_ZN7testing8internal38DefaultPerThreadTestPartResultReporterD0Ev
FN:570,_ZNK7testing8internal12UnitTestImpl15start_timestampEv
FN:573,_ZNK7testing8internal12UnitTestImpl12elapsed_timeEv
FN:576,_ZNK7testing8internal12UnitTestImpl6PassedEv
FN:580,_ZNK7testing8internal12UnitTestImpl6FailedEv
FN:586,_ZNK7testing8internal12UnitTestImpl11GetTestCaseEi
FN:593,_ZN7testing8internal12UnitTestImpl18GetMutableTestCaseEi
FN:599,_ZN7testing8internal12UnitTestImpl9listenersEv
FN:606,_ZNK7testing8internal12UnitTestImpl18ad_hoc_test_resultEv
FN:654,_ZN7testing8internal12UnitTestImpl11AddTestInfoEPFvvES3_PNS_8TestInfoE
FN:679,_ZN7testing8internal12UnitTestImpl27parameterized_test_registryEv
FN:685,_ZN7testing8internal12UnitTestImpl21set_current_test_caseEPNS_8TestCaseE
FN:692,_ZN7testing8internal12UnitTestImpl21set_current_test_infoEPNS_8TestInfoE
FN:711,_ZN7testing8internal12UnitTestImpl23ClearNonAdHocTestResultEv
FN:742,_ZNK7testing8internal12UnitTestImpl17current_test_caseEv
FN:743,_ZN7testing8internal12UnitTestImpl17current_test_infoEv
FN:744,_ZNK7testing8internal12UnitTestImpl17current_test_infoEv
FN:748,_ZN7testing8internal12UnitTestImpl12environmentsEv
FN:751,_ZN7testing8internal12UnitTestImpl17gtest_trace_stackEv
FN:759,_ZN7testing8internal12UnitTestImpl34InitDeathTestSubprocessControlInfoEv
FN:766,_ZNK7testing8internal12UnitTestImpl28internal_run_death_test_flagEv
FN:771,_ZN7testing8internal12UnitTestImpl18death_test_factoryEv
FN:798,_ZNK7testing8internal12UnitTestImpl11random_seedEv
FN:801,_ZN7testing8internal12UnitTestImpl6randomEv
FN:812,_ZNK7testing8internal12UnitTestImpl16catch_exceptionsEv
FN:819,_ZN7testing8internal12UnitTestImpl20set_catch_exceptionsEb
FN:936,_ZN7testing8internal15GetUnitTestImplEv
FN:1002,_ZN7testing8internal18ParseNaturalNumberIiEEbRKSsPT_
FN:1070,_ZN7testing8internal17StreamingListenerD0Ev
FN:1070,_ZN7testing8internal17StreamingListenerD2Ev
FN:1073,_ZN7testing8internal17StreamingListener20AbstractSocketWriterC2Ev
FN:1075,_ZN7testing8internal17StreamingListener20AbstractSocketWriterD2Ev
FN:1075,_ZN7testing8internal17StreamingListener20AbstractSocketWriterD0Ev
FN:1081,_ZN7testing8internal17StreamingListener20AbstractSocketWriter15CloseConnectionEv
FN:1084,_ZN7testing8internal17StreamingListener20AbstractSocketWriter6SendLnERKSs
FN:1092,_ZN7testing8internal17StreamingListener12SocketWriterC2ERKSsS4_
FN:1097,_ZN7testing8internal17StreamingListener12SocketWriterD2Ev
FN:1097,_ZN7testing8internal17StreamingListener12SocketWriterD0Ev
FN:1103,_ZN7testing8internal17StreamingListener12SocketWriter4SendERKSs
FN:1120,_ZN7testing8internal17StreamingListener12SocketWriter15CloseConnectionEv
FN:1138,_ZN7testing8internal17StreamingListenerC2ERKSsS3_
FN:1144,_ZN7testing8internal17StreamingListener18OnTestProgramStartERKNS_8UnitTestE
FN:1148,_ZN7testing8internal17StreamingListener16OnTestProgramEndERKNS_8UnitTestE
FN:1157,_ZN7testing8internal17StreamingListener20OnTestIterationStartERKNS_8UnitTestEi
FN:1162,_ZN7testing8internal17StreamingListener18OnTestIterationEndERKNS_8UnitTestEi
FN:1168,_ZN7testing8internal17StreamingListener15OnTestCaseStartERKNS_8TestCaseE
FN:1172,_ZN7testing8internal17StreamingListener13OnTestCaseEndERKNS_8TestCaseE
FN:1178,_ZN7testing8internal17StreamingListener11OnTestStartERKNS_8TestInfoE
FN:1182,_ZN7testing8internal17StreamingListener9OnTestEndERKNS_8TestInfoE
FN:1189,_ZN7testing8internal17StreamingListener16OnTestPartResultERKNS_14TestPartResultE
FN:1200,_ZN7testing8internal17StreamingListener6SendLnERKSs
FN:1204,_ZN7testing8internal17StreamingListener5StartEv
FN:1206,_ZN7testing8internal17StreamingListener10FormatBoolEb
FNDA:0,_ZN7testing8internal21GetRandomSeedFromFlagEi
FNDA:0,_ZN7testing8internal17GetNextRandomSeedEi
FNDA:1,_ZN7testing8internal14GTestFlagSaverC2Ev
FNDA:1,_ZN7testing8internal14GTestFlagSaverD2Ev
FNDA:9,_ZN7testing8internal7CountIfISt6vectorIPNS_8TestInfoESaIS4_EEPFbPKS3_EEEiRKT_T0_
FNDA:3,_ZN7testing8internal7CountIfISt6vectorINS_14TestPartResultESaIS3_EEPFbRKS3_EEEiRKT_T0_
FNDA:4,_ZN7testing8internal7CountIfISt6vectorIPNS_8TestCaseESaIS4_EEPFbPKS3_EEEiRKT_T0_
FNDA:2,_ZN7testing8internal7ForEachISt6vectorIPNS_11EnvironmentESaIS4_EEPFvS4_EEEvRKT_T0_
FNDA:1,_ZN7testing8internal7ForEachISt6vectorIPNS_17TestEventListenerESaIS4_EEPFvS4_EEEvRKT_T0_
FNDA:2,_ZN7testing8internal7ForEachISt6vectorIPNS_8TestInfoESaIS4_EEPFvS4_EEEvRKT_T0_
FNDA:2,_ZN7testing8internal7ForEachISt6vectorIPNS_8TestCaseESaIS4_EEPFvS4_EEEvRKT_T0_
FNDA:2,_ZN7testing8internal12GetElementOrIiEET_RKSt6vectorIS2_SaIS2_EEiS2_
FNDA:0,_ZN7testing8internal12ShuffleRangeIiEEvPNS0_6RandomEiiPSt6vectorIT_SaIS5_EE
FNDA:0,_ZN7testing8internal7ShuffleIiEEvPNS0_6RandomEPSt6vectorIT_SaIS5_EE
FNDA:0,_ZN7testing8internalL6DeleteINS_11EnvironmentEEEvPT_
FNDA:1,_ZN7testing8internalL6DeleteINS_8TestCaseEEEvPT_
FNDA:1,_ZN7testing8internalL6DeleteINS_17TestEventListenerEEEvPT_
FNDA:1,_ZN7testing8internalL6DeleteINS_8TestInfoEEEvPT_
FNDA:0,_ZN7testing8internal17TestPropertyKeyIsC2ERKS1_
FNDA:0,_ZN7testing8internal17TestPropertyKeyIsD2Ev
FNDA:0,_ZN7testing8internal17TestPropertyKeyIsC2ERKSs
FNDA:0,_ZNK7testing8internal17TestPropertyKeyIsclERKNS_12TestPropertyE
FNDA:1,_ZN7testing8internal27OsStackTraceGetterInterfaceC2Ev
FNDA:0,_ZN7testing8internal27OsStackTraceGetterInterfaceD0Ev
FNDA:1,_ZN7testing8internal27OsStackTraceGetterInterfaceD2Ev
FNDA:1,_ZN7testing8internal18OsStackTraceGetterD0Ev
FNDA:1,_ZN7testing8internal18OsStackTraceGetterD2Ev
FNDA:1,_ZN7testing8internal18OsStackTraceGetterC2Ev
FNDA:0,_ZN7testing8internal9TraceInfoC2EOS1_
FNDA:0,_ZN7testing8internal9TraceInfoC2ERKS1_
FNDA:0,_ZN7testing8internal9TraceInfoD2Ev
FNDA:0,_ZN7testing8internal9TraceInfoC2Ev
FNDA:0,_ZN7testing8internal35DefaultGlobalTestPartResultReporterD0Ev
FNDA:1,_ZN7testing8internal35DefaultGlobalTestPartResultReporterD2Ev
FNDA:0,_ZN7testing8internal38DefaultPerThreadTestPartResultReporterD0Ev
FNDA:1,_ZN7testing8internal38DefaultPerThreadTestPartResultReporterD2Ev
FNDA:0,_ZNK7testing8internal12UnitTestImpl15start_timestampEv
FNDA:1,_ZNK7testing8internal12UnitTestImpl12elapsed_timeEv
FNDA:2,_ZNK7testing8internal12UnitTestImpl6PassedEv
FNDA:2,_ZNK7testing8internal12UnitTestImpl6FailedEv
FNDA:0,_ZNK7testing8internal12UnitTestImpl11GetTestCaseEi
FNDA:1,_ZN7testing8internal12UnitTestImpl18GetMutableTestCaseEi
FNDA:4,_ZN7testing8internal12UnitTestImpl9listenersEv
FNDA:2,_ZNK7testing8internal12UnitTestImpl18ad_hoc_test_resultEv
FNDA:1,_ZN7testing8internal12UnitTestImpl11AddTestInfoEPFvvES3_PNS_8TestInfoE
FNDA:0,_ZN7testing8internal12UnitTestImpl27parameterized_test_registryEv
FNDA:2,_ZN7testing8internal12UnitTestImpl21set_current_test_caseEPNS_8TestCaseE
FNDA:2,_ZN7testing8internal12UnitTestImpl21set_current_test_infoEPNS_8TestInfoE
FNDA:1,_ZN7testing8internal12UnitTestImpl23ClearNonAdHocTestResultEv
FNDA:1,_ZNK7testing8internal12UnitTestImpl17current_test_caseEv
FNDA:1,_ZN7testing8internal12UnitTestImpl17current_test_infoEv
FNDA:0,_ZNK7testing8internal12UnitTestImpl17current_test_infoEv
FNDA:0,_ZN7testing8internal12UnitTestImpl12environmentsEv
FNDA:0,_ZN7testing8internal12UnitTestImpl17gtest_trace_stackEv
FNDA:1,_ZN7testing8internal12UnitTestImpl34InitDeathTestSubprocessControlInfoEv
FNDA:0,_ZNK7testing8internal12UnitTestImpl28internal_run_death_test_flagEv
FNDA:0,_ZN7testing8internal12UnitTestImpl18death_test_factoryEv
FNDA:0,_ZNK7testing8internal12UnitTestImpl11random_seedEv
FNDA:0,_ZN7testing8internal12UnitTestImpl6randomEv
FNDA:8,_ZNK7testing8internal12UnitTestImpl16catch_exceptionsEv
FNDA:1,_ZN7testing8internal12UnitTestImpl20set_catch_exceptionsEb
FNDA:17,_ZN7testing8internal15GetUnitTestImplEv
FNDA:0,_ZN7testing8internal18ParseNaturalNumberIiEEbRKSsPT_
FNDA:0,_ZN7testing8internal17StreamingListenerD0Ev
FNDA:0,_ZN7testing8internal17StreamingListenerD2Ev
FNDA:0,_ZN7testing8internal17StreamingListener20AbstractSocketWriterC2Ev
FNDA:0,_ZN7testing8internal17StreamingListener20AbstractSocketWriterD0Ev
FNDA:0,_ZN7testing8internal17StreamingListener20AbstractSocketWriterD2Ev
FNDA:0,_ZN7testing8internal17StreamingListener20AbstractSocketWriter15CloseConnectionEv
FNDA:0,_ZN7testing8internal17StreamingListener20AbstractSocketWriter6SendLnERKSs
FNDA:0,_ZN7testing8internal17StreamingListener12SocketWriterC2ERKSsS4_
FNDA:0,_ZN7testing8internal17StreamingListener12SocketWriterD0Ev
FNDA:0,_ZN7testing8internal17StreamingListener12SocketWriterD2Ev
FNDA:0,_ZN7testing8internal17StreamingListener12SocketWriter4SendERKSs
FNDA:0,_ZN7testing8internal17StreamingListener12SocketWriter15CloseConnectionEv
FNDA:0,_ZN7testing8internal17StreamingListenerC2ERKSsS3_
FNDA:0,_ZN7testing8internal17StreamingListener18OnTestProgramStartERKNS_8UnitTestE
FNDA:0,_ZN7testing8internal17StreamingListener16OnTestProgramEndERKNS_8UnitTestE
FNDA:0,_ZN7testing8internal17StreamingListener20OnTestIterationStartERKNS_8UnitTestEi
FNDA:0,_ZN7testing8internal17StreamingListener18OnTestIterationEndERKNS_8UnitTestEi
FNDA:0,_ZN7testing8internal17StreamingListener15OnTestCaseStartERKNS_8TestCaseE
FNDA:0,_ZN7testing8internal17StreamingListener13OnTestCaseEndERKNS_8TestCaseE
FNDA:0,_ZN7testing8internal17StreamingListener11OnTestStartERKNS_8TestInfoE
FNDA:0,_ZN7testing8internal17StreamingListener9OnTestEndERKNS_8TestInfoE
FNDA:0,_ZN7testing8internal17StreamingListener16OnTestPartResultERKNS_14TestPartResultE
FNDA:0,_ZN7testing8internal17StreamingListener6SendLnERKSs
FNDA:0,_ZN7testing8internal17StreamingListener5StartEv
FNDA:0,_ZN7testing8internal17StreamingListener10FormatBoolEb
FNF:88
FNH:36
DA:135,0
DA:137,0
DA:138,0
DA:143,0
DA:144,0
DA:145,0
DA:151,0
DA:152,0
DA:153,0
DA:154,0
DA:155,0
DA:156,0
DA:164,1
DA:165,1
DA:166,1
DA:167,1
DA:168,1
DA:169,1
DA:170,1
DA:171,1
DA:172,1
DA:173,1
DA:174,1
DA:175,1
DA:176,1
DA:177,1
DA:178,1
DA:179,1
DA:180,1
DA:181,1
DA:182,1
DA:185,2
DA:186,1
DA:187,1
DA:188,1
DA:189,1
DA:190,1
DA:191,1
DA:192,1
DA:193,1
DA:194,1
DA:195,1
DA:196,1
DA:197,1
DA:198,1
DA:199,1
DA:200,1
DA:201,1
DA:202,1
DA:203,1
DA:282,16
DA:285,16
DA:286,29
DA:287,13
DA:288,7
DA:290,16
DA:295,7
DA:296,7
DA:297,7
DA:302,2
DA:303,2
DA:311,0
DA:313,0
DA:314,0
DA:315,0
DA:316,0
DA:317,0
DA:318,0
DA:319,0
DA:323,0
DA:324,0
DA:325,0
DA:326,0
DA:328,0
DA:332,0
DA:333,0
DA:334,0
DA:339,3
DA:340,3
DA:341,3
DA:346,0
DA:351,0
DA:354,0
DA:355,0
DA:419,1
DA:420,1
DA:440,2
DA:442,1
DA:466,0
DA:474,1
DA:490,1
DA:570,0
DA:573,1
DA:576,2
DA:580,2
DA:581,2
DA:586,0
DA:587,0
DA:588,0
DA:593,1
DA:594,1
DA:595,1
DA:599,4
DA:606,2
DA:654,1
DA:664,1
DA:665,1
DA:666,1
DA:667,0
DA:673,1
DA:674,1
DA:679,0
DA:680,0
DA:685,2
DA:686,2
DA:687,2
DA:692,2
DA:693,2
DA:694,2
DA:711,1
DA:712,1
DA:713,1
DA:742,1
DA:743,1
DA:744,0
DA:748,0
DA:751,0
DA:752,0
DA:759,1
DA:760,1
DA:761,1
DA:766,0
DA:767,0
DA:771,0
DA:772,0
DA:798,0
DA:801,0
DA:812,8
DA:819,1
DA:936,17
DA:937,17
DA:1002,0
DA:1006,0
DA:1007,0
DA:1009,0
DA:1024,0
DA:1028,0
DA:1032,0
DA:1034,0
DA:1035,0
DA:1036,0
DA:1037,0
DA:1039,0
DA:1070,0
DA:1073,0
DA:1075,0
DA:1081,0
DA:1084,0
DA:1085,0
DA:1086,0
DA:1092,0
DA:1093,0
DA:1094,0
DA:1095,0
DA:1097,0
DA:1098,0
DA:1099,0
DA:1100,0
DA:1103,0
DA:1104,0
DA:1105,0
DA:1107,0
DA:1108,0
DA:1109,0
DA:1110,0
DA:1111,0
DA:1113,0
DA:1120,0
DA:1121,0
DA:1122,0
DA:1124,0
DA:1125,0
DA:1126,0
DA:1138,0
DA:1139,0
DA:1144,0
DA:1145,0
DA:1146,0
DA:1148,0
DA:1151,0
DA:1154,0
DA:1155,0
DA:1157,0
DA:1158,0
DA:1159,0
DA:1160,0
DA:1162,0
DA:1163,0
DA:1164,0
DA:1165,0
DA:1166,0
DA:1168,0
DA:1169,0
DA:1170,0
DA:1172,0
DA:1173,0
DA:1174,0
DA:1175,0
DA:1176,0
DA:1178,0
DA:1179,0
DA:1180,0
DA:1182,0
DA:1183,0
DA:1184,0
DA:1185,0
DA:1186,0
DA:1187,0
DA:1189,0
DA:1190,0
DA:1191,0
DA:1192,0
DA:1193,0
DA:1194,0
DA:1195,0
DA:1196,0
DA:1200,0
DA:1204,0
DA:1206,0
LF:229
LH:91
end_of_record
SF:/home/vagrant/project/cleancode/201610/DupDetector/ut/tool/ut_framework/gmock/gmock/gtest/src/gtest-port.cc
FN:128,_ZN7testing8internal14GetThreadCountEv
FN:140,_ZN7testing8internal2RED2Ev
FN:153,_ZN7testing8internal2RE9FullMatchEPKcRKS1_
FN:162,_ZN7testing8internal2RE12PartialMatchEPKcRKS1_
FN:170,_ZN7testing8internal2RE4InitEPKc
FN:456,_ZN7testing8internal18FormatFileLocationEPKci
FN:474,_ZN7testing8internal37FormatCompilerIndependentFileLocationEPKci
FN:485,_ZN7testing8internal8GTestLogC2ENS0_16GTestLogSeverityEPKci
FN:496,_ZN7testing8internal8GTestLogD2Ev
FN:516,_ZN7testing8internal14CapturedStreamC2Ei
FN:564,_ZN7testing8internal14CapturedStreamD2Ev
FN:568,_ZN7testing8internal14CapturedStream17GetCapturedStringEv
FN:599,_ZN7testing8internal14CapturedStream11GetFileSizeEP8_IO_FILE
FN:605,_ZN7testing8internal14CapturedStream14ReadEntireFileEP8_IO_FILE
FN:635,_ZN7testing8internal13CaptureStreamEiPKcPPNS0_14CapturedStreamE
FN:644,_ZN7testing8internal17GetCapturedStreamEPPNS0_14CapturedStreamE
FN:654,_ZN7testing8internal13CaptureStdoutEv
FN:659,_ZN7testing8internal13CaptureStderrEv
FN:664,_ZN7testing8internal17GetCapturedStdoutEv
FN:669,_ZN7testing8internal17GetCapturedStderrEv
FN:683,_ZN7testing8internal18SetInjectableArgvsEPKSt6vectorISsSaISsEE
FN:689,_ZN7testing8internal18GetInjectableArgvsEv
FN:709,_ZN7testing8internalL12FlagToEnvVarEPKc
FN:724,_ZN7testing8internal10ParseInt32ERKNS_7MessageEPKcPi
FN:766,_ZN7testing8internal16BoolFromGTestEnvEPKcb
FN:776,_ZN7testing8internal17Int32FromGTestEnvEPKci
FN:798,_ZN7testing8internal18StringFromGTestEnvEPKcS2_
FNDA:0,_ZN7testing8internal14GetThreadCountEv
FNDA:0,_ZN7testing8internal2RED2Ev
FNDA:0,_ZN7testing8internal2RE9FullMatchEPKcRKS1_
FNDA:0,_ZN7testing8internal2RE12PartialMatchEPKcRKS1_
FNDA:0,_ZN7testing8internal2RE4InitEPKc
FNDA:0,_ZN7testing8internal18FormatFileLocationEPKci
FNDA:0,_ZN7testing8internal37FormatCompilerIndependentFileLocationEPKci
FNDA:0,_ZN7testing8internal8GTestLogC2ENS0_16GTestLogSeverityEPKci
FNDA:0,_ZN7testing8internal8GTestLogD2Ev
FNDA:0,_ZN7testing8internal14CapturedStreamC2Ei
FNDA:0,_ZN7testing8internal14CapturedStreamD2Ev
FNDA:0,_ZN7testing8internal14CapturedStream17GetCapturedStringEv
FNDA:0,_ZN7testing8internal14CapturedStream11GetFileSizeEP8_IO_FILE
FNDA:0,_ZN7testing8internal14CapturedStream14ReadEntireFileEP8_IO_FILE
FNDA:0,_ZN7testing8internal13CaptureStreamEiPKcPPNS0_14CapturedStreamE
FNDA:0,_ZN7testing8internal17GetCapturedStreamEPPNS0_14CapturedStreamE
FNDA:0,_ZN7testing8internal13CaptureStdoutEv
FNDA:0,_ZN7testing8internal13CaptureStderrEv
FNDA:0,_ZN7testing8internal17GetCapturedStdoutEv
FNDA:0,_ZN7testing8internal17GetCapturedStderrEv
FNDA:0,_ZN7testing8internal18SetInjectableArgvsEPKSt6vectorISsSaISsEE
FNDA:0,_ZN7testing8internal18GetInjectableArgvsEv
FNDA:15,_ZN7testing8internalL12FlagToEnvVarEPKc
FNDA:0,_ZN7testing8internal10ParseInt32ERKNS_7MessageEPKcPi
FNDA:7,_ZN7testing8internal16BoolFromGTestEnvEPKcb
FNDA:3,_ZN7testing8internal17Int32FromGTestEnvEPKci
FNDA:5,_ZN7testing8internal18StringFromGTestEnvEPKcS2_
FNF:27
FNH:4
DA:128,0
DA:131,0
DA:140,0
DA:141,0
DA:146,0
DA:147,0
DA:149,0
DA:150,0
DA:153,0
DA:154,0
DA:157,0
DA:162,0
DA:163,0
DA:166,0
DA:170,0
DA:171,0
DA:175,0
DA:176,0
DA:178,0
DA:179,0
DA:188,0
DA:189,0
DA:190,0
DA:192,0
DA:193,0
DA:194,0
DA:196,0
DA:197,0
DA:456,0
DA:457,0
DA:459,0
DA:460,0
DA:465,0
DA:474,0
DA:476,0
DA:478,0
DA:479,0
DA:481,0
DA:485,0
DA:486,0
DA:490,0
DA:491,0
DA:492,0
DA:493,0
DA:496,0
DA:497,0
DA:498,0
DA:499,0
DA:500,0
DA:502,0
DA:516,0
DA:554,0
DA:556,0
DA:557,0
DA:559,0
DA:560,0
DA:561,0
DA:562,0
DA:564,0
DA:565,0
DA:566,0
DA:568,0
DA:569,0
DA:571,0
DA:572,0
DA:573,0
DA:574,0
DA:577,0
DA:578,0
DA:579,0
DA:580,0
DA:599,0
DA:600,0
DA:601,0
DA:605,0
DA:606,0
DA:607,0
DA:609,0
DA:610,0
DA:612,0
DA:616,0
DA:617,0
DA:618,0
DA:619,0
DA:621,0
DA:622,0
DA:624,0
DA:635,0
DA:636,0
DA:637,0
DA:638,0
DA:640,0
DA:641,0
DA:644,0
DA:645,0
DA:647,0
DA:648,0
DA:650,0
DA:654,0
DA:655,0
DA:656,0
DA:659,0
DA:660,0
DA:661,0
DA:664,0
DA:665,0
DA:669,0
DA:670,0
DA:678,1
DA:683,0
DA:684,0
DA:685,0
DA:686,0
DA:687,0
DA:689,0
DA:690,0
DA:691,0
DA:693,0
DA:709,15
DA:711,15
DA:713,30
DA:714,295
DA:715,280
DA:718,30
DA:724,0
DA:726,0
DA:727,0
DA:730,0
DA:732,0
DA:733,0
DA:734,0
DA:735,0
DA:736,0
DA:737,0
DA:738,0
DA:742,0
DA:743,0
DA:746,0
DA:749,0
DA:750,0
DA:751,0
DA:752,0
DA:753,0
DA:754,0
DA:755,0
DA:758,0
DA:759,0
DA:766,7
DA:767,7
DA:768,7
DA:770,7
DA:776,3
DA:777,3
DA:778,3
DA:779,3
DA:781,3
DA:784,0
DA:785,0
DA:786,0
DA:788,0
DA:789,0
DA:790,0
DA:793,0
DA:798,5
DA:799,5
DA:800,5
DA:801,5
LF:167
LH:20
end_of_record
SF:/home/vagrant/project/cleancode/201610/DupDetector/ut/tool/ut_framework/gmock/gmock/gtest/src/gtest-printers.cc
FN:59,_ZN7testing12_GLOBAL__N_126PrintByteSegmentInObjectToEPKhmmPSo
FN:78,_ZN7testing12_GLOBAL__N_124PrintBytesInObjectToImplEPKhmPSo
FN:110,_ZN7testing9internal220PrintBytesInObjectToEPKhmPSo
FN:133,_ZN7testing8internal16IsPrintableAsciiEw
FN:142,_ZN7testing8internalL20PrintAsCharLiteralToIhhEENS0_10CharFormatET0_PSo
FN:142,_ZN7testing8internalL20PrintAsCharLiteralToIhaEENS0_10CharFormatET0_PSo
FN:142,_ZN7testing8internalL20PrintAsCharLiteralToIwwEENS0_10CharFormatET0_PSo
FN:188,_ZN7testing8internalL22PrintAsStringLiteralToEwPSo
FN:203,_ZN7testing8internalL22PrintAsStringLiteralToEcPSo
FN:213,_ZN7testing8internal18PrintCharAndCodeToIhaEEvT0_PSo
FN:213,_ZN7testing8internal18PrintCharAndCodeToIhhEEvT0_PSo
FN:213,_ZN7testing8internal18PrintCharAndCodeToIwwEEvT0_PSo
FN:237,_ZN7testing8internal7PrintToEhPSo
FN:240,_ZN7testing8internal7PrintToEaPSo
FN:246,_ZN7testing8internal7PrintToEwPSo
FN:255,_ZN7testing8internalL20PrintCharsAsStringToIcEEvPKT_mPSo
FN:255,_ZN7testing8internalL20PrintCharsAsStringToIwEEvPKT_mPSo
FN:276,_ZN7testing8internalL23UniversalPrintCharArrayIcEEvPKT_mPSo
FN:276,_ZN7testing8internalL23UniversalPrintCharArrayIwEEvPKT_mPSo
FN:299,_ZN7testing8internal19UniversalPrintArrayEPKcmPSo
FN:305,_ZN7testing8internal19UniversalPrintArrayEPKwmPSo
FN:310,_ZN7testing8internal7PrintToEPKcPSo
FN:327,_ZN7testing8internal7PrintToEPKwPSo
FN:344,_ZN7testing8internal13PrintStringToERKSsPSo
FN:356,_ZN7testing8internal17PrintWideStringToERKSbIwSt11char_traitsIwESaIwEEPSo
FNDA:0,_ZN7testing12_GLOBAL__N_126PrintByteSegmentInObjectToEPKhmmPSo
FNDA:0,_ZN7testing12_GLOBAL__N_124PrintBytesInObjectToImplEPKhmPSo
FNDA:0,_ZN7testing9internal220PrintBytesInObjectToEPKhmPSo
FNDA:0,_ZN7testing8internal16IsPrintableAsciiEw
FNDA:0,_ZN7testing8internalL20PrintAsCharLiteralToIhaEENS0_10CharFormatET0_PSo
FNDA:0,_ZN7testing8internalL20PrintAsCharLiteralToIhhEENS0_10CharFormatET0_PSo
FNDA:0,_ZN7testing8internalL20PrintAsCharLiteralToIwwEENS0_10CharFormatET0_PSo
FNDA:0,_ZN7testing8internalL22PrintAsStringLiteralToEwPSo
FNDA:0,_ZN7testing8internalL22PrintAsStringLiteralToEcPSo
FNDA:0,_ZN7testing8internal18PrintCharAndCodeToIwwEEvT0_PSo
FNDA:0,_ZN7testing8internal18PrintCharAndCodeToIhaEEvT0_PSo
FNDA:0,_ZN7testing8internal18PrintCharAndCodeToIhhEEvT0_PSo
FNDA:0,_ZN7testing8internal7PrintToEhPSo
FNDA:0,_ZN7testing8internal7PrintToEaPSo
FNDA:0,_ZN7testing8internal7PrintToEwPSo
FNDA:0,_ZN7testing8internalL20PrintCharsAsStringToIwEEvPKT_mPSo
FNDA:0,_ZN7testing8internalL20PrintCharsAsStringToIcEEvPKT_mPSo
FNDA:0,_ZN7testing8internalL23UniversalPrintCharArrayIwEEvPKT_mPSo
FNDA:0,_ZN7testing8internalL23UniversalPrintCharArrayIcEEvPKT_mPSo
FNDA:0,_ZN7testing8internal19UniversalPrintArrayEPKcmPSo
FNDA:0,_ZN7testing8internal19UniversalPrintArrayEPKwmPSo
FNDA:0,_ZN7testing8internal7PrintToEPKcPSo
FNDA:0,_ZN7testing8internal7PrintToEPKwPSo
FNDA:0,_ZN7testing8internal13PrintStringToERKSsPSo
FNDA:0,_ZN7testing8internal17PrintWideStringToERKSbIwSt11char_traitsIwESaIwEEPSo
FNF:25
FNH:0
DA:59,0
DA:61,0
DA:62,0
DA:63,0
DA:64,0
DA:67,0
DA:68,0
DA:70,0
DA:72,0
DA:73,0
DA:75,0
DA:78,0
DA:81,0
DA:83,0
DA:84,0
DA:89,0
DA:90,0
DA:92,0
DA:93,0
DA:95,0
DA:96,0
DA:98,0
DA:99,0
DA:110,0
DA:112,0
DA:113,0
DA:133,0
DA:134,0
DA:142,0
DA:143,0
DA:145,0
DA:146,0
DA:148,0
DA:149,0
DA:151,0
DA:152,0
DA:154,0
DA:155,0
DA:157,0
DA:158,0
DA:160,0
DA:161,0
DA:163,0
DA:164,0
DA:166,0
DA:167,0
DA:169,0
DA:170,0
DA:172,0
DA:173,0
DA:175,0
DA:176,0
DA:177,0
DA:179,0
DA:180,0
DA:183,0
DA:188,0
DA:189,0
DA:191,0
DA:192,0
DA:194,0
DA:195,0
DA:197,0
DA:203,0
DA:205,0
DA:213,0
DA:215,0
DA:216,0
DA:217,0
DA:222,0
DA:223,0
DA:224,0
DA:229,0
DA:232,0
DA:234,0
DA:237,0
DA:238,0
DA:239,0
DA:240,0
DA:241,0
DA:242,0
DA:246,0
DA:247,0
DA:248,0
DA:255,0
DA:257,0
DA:258,0
DA:259,0
DA:260,0
DA:261,0
DA:262,0
DA:266,0
DA:268,0
DA:270,0
DA:271,0
DA:276,0
DA:285,0
DA:286,0
DA:287,0
DA:294,0
DA:295,0
DA:299,0
DA:300,0
DA:301,0
DA:305,0
DA:306,0
DA:307,0
DA:310,0
DA:311,0
DA:312,0
DA:314,0
DA:315,0
DA:317,0
DA:327,0
DA:328,0
DA:329,0
DA:331,0
DA:332,0
DA:334,0
DA:344,0
DA:345,0
DA:346,0
DA:356,0
DA:357,0
DA:358,0
LF:125
LH:0
end_of_record
SF:/home/vagrant/project/cleancode/201610/DupDetector/ut/tool/ut_framework/gmock/gmock/gtest/src/gtest-test-part.cc
FN:51,_ZN7testing14TestPartResult14ExtractSummaryEPKc
FN:58,_ZN7testinglsERSoRKNS_14TestPartResultE
FN:68,_ZN7testing19TestPartResultArray6AppendERKNS_14TestPartResultE
FN:73,_ZNK7testing19TestPartResultArray17GetTestPartResultEi
FN:83,_ZNK7testing19TestPartResultArray4sizeEv
FN:89,_ZN7testing8internal24HasNewFatalFailureHelperC2Ev
FN:96,_ZN7testing8internal24HasNewFatalFailureHelperD0Ev
FN:96,_ZN7testing8internal24HasNewFatalFailureHelperD2Ev
FN:101,_ZN7testing8internal24HasNewFatalFailureHelper20ReportTestPartResultERKNS_14TestPartResultE
FNDA:0,_ZN7testing14TestPartResult14ExtractSummaryEPKc
FNDA:0,_ZN7testinglsERSoRKNS_14TestPartResultE
FNDA:0,_ZN7testing19TestPartResultArray6AppendERKNS_14TestPartResultE
FNDA:0,_ZNK7testing19TestPartResultArray17GetTestPartResultEi
FNDA:0,_ZNK7testing19TestPartResultArray4sizeEv
FNDA:0,_ZN7testing8internal24HasNewFatalFailureHelperC2Ev
FNDA:0,_ZN7testing8internal24HasNewFatalFailureHelperD0Ev
FNDA:0,_ZN7testing8internal24HasNewFatalFailureHelperD2Ev
FNDA:0,_ZN7testing8internal24HasNewFatalFailureHelper20ReportTestPartResultERKNS_14TestPartResultE
FNF:9
FNH:0
DA:51,0
DA:52,0
DA:54,0
DA:58,0
DA:60,0
DA:61,0
DA:62,0
DA:63,0
DA:64,0
DA:68,0
DA:69,0
DA:70,0
DA:73,0
DA:74,0
DA:75,0
DA:76,0
DA:79,0
DA:83,0
DA:84,0
DA:89,0
DA:92,0
DA:93,0
DA:94,0
DA:96,0
DA:98,0
DA:99,0
DA:101,0
DA:103,0
DA:104,0
DA:105,0
DA:106,0
LF:31
LH:0
end_of_record
SF:/home/vagrant/project/cleancode/201610/DupDetector/ut/tool/ut_framework/gmock/gmock/gtest/src/gtest-typed-test.cc
FN:42,_ZN7testing8internalL10SkipSpacesEPKc
FN:51,_ZN7testing8internal19TypedTestCasePState25VerifyRegisteredTestNamesEPKciS3_
FN:110,_GLOBAL__sub_I__ZN7testing8internal17kStackTraceMarkerE
FNDA:0,_ZN7testing8internalL10SkipSpacesEPKc
FNDA:0,_ZN7testing8internal19TypedTestCasePState25VerifyRegisteredTestNamesEPKciS3_
FNDA:1,_GLOBAL__sub_I__ZN7testing8internal17kStackTraceMarkerE
FNDA:1,_Z41__static_initialization_and_destruction_0ii
FNF:4
FNH:2
DA:42,0
DA:43,0
DA:44,0
DA:45,0
DA:51,0
DA:54,0
DA:58,0
DA:60,0
DA:61,0
DA:62,0
DA:64,0
DA:65,0
DA:66,0
DA:67,0
DA:70,0
DA:71,0
DA:72,0
DA:74,0
DA:75,0
DA:76,0
DA:80,0
DA:81,0
DA:83,0
DA:84,0
DA:86,0
DA:88,0
DA:89,0
DA:91,0
DA:92,0
DA:96,0
DA:97,0
DA:99,0
DA:100,0
DA:101,0
DA:104,0
DA:110,3
LF:36
LH:1
end_of_record
SF:/home/vagrant/project/cleancode/201610/DupDetector/ut/tool/ut_framework/gmock/gmock/gtest/src/gtest.cc
FN:185,_ZN7testingL16GetDefaultFilterEv
FN:291,_ZN7testing8internal6Random8GenerateEj
FN:316,_ZN7testing8internalL18GTestIsInitializedEv
FN:321,_ZN7testing8internalL19SumOverTestCaseListERKSt6vectorIPNS_8TestCaseESaIS3_EEMS2_KFivE
FN:331,_ZN7testing8internalL14TestCasePassedEPKNS_8TestCaseE
FN:336,_ZN7testing8internalL14TestCaseFailedEPKNS_8TestCaseE
FN:342,_ZN7testing8internalL17ShouldRunTestCaseEPKNS_8TestCaseE
FN:347,_ZN7testing8internal12AssertHelperC2ENS_14TestPartResult4TypeEPKciS5_
FN:354,_ZN7testing8internal12AssertHelperD2Ev
FN:359,_ZNK7testing8internal12AssertHelperaSERKNS_7MessageE
FN:377,_ZN7testing8internal24GetCurrentExecutableNameEv
FN:392,_ZN7testing8internal15UnitTestOptions15GetOutputFormatEv
FN:404,_ZN7testing8internal15UnitTestOptions27GetAbsolutePathToOutputFileEv
FN:440,_ZN7testing8internal15UnitTestOptions20PatternMatchesStringEPKcS3_
FN:457,_ZN7testing8internal15UnitTestOptions13MatchesFilterERKSsPKc
FN:480,_ZN7testing8internal15UnitTestOptions17FilterMatchesTestERKSsS3_
FN:541,_ZN7testing32ScopedFakeTestPartResultReporterC2EPNS_19TestPartResultArrayE
FN:551,_ZN7testing32ScopedFakeTestPartResultReporterC2ENS0_13InterceptModeEPNS_19TestPartResultArrayE
FN:558,_ZN7testing32ScopedFakeTestPartResultReporter4InitEv
FN:571,_ZN7testing32ScopedFakeTestPartResultReporterD2Ev
FN:571,_ZN7testing32ScopedFakeTestPartResultReporterD0Ev
FN:582,_ZN7testing32ScopedFakeTestPartResultReporter20ReportTestPartResultERKNS_14TestPartResultE
FN:598,_ZN7testing8internal13GetTestTypeIdEv
FN:609,_ZN7testing8internal13HasOneFailureEPKcS2_S2_RKNS_19TestPartResultArrayENS_14TestPartResult4TypeERKSs
FN:648,_ZN7testing8internal20SingleFailureCheckerC2EPKNS_19TestPartResultArrayENS_14TestPartResult4TypeERKSs
FN:660,_ZN7testing8internal20SingleFailureCheckerD2Ev
FN:664,_ZN7testing8internal35DefaultGlobalTestPartResultReporterC2EPNS0_12UnitTestImplE
FN:667,_ZN7testing8internal35DefaultGlobalTestPartResultReporter20ReportTestPartResultERKNS_14TestPartResultE
FN:673,_ZN7testing8internal38DefaultPerThreadTestPartResultReporterC2EPNS0_12UnitTestImplE
FN:676,_ZN7testing8internal38DefaultPerThreadTestPartResultReporter20ReportTestPartResultERKNS_14TestPartResultE
FN:683,_ZN7testing8internal12UnitTestImpl31GetGlobalTestPartResultReporterEv
FN:689,_ZN7testing8internal12UnitTestImpl31SetGlobalTestPartResultReporterEPNS_31TestPartResultReporterInterfaceE
FN:697,_ZN7testing8internal12UnitTestImpl41GetTestPartResultReporterForCurrentThreadEv
FN:702,_ZN7testing8internal12UnitTestImpl41SetTestPartResultReporterForCurrentThreadEPNS_31TestPartResultReporterInterfaceE
FN:708,_ZNK7testing8internal12UnitTestImpl26successful_test_case_countEv
FN:713,_ZNK7testing8internal12UnitTestImpl22failed_test_case_countEv
FN:718,_ZNK7testing8internal12UnitTestImpl21total_test_case_countEv
FN:724,_ZNK7testing8internal12UnitTestImpl22test_case_to_run_countEv
FN:729,_ZNK7testing8internal12UnitTestImpl21successful_test_countEv
FN:734,_ZNK7testing8internal12UnitTestImpl17failed_test_countEv
FN:739,_ZNK7testing8internal12UnitTestImpl30reportable_disabled_test_countEv
FN:745,_ZNK7testing8internal12UnitTestImpl19disabled_test_countEv
FN:750,_ZNK7testing8internal12UnitTestImpl21reportable_test_countEv
FN:755,_ZNK7testing8internal12UnitTestImpl16total_test_countEv
FN:760,_ZNK7testing8internal12UnitTestImpl17test_to_run_countEv
FN:774,_ZN7testing8internal12UnitTestImpl28CurrentOsStackTraceExceptTopEi
FN:780,_ZN7testing8internal15GetTimeInMillisEv
FN:876,_ZN7testing8internal6String13CStringEqualsEPKcS3_
FN:888,_ZN7testing8internalL24StreamWideCharsToMessageEPKwmPNS_7MessageE
FN:911,_ZN7testing7MessageC2Ev
FN:919,_ZN7testing7MessagelsEPKw
FN:922,_ZN7testing7MessagelsEPw
FN:929,_ZN7testing7MessagelsERKSbIwSt11char_traitsIwESaIwEE
FN:946,_ZNK7testing7Message9GetStringEv
FN:952,_ZN7testing15AssertionResultC2ERKS0_
FN:960,_ZNK7testing15AssertionResultntEv
FN:968,_ZN7testing16AssertionSuccessEv
FN:973,_ZN7testing16AssertionFailureEv
FN:979,_ZN7testing16AssertionFailureERKNS_7MessageE
FN:1000,_ZN7testing8internal9EqFailureEPKcS2_RKSsS4_b
FN:1023,_ZN7testing8internal30GetBoolAssertionFailureMessageERKNS_15AssertionResultEPKcS5_S5_
FN:1039,_ZN7testing8internal20DoubleNearPredFormatEPKcS2_S2_ddd
FN:1061,_ZN7testing8internal15FloatingPointLEIfEENS_15AssertionResultEPKcS4_T_S5_
FN:1061,_ZN7testing8internal15FloatingPointLEIdEENS_15AssertionResultEPKcS4_T_S5_
FN:1098,_ZN7testing7FloatLEEPKcS1_ff
FN:1105,_ZN7testing8DoubleLEEPKcS1_dd
FN:1114,_ZN7testing8internal11CmpHelperEQEPKcS2_xx
FN:1147,_ZN7testing8internal11CmpHelperNEEPKcS2_xx
FN:1150,_ZN7testing8internal11CmpHelperLEEPKcS2_xx
FN:1153,_ZN7testing8internal11CmpHelperLTEPKcS2_xx
FN:1156,_ZN7testing8internal11CmpHelperGEEPKcS2_xx
FN:1159,_ZN7testing8internal11CmpHelperGTEPKcS2_xx
FN:1164,_ZN7testing8internal14CmpHelperSTREQEPKcS2_S2_S2_
FN:1180,_ZN7testing8internal18CmpHelperSTRCASEEQEPKcS2_S2_S2_
FN:1196,_ZN7testing8internal14CmpHelperSTRNEEPKcS2_S2_S2_
FN:1210,_ZN7testing8internal18CmpHelperSTRCASENEEPKcS2_S2_S2_
FN:1234,_ZN7testing12_GLOBAL__N_115IsSubstringPredEPKcS2_
FN:1241,_ZN7testing12_GLOBAL__N_115IsSubstringPredEPKwS2_
FN:1250,_ZN7testing12_GLOBAL__N_115IsSubstringPredISsEEbRKT_S4_
FN:1250,_ZN7testing12_GLOBAL__N_115IsSubstringPredISbIwSt11char_traitsIwESaIwEEEEbRKT_S8_
FN:1260,_ZN7testing12_GLOBAL__N_115IsSubstringImplIPKwEENS_15AssertionResultEbPKcS6_RKT_S9_
FN:1260,_ZN7testing12_GLOBAL__N_115IsSubstringImplISbIwSt11char_traitsIwESaIwEEEENS_15AssertionResultEbPKcS8_RKT_SB_
FN:1260,_ZN7testing12_GLOBAL__N_115IsSubstringImplISsEENS_15AssertionResultEbPKcS4_RKT_S7_
FN:1260,_ZN7testing12_GLOBAL__N_115IsSubstringImplIPKcEENS_15AssertionResultEbS3_S3_RKT_S7_
FN:1283,_ZN7testing11IsSubstringEPKcS1_S1_S1_
FN:1289,_ZN7testing11IsSubstringEPKcS1_PKwS3_
FN:1295,_ZN7testing14IsNotSubstringEPKcS1_S1_S1_
FN:1301,_ZN7testing14IsNotSubstringEPKcS1_PKwS3_
FN:1307,_ZN7testing11IsSubstringEPKcS1_RKSsS3_
FN:1313,_ZN7testing14IsNotSubstringEPKcS1_RKSsS3_
FN:1320,_ZN7testing11IsSubstringEPKcS1_RKSbIwSt11char_traitsIwESaIwEES7_
FN:1326,_ZN7testing14IsNotSubstringEPKcS1_RKSbIwSt11char_traitsIwESaIwEES7_
FN:1424,_ZN7testing8internal11ChopLowBitsEPji
FN:1436,_ZN7testing8internal15CodePointToUtf8Ej
FN:1471,_ZN7testing8internal20IsUtf16SurrogatePairEww
FN:1477,_ZN7testing8internal37CreateCodePointFromUtf16SurrogatePairEww
FN:1500,_ZN7testing8internal16WideStringToUtf8EPKwi
FN:1525,_ZN7testing8internal6String15ShowWideCStringEPKw
FN:1537,_ZN7testing8internal6String17WideCStringEqualsEPKwS3_
FN:1546,_ZN7testing8internal14CmpHelperSTREQEPKcS2_PKwS4_
FN:1562,_ZN7testing8internal14CmpHelperSTRNEEPKcS2_PKwS4_
FN:1582,_ZN7testing8internal6String28CaseInsensitiveCStringEqualsEPKcS3_
FN:1602,_ZN7testing8internal6String32CaseInsensitiveWideCStringEqualsEPKwS3_
FN:1626,_ZN7testing8internal6String23EndsWithCaseInsensitiveERKSsS3_
FN:1636,_ZN7testing8internal6String15FormatIntWidth2Ei
FN:1643,_ZN7testing8internal6String12FormatHexIntEi
FN:1650,_ZN7testing8internal6String10FormatByteEh
FN:1659,_ZN7testing8internal20StringStreamToStringEPSt18basic_stringstreamIcSt11char_traitsIcESaIcEE
FN:1678,_ZN7testing8internal17AppendUserMessageERKSsRKNS_7MessageE
FN:1694,_ZN7testing10TestResultC2Ev
FN:1700,_ZN7testing10TestResultD2Ev
FN:1706,_ZNK7testing10TestResult17GetTestPartResultEi
FN:1715,_ZNK7testing10TestResult15GetTestPropertyEi
FN:1722,_ZN7testing10TestResult20ClearTestPartResultsEv
FN:1727,_ZN7testing10TestResult17AddTestPartResultERKNS_14TestPartResultE
FN:1734,_ZN7testing10TestResult14RecordPropertyERKSsRKNS_12TestPropertyE
FN:1785,_ZN7testing13ArrayAsVectorILi8EEESt6vectorISsSaISsEERAT__KPKc
FN:1785,_ZN7testing13ArrayAsVectorILi6EEESt6vectorISsSaISsEERAT__KPKc
FN:1789,_ZN7testingL31GetReservedAttributesForElementERKSs
FN:1804,_ZN7testingL14FormatWordListERKSt6vectorISsSaISsEE
FN:1818,_ZN7testing24ValidateTestPropertyNameERKSsRKSt6vectorISsSaISsEE
FN:1832,_ZN7testing10TestResult20ValidateTestPropertyERKSsRKNS_12TestPropertyE
FN:1839,_ZN7testing10TestResult5ClearEv
FN:1847,_ZNK7testing10TestResult6FailedEv
FN:1856,_ZN7testingL21TestPartFatallyFailedERKNS_14TestPartResultE
FN:1861,_ZNK7testing10TestResult15HasFatalFailureEv
FN:1866,_ZN7testingL24TestPartNonfatallyFailedERKNS_14TestPartResultE
FN:1871,_ZNK7testing10TestResult18HasNonfatalFailureEv
FN:1877,_ZNK7testing10TestResult16total_part_countEv
FN:1882,_ZNK7testing10TestResult19test_property_countEv
FN:1891,_ZN7testing4TestC2Ev
FN:1896,_ZN7testing4TestD0Ev
FN:1896,_ZN7testing4TestD2Ev
FN:1903,_ZN7testing4Test5SetUpEv
FN:1909,_ZN7testing4Test8TearDownEv
FN:1913,_ZN7testing4Test14RecordPropertyERKSsS2_
FN:1918,_ZN7testing4Test14RecordPropertyERKSsi
FN:1926,_ZN7testing8internal30ReportFailureInUnknownLocationENS_14TestPartResult4TypeERKSs
FN:1945,_ZN7testing4Test19HasSameFixtureClassEv
FN:2028,_ZN7testing8internalL25FormatCxxExceptionMessageEPKcS2_
FN:2044,_ZN7testing8internal26GoogleTestFailureExceptionC2ERKNS_14TestPartResultE
FN:2059,_ZN7testing8internal38HandleSehExceptionsInMethodIfSupportedINS_8TestCaseEvEET0_PT_MS4_FS3_vEPKc
FN:2059,_ZN7testing8internal38HandleSehExceptionsInMethodIfSupportedINS0_12UnitTestImplEbEET0_PT_MS4_FS3_vEPKc
FN:2059,_ZN7testing8internal38HandleSehExceptionsInMethodIfSupportedINS0_15TestFactoryBaseEPNS_4TestEEET0_PT_MS6_FS5_vEPKc
FN:2059,_ZN7testing8internal38HandleSehExceptionsInMethodIfSupportedINS_4TestEvEET0_PT_MS4_FS3_vEPKc
FN:2086,_ZN7testing8internal35HandleExceptionsInMethodIfSupportedINS_4TestEvEET0_PT_MS4_FS3_vEPKc
FN:2086,_ZN7testing8internal35HandleExceptionsInMethodIfSupportedINS_8TestCaseEvEET0_PT_MS4_FS3_vEPKc
FN:2086,_ZN7testing8internal35HandleExceptionsInMethodIfSupportedINS0_12UnitTestImplEbEET0_PT_MS4_FS3_vEPKc
FN:2086,_ZN7testing8internal35HandleExceptionsInMethodIfSupportedINS0_15TestFactoryBaseEPNS_4TestEEET0_PT_MS6_FS5_vEPKc
FN:2141,_ZN7testing4Test3RunEv
FN:2163,_ZN7testing4Test15HasFatalFailureEv
FN:2168,_ZN7testing4Test18HasNonfatalFailureEv
FN:2177,_ZN7testing8TestInfoC2ERKSsS2_PKcS4_PKvPNS_8internal15TestFactoryBaseE
FN:2195,_ZN7testing8TestInfoD2Ev
FN:2216,_ZN7testing8internal23MakeAndRegisterTestInfoEPKcS2_S2_S2_PKvPFvvES6_PNS0_15TestFactoryBaseE
FN:2233,_ZN7testing8internal25ReportInvalidTestCaseTypeEPKcS2_i
FN:2287,_ZN7testing8internal12UnitTestImpl26RegisterParameterizedTestsEv
FN:2300,_ZN7testing8TestInfo3RunEv
FN:2347,_ZNK7testing8TestCase21successful_test_countEv
FN:2352,_ZNK7testing8TestCase17failed_test_countEv
FN:2357,_ZNK7testing8TestCase30reportable_disabled_test_countEv
FN:2362,_ZNK7testing8TestCase19disabled_test_countEv
FN:2367,_ZNK7testing8TestCase21reportable_test_countEv
FN:2372,_ZNK7testing8TestCase17test_to_run_countEv
FN:2377,_ZNK7testing8TestCase16total_test_countEv
FN:2390,_ZN7testing8TestCaseC2EPKcS2_PFvvES4_
FN:2402,_ZN7testing8TestCaseD2Ev
FN:2402,_ZN7testing8TestCaseD0Ev
FN:2409,_ZNK7testing8TestCase11GetTestInfoEi
FN:2416,_ZN7testing8TestCase18GetMutableTestInfoEi
FN:2423,_ZN7testing8TestCase11AddTestInfoEPNS_8TestInfoE
FN:2429,_ZN7testing8TestCase3RunEv
FN:2457,_ZN7testing8TestCase11ClearResultEv
FN:2463,_ZN7testing8TestCase12ShuffleTestsEPNS_8internal6RandomE
FN:2468,_ZN7testing8TestCase14UnshuffleTestsEv
FN:2479,_ZN7testingL19FormatCountableNounEiPKcS1_
FN:2487,_ZN7testingL15FormatTestCountEi
FN:2492,_ZN7testingL19FormatTestCaseCountEi
FN:2500,_ZN7testingL26TestPartResultTypeToStringENS_14TestPartResult4TypeE
FN:2520,_ZN7testing8internalL27PrintTestPartResultToStringERKNS_14TestPartResultE
FN:2530,_ZN7testing8internalL19PrintTestPartResultERKNS_14TestPartResultE
FN:2573,_ZN7testing8internal16GetAnsiColorCodeENS0_10GTestColorE
FN:2585,_ZN7testing8internal14ShouldUseColorEb
FN:2621,_ZN7testing8internal13ColoredPrintfENS0_10GTestColorEPKcz
FN:2672,_ZN7testing8internal29PrintFullTestCommentIfPresentERKNS_8TestInfoE
FN:2692,_ZN7testing8internal27PrettyUnitTestResultPrinterD2Ev
FN:2692,_ZN7testing8internal27PrettyUnitTestResultPrinterD0Ev
FN:2694,_ZN7testing8internal27PrettyUnitTestResultPrinterC2Ev
FN:2695,_ZN7testing8internal27PrettyUnitTestResultPrinter13PrintTestNameEPKcS3_
FN:2700,_ZN7testing8internal27PrettyUnitTestResultPrinter18OnTestProgramStartERKNS_8UnitTestE
FN:2703,_ZN7testing8internal27PrettyUnitTestResultPrinter22OnEnvironmentsSetUpEndERKNS_8UnitTestE
FN:2710,_ZN7testing8internal27PrettyUnitTestResultPrinter25OnEnvironmentsTearDownEndERKNS_8UnitTestE
FN:2712,_ZN7testing8internal27PrettyUnitTestResultPrinter16OnTestProgramEndERKNS_8UnitTestE
FN:2719,_ZN7testing8internal27PrettyUnitTestResultPrinter20OnTestIterationStartERKNS_8UnitTestEi
FN:2754,_ZN7testing8internal27PrettyUnitTestResultPrinter24OnEnvironmentsSetUpStartERKNS_8UnitTestE
FN:2761,_ZN7testing8internal27PrettyUnitTestResultPrinter15OnTestCaseStartERKNS_8TestCaseE
FN:2774,_ZN7testing8internal27PrettyUnitTestResultPrinter11OnTestStartERKNS_8TestInfoE
FN:2782,_ZN7testing8internal27PrettyUnitTestResultPrinter16OnTestPartResultERKNS_14TestPartResultE
FN:2793,_ZN7testing8internal27PrettyUnitTestResultPrinter9OnTestEndERKNS_8TestInfoE
FN:2812,_ZN7testing8internal27PrettyUnitTestResultPrinter13OnTestCaseEndERKNS_8TestCaseE
FN:2824,_ZN7testing8internal27PrettyUnitTestResultPrinter27OnEnvironmentsTearDownStartERKNS_8UnitTestE
FN:2832,_ZN7testing8internal27PrettyUnitTestResultPrinter16PrintFailedTestsERKNS_8UnitTestE
FN:2856,_ZN7testing8internal27PrettyUnitTestResultPrinter18OnTestIterationEndERKNS_8UnitTestEi
FN:2901,_ZN7testing8internal17TestEventRepeaterC2Ev
FN:2908,_ZNK7testing8internal17TestEventRepeater18forwarding_enabledEv
FN:2909,_ZN7testing8internal17TestEventRepeater22set_forwarding_enabledEb
FN:2935,_ZN7testing8internal17TestEventRepeaterD2Ev
FN:2935,_ZN7testing8internal17TestEventRepeaterD0Ev
FN:2939,_ZN7testing8internal17TestEventRepeater6AppendEPNS_17TestEventListenerE
FN:2944,_ZN7testing8internal17TestEventRepeater7ReleaseEPNS_17TestEventListenerE
FN:2976,_ZN7testing8internal17TestEventRepeater18OnTestProgramStartERKNS_8UnitTestE
FN:2977,_ZN7testing8internal17TestEventRepeater24OnEnvironmentsSetUpStartERKNS_8UnitTestE
FN:2978,_ZN7testing8internal17TestEventRepeater15OnTestCaseStartERKNS_8TestCaseE
FN:2979,_ZN7testing8internal17TestEventRepeater11OnTestStartERKNS_8TestInfoE
FN:2980,_ZN7testing8internal17TestEventRepeater16OnTestPartResultERKNS_14TestPartResultE
FN:2981,_ZN7testing8internal17TestEventRepeater27OnEnvironmentsTearDownStartERKNS_8UnitTestE
FN:2982,_ZN7testing8internal17TestEventRepeater22OnEnvironmentsSetUpEndERKNS_8UnitTestE
FN:2983,_ZN7testing8internal17TestEventRepeater25OnEnvironmentsTearDownEndERKNS_8UnitTestE
FN:2984,_ZN7testing8internal17TestEventRepeater9OnTestEndERKNS_8TestInfoE
FN:2985,_ZN7testing8internal17TestEventRepeater13OnTestCaseEndERKNS_8TestCaseE
FN:2986,_ZN7testing8internal17TestEventRepeater16OnTestProgramEndERKNS_8UnitTestE
FN:2991,_ZN7testing8internal17TestEventRepeater20OnTestIterationStartERKNS_8UnitTestEi
FN:3000,_ZN7testing8internal17TestEventRepeater18OnTestIterationEndERKNS_8UnitTestEi
FN:3012,_ZN7testing8internal24XmlUnitTestResultPrinterD0Ev
FN:3012,_ZN7testing8internal24XmlUnitTestResultPrinterD2Ev
FN:3021,_ZN7testing8internal24XmlUnitTestResultPrinter24IsNormalizableWhitespaceEc
FN:3026,_ZN7testing8internal24XmlUnitTestResultPrinter19IsValidXmlCharacterEc
FN:3040,_ZN7testing8internal24XmlUnitTestResultPrinter18EscapeXmlAttributeERKSs
FN:3085,_ZN7testing8internal24XmlUnitTestResultPrinterC2EPKc
FN:3095,_ZN7testing8internal24XmlUnitTestResultPrinter18OnTestIterationEndERKNS_8UnitTestEi
FN:3139,_ZN7testing8internal24XmlUnitTestResultPrinter9EscapeXmlERKSsb
FN:3185,_ZN7testing8internal24XmlUnitTestResultPrinter26RemoveInvalidXmlCharactersERKSs
FN:3213,_ZN7testing8internal27FormatTimeInMillisAsSecondsEx
FN:3221,_ZN7testing8internal32FormatEpochTimeInMillisAsIso8601Ex
FN:3246,_ZN7testing8internal24XmlUnitTestResultPrinter21OutputXmlCDataSectionEPSoPKc
FN:3265,_ZN7testing8internal24XmlUnitTestResultPrinter18OutputXmlAttributeEPSoRKSsS4_S4_
FN:3283,_ZN7testing8internal24XmlUnitTestResultPrinter17OutputXmlTestInfoEPSoPKcRKNS_8TestInfoE
FN:3333,_ZN7testing8internal24XmlUnitTestResultPrinter16PrintXmlTestCaseEPSoRKNS_8TestCaseE
FN:3359,_ZN7testing8internal24XmlUnitTestResultPrinter16PrintXmlUnitTestEPSoRKNS_8UnitTestE
FN:3399,_ZN7testing8internal24XmlUnitTestResultPrinter29TestPropertiesAsXmlAttributesERKNS_10TestResultE
FN:3419,_ZN7testing8internal17StreamingListener9UrlEncodeEPKc
FN:3438,_ZN7testing8internal17StreamingListener12SocketWriter14MakeConnectionEv
FN:3486,_ZN7testing8internal11ScopedTraceC2EPKciRKNS_7MessageE
FN:3497,_ZN7testing8internal11ScopedTraceD2Ev
FN:3512,_ZN7testing8internal18OsStackTraceGetter17CurrentStackTraceEii
FN:3518,_ZN7testing8internal18OsStackTraceGetter16UponLeavingGTestEv
FN:3530,_ZN7testing8internal23ScopedPrematureExitFileC2EPKc
FN:3543,_ZN7testing8internal23ScopedPrematureExitFileD2Ev
FN:3559,_ZN7testing18TestEventListenersC2Ev
FN:3565,_ZN7testing18TestEventListenersD2Ev
FN:3571,_ZN7testing18TestEventListeners6AppendEPNS_17TestEventListenerE
FN:3578,_ZN7testing18TestEventListeners7ReleaseEPNS_17TestEventListenerE
FN:3588,_ZN7testing18TestEventListeners8repeaterEv
FN:3595,_ZN7testing18TestEventListeners23SetDefaultResultPrinterEPNS_17TestEventListenerE
FN:3611,_ZN7testing18TestEventListeners22SetDefaultXmlGeneratorEPNS_17TestEventListenerE
FN:3624,_ZNK7testing18TestEventListeners22EventForwardingEnabledEv
FN:3628,_ZN7testing18TestEventListeners23SuppressEventForwardingEv
FN:3641,_ZN7testing8UnitTest11GetInstanceEv
FN:3663,_ZNK7testing8UnitTest26successful_test_case_countEv
FN:3668,_ZNK7testing8UnitTest22failed_test_case_countEv
FN:3673,_ZNK7testing8UnitTest21total_test_case_countEv
FN:3679,_ZNK7testing8UnitTest22test_case_to_run_countEv
FN:3684,_ZNK7testing8UnitTest21successful_test_countEv
FN:3689,_ZNK7testing8UnitTest17failed_test_countEv
FN:3692,_ZNK7testing8UnitTest30reportable_disabled_test_countEv
FN:3697,_ZNK7testing8UnitTest19disabled_test_countEv
FN:3702,_ZNK7testing8UnitTest21reportable_test_countEv
FN:3707,_ZNK7testing8UnitTest16total_test_countEv
FN:3710,_ZNK7testing8UnitTest17test_to_run_countEv
FN:3714,_ZNK7testing8UnitTest15start_timestampEv
FN:3719,_ZNK7testing8UnitTest12elapsed_timeEv
FN:3724,_ZNK7testing8UnitTest6PassedEv
FN:3728,_ZNK7testing8UnitTest6FailedEv
FN:3732,_ZNK7testing8UnitTest11GetTestCaseEi
FN:3738,_ZNK7testing8UnitTest18ad_hoc_test_resultEv
FN:3744,_ZN7testing8UnitTest18GetMutableTestCaseEi
FN:3750,_ZN7testing8UnitTest9listenersEv
FN:3764,_ZN7testing8UnitTest14AddEnvironmentEPNS_11EnvironmentE
FN:3777,_ZN7testing8UnitTest17AddTestPartResultENS_14TestPartResult4TypeEPKciRKSsS6_
FN:3844,_ZN7testing8UnitTest14RecordPropertyERKSsS2_
FN:3854,_ZN7testing8UnitTest3RunEv
FN:3934,_ZNK7testing8UnitTest20original_working_dirEv
FN:3940,_ZNK7testing8UnitTest17current_test_caseEv
FN:3948,_ZNK7testing8UnitTest17current_test_infoEv
FN:3955,_ZNK7testing8UnitTest11random_seedEv
FN:3961,_ZN7testing8UnitTest27parameterized_test_registryEv
FN:3968,_ZN7testing8UnitTestC2Ev
FN:3973,_ZN7testing8UnitTestD2Ev
FN:3973,_ZN7testing8UnitTestD0Ev
FN:3979,_ZN7testing8UnitTest14PushGTestTraceERKNS_8internal9TraceInfoE
FN:3986,_ZN7testing8UnitTest13PopGTestTraceEv
FN:3994,_ZN7testing8internal12UnitTestImplC2EPNS_8UnitTestE
FN:4033,_ZN7testing8internal12UnitTestImplD2Ev
FN:4033,_ZN7testing8internal12UnitTestImplD0Ev
FN:4048,_ZN7testing8internal12UnitTestImpl14RecordPropertyERKNS_12TestPropertyE
FN:4068,_ZN7testing8internal12UnitTestImpl32SuppressTestEventsIfInSubprocessEv
FN:4076,_ZN7testing8internal12UnitTestImpl18ConfigureXmlOutputEv
FN:4091,_ZN7testing8internal12UnitTestImpl24ConfigureStreamingOutputEv
FN:4112,_ZN7testing8internal12UnitTestImpl19PostFlagParsingInitEv
FN:4146,_ZN7testing8internal14TestCaseNameIsD2Ev
FN:4146,_ZN7testing8internal14TestCaseNameIsC2ERKS1_
FN:4149,_ZN7testing8internal14TestCaseNameIsC2ERKSs
FN:4153,_ZNK7testing8internal14TestCaseNameIsclEPKNS_8TestCaseE
FN:4173,_ZN7testing8internal12UnitTestImpl11GetTestCaseEPKcS3_PFvvES5_
FN:4210,_ZN7testing8internalL16SetUpEnvironmentEPNS_11EnvironmentE
FN:4211,_ZN7testing8internalL19TearDownEnvironmentEPNS_11EnvironmentE
FN:4222,_ZN7testing8internal12UnitTestImpl11RunAllTestsEv
FN:4359,_ZN7testing8internal30WriteToShardStatusFileIfNeededEv
FN:4381,_ZN7testing8internal11ShouldShardEPKcS2_b
FN:4426,_ZN7testing8internal17Int32FromEnvOrDieEPKci
FN:4444,_ZN7testing8internal20ShouldRunTestOnShardEiii
FN:4455,_ZN7testing8internal12UnitTestImpl11FilterTestsENS1_18ReactionToShardingE
FN:4512,_ZN7testing8internalL14PrintOnOneLineEPKci
FN:4531,_ZN7testing8internal12UnitTestImpl23ListTestsMatchingFilterEv
FN:4573,_ZN7testing8internal12UnitTestImpl25set_os_stack_trace_getterEPNS0_27OsStackTraceGetterInterfaceE
FN:4584,_ZN7testing8internal12UnitTestImpl21os_stack_trace_getterEv
FN:4594,_ZN7testing8internal12UnitTestImpl19current_test_resultEv
FN:4601,_ZN7testing8internal12UnitTestImpl12ShuffleTestsEv
FN:4616,_ZN7testing8internal12UnitTestImpl14UnshuffleTestsEv
FN:4635,_ZN7testing8internal31GetCurrentOsStackTraceExceptTopEPNS_8UnitTestEi
FN:4648,_ZN7testing8internal6IsTrueEb
FN:4650,_ZN7testing8internal10AlwaysTrueEv
FN:4663,_ZN7testing8internal10SkipPrefixEPKcPS2_
FN:4677,_ZN7testing8internal14ParseFlagValueEPKcS2_b
FN:4715,_ZN7testing8internal13ParseBoolFlagEPKcS2_Pb
FN:4732,_ZN7testing8internal14ParseInt32FlagEPKcS2_Pi
FN:4749,_ZN7testing8internal15ParseStringFlagEPKcS2_PSs
FN:4767,_ZN7testing8internalL23HasGoogleTestFlagPrefixEPKc
FN:4787,_ZN7testing8internalL17PrintColorEncodedEPKc
FN:4889,_ZN7testing8internal28ParseGoogleTestFlagsOnlyImplIcEEvPiPPT_
FN:4889,_ZN7testing8internal28ParseGoogleTestFlagsOnlyImplIwEEvPiPPT_
FN:4959,_ZN7testing8internal24ParseGoogleTestFlagsOnlyEPiPPc
FN:4962,_ZN7testing8internal24ParseGoogleTestFlagsOnlyEPiPPw
FN:4971,_ZN7testing8internal18InitGoogleTestImplIcEEvPiPPT_
FN:4971,_ZN7testing8internal18InitGoogleTestImplIwEEvPiPPT_
FN:5005,_ZN7testing14InitGoogleTestEPiPPc
FN:5011,_ZN7testing14InitGoogleTestEPiPPw
FNDA:1,_ZN7testingL16GetDefaultFilterEv
FNDA:0,_ZN7testing8internal6Random8GenerateEj
FNDA:1,_ZN7testing8internalL18GTestIsInitializedEv
FNDA:5,_ZN7testing8internalL19SumOverTestCaseListERKSt6vectorIPNS_8TestCaseESaIS3_EEMS2_KFivE
FNDA:0,_ZN7testing8internalL14TestCasePassedEPKNS_8TestCaseE
FNDA:2,_ZN7testing8internalL14TestCaseFailedEPKNS_8TestCaseE
FNDA:2,_ZN7testing8internalL17ShouldRunTestCaseEPKNS_8TestCaseE
FNDA:0,_ZN7testing8internal12AssertHelperC2ENS_14TestPartResult4TypeEPKciS5_
FNDA:0,_ZN7testing8internal12AssertHelperD2Ev
FNDA:0,_ZNK7testing8internal12AssertHelperaSERKNS_7MessageE
FNDA:0,_ZN7testing8internal24GetCurrentExecutableNameEv
FNDA:1,_ZN7testing8internal15UnitTestOptions15GetOutputFormatEv
FNDA:0,_ZN7testing8internal15UnitTestOptions27GetAbsolutePathToOutputFileEv
FNDA:179,_ZN7testing8internal15UnitTestOptions20PatternMatchesStringEPKcS3_
FNDA:5,_ZN7testing8internal15UnitTestOptions13MatchesFilterERKSsPKc
FNDA:1,_ZN7testing8internal15UnitTestOptions17FilterMatchesTestERKSsS3_
FNDA:0,_ZN7testing32ScopedFakeTestPartResultReporterC2EPNS_19TestPartResultArrayE
FNDA:0,_ZN7testing32ScopedFakeTestPartResultReporterC2ENS0_13InterceptModeEPNS_19TestPartResultArrayE
FNDA:0,_ZN7testing32ScopedFakeTestPartResultReporter4InitEv
FNDA:0,_ZN7testing32ScopedFakeTestPartResultReporterD0Ev
FNDA:0,_ZN7testing32ScopedFakeTestPartResultReporterD2Ev
FNDA:0,_ZN7testing32ScopedFakeTestPartResultReporter20ReportTestPartResultERKNS_14TestPartResultE
FNDA:1,_ZN7testing8internal13GetTestTypeIdEv
FNDA:0,_ZN7testing8internal13HasOneFailureEPKcS2_S2_RKNS_19TestPartResultArrayENS_14TestPartResult4TypeERKSs
FNDA:0,_ZN7testing8internal20SingleFailureCheckerC2EPKNS_19TestPartResultArrayENS_14TestPartResult4TypeERKSs
FNDA:0,_ZN7testing8internal20SingleFailureCheckerD2Ev
FNDA:1,_ZN7testing8internal35DefaultGlobalTestPartResultReporterC2EPNS0_12UnitTestImplE
FNDA:0,_ZN7testing8internal35DefaultGlobalTestPartResultReporter20ReportTestPartResultERKNS_14TestPartResultE
FNDA:1,_ZN7testing8internal38DefaultPerThreadTestPartResultReporterC2EPNS0_12UnitTestImplE
FNDA:0,_ZN7testing8internal38DefaultPerThreadTestPartResultReporter20ReportTestPartResultERKNS_14TestPartResultE
FNDA:0,_ZN7testing8internal12UnitTestImpl31GetGlobalTestPartResultReporterEv
FNDA:0,_ZN7testing8internal12UnitTestImpl31SetGlobalTestPartResultReporterEPNS_31TestPartResultReporterInterfaceE
FNDA:0,_ZN7testing8internal12UnitTestImpl41GetTestPartResultReporterForCurrentThreadEv
FNDA:0,_ZN7testing8internal12UnitTestImpl41SetTestPartResultReporterForCurrentThreadEPNS_31TestPartResultReporterInterfaceE
FNDA:0,_ZNK7testing8internal12UnitTestImpl26successful_test_case_countEv
FNDA:2,_ZNK7testing8internal12UnitTestImpl22failed_test_case_countEv
FNDA:2,_ZNK7testing8internal12UnitTestImpl21total_test_case_countEv
FNDA:2,_ZNK7testing8internal12UnitTestImpl22test_case_to_run_countEv
FNDA:1,_ZNK7testing8internal12UnitTestImpl21successful_test_countEv
FNDA:1,_ZNK7testing8internal12UnitTestImpl17failed_test_countEv
FNDA:1,_ZNK7testing8internal12UnitTestImpl30reportable_disabled_test_countEv
FNDA:0,_ZNK7testing8internal12UnitTestImpl19disabled_test_countEv
FNDA:0,_ZNK7testing8internal12UnitTestImpl21reportable_test_countEv
FNDA:0,_ZNK7testing8internal12UnitTestImpl16total_test_countEv
FNDA:2,_ZNK7testing8internal12UnitTestImpl17test_to_run_countEv
FNDA:0,_ZN7testing8internal12UnitTestImpl28CurrentOsStackTraceExceptTopEi
FNDA:7,_ZN7testing8internal15GetTimeInMillisEv
FNDA:2,_ZN7testing8internal6String13CStringEqualsEPKcS3_
FNDA:0,_ZN7testing8internalL24StreamWideCharsToMessageEPKwmPNS_7MessageE
FNDA:42,_ZN7testing7MessageC2Ev
FNDA:0,_ZN7testing7MessagelsEPKw
FNDA:0,_ZN7testing7MessagelsEPw
FNDA:0,_ZN7testing7MessagelsERKSbIwSt11char_traitsIwESaIwEE
FNDA:42,_ZNK7testing7Message9GetStringEv
FNDA:0,_ZN7testing15AssertionResultC2ERKS0_
FNDA:0,_ZNK7testing15AssertionResultntEv
FNDA:1,_ZN7testing16AssertionSuccessEv
FNDA:0,_ZN7testing16AssertionFailureEv
FNDA:0,_ZN7testing16AssertionFailureERKNS_7MessageE
FNDA:0,_ZN7testing8internal9EqFailureEPKcS2_RKSsS4_b
FNDA:0,_ZN7testing8internal30GetBoolAssertionFailureMessageERKNS_15AssertionResultEPKcS5_S5_
FNDA:0,_ZN7testing8internal20DoubleNearPredFormatEPKcS2_S2_ddd
FNDA:0,_ZN7testing8internal15FloatingPointLEIdEENS_15AssertionResultEPKcS4_T_S5_
FNDA:0,_ZN7testing8internal15FloatingPointLEIfEENS_15AssertionResultEPKcS4_T_S5_
FNDA:0,_ZN7testing7FloatLEEPKcS1_ff
FNDA:0,_ZN7testing8DoubleLEEPKcS1_dd
FNDA:0,_ZN7testing8internal11CmpHelperEQEPKcS2_xx
FNDA:0,_ZN7testing8internal11CmpHelperNEEPKcS2_xx
FNDA:0,_ZN7testing8internal11CmpHelperLEEPKcS2_xx
FNDA:0,_ZN7testing8internal11CmpHelperLTEPKcS2_xx
FNDA:0,_ZN7testing8internal11CmpHelperGEEPKcS2_xx
FNDA:0,_ZN7testing8internal11CmpHelperGTEPKcS2_xx
FNDA:0,_ZN7testing8internal14CmpHelperSTREQEPKcS2_S2_S2_
FNDA:0,_ZN7testing8internal18CmpHelperSTRCASEEQEPKcS2_S2_S2_
FNDA:0,_ZN7testing8internal14CmpHelperSTRNEEPKcS2_S2_S2_
FNDA:0,_ZN7testing8internal18CmpHelperSTRCASENEEPKcS2_S2_S2_
FNDA:0,_ZN7testing12_GLOBAL__N_115IsSubstringPredEPKcS2_
FNDA:0,_ZN7testing12_GLOBAL__N_115IsSubstringPredEPKwS2_
FNDA:0,_ZN7testing12_GLOBAL__N_115IsSubstringPredISbIwSt11char_traitsIwESaIwEEEEbRKT_S8_
FNDA:0,_ZN7testing12_GLOBAL__N_115IsSubstringPredISsEEbRKT_S4_
FNDA:0,_ZN7testing12_GLOBAL__N_115IsSubstringImplISbIwSt11char_traitsIwESaIwEEEENS_15AssertionResultEbPKcS8_RKT_SB_
FNDA:0,_ZN7testing12_GLOBAL__N_115IsSubstringImplISsEENS_15AssertionResultEbPKcS4_RKT_S7_
FNDA:0,_ZN7testing12_GLOBAL__N_115IsSubstringImplIPKwEENS_15AssertionResultEbPKcS6_RKT_S9_
FNDA:0,_ZN7testing12_GLOBAL__N_115IsSubstringImplIPKcEENS_15AssertionResultEbS3_S3_RKT_S7_
FNDA:0,_ZN7testing11IsSubstringEPKcS1_S1_S1_
FNDA:0,_ZN7testing11IsSubstringEPKcS1_PKwS3_
FNDA:0,_ZN7testing14IsNotSubstringEPKcS1_S1_S1_
FNDA:0,_ZN7testing14IsNotSubstringEPKcS1_PKwS3_
FNDA:0,_ZN7testing11IsSubstringEPKcS1_RKSsS3_
FNDA:0,_ZN7testing14IsNotSubstringEPKcS1_RKSsS3_
FNDA:0,_ZN7testing11IsSubstringEPKcS1_RKSbIwSt11char_traitsIwESaIwEES7_
FNDA:0,_ZN7testing14IsNotSubstringEPKcS1_RKSbIwSt11char_traitsIwESaIwEES7_
FNDA:0,_ZN7testing8internal11ChopLowBitsEPji
FNDA:0,_ZN7testing8internal15CodePointToUtf8Ej
FNDA:0,_ZN7testing8internal20IsUtf16SurrogatePairEww
FNDA:0,_ZN7testing8internal37CreateCodePointFromUtf16SurrogatePairEww
FNDA:0,_ZN7testing8internal16WideStringToUtf8EPKwi
FNDA:0,_ZN7testing8internal6String15ShowWideCStringEPKw
FNDA:0,_ZN7testing8internal6String17WideCStringEqualsEPKwS3_
FNDA:0,_ZN7testing8internal14CmpHelperSTREQEPKcS2_PKwS4_
FNDA:0,_ZN7testing8internal14CmpHelperSTRNEEPKcS2_PKwS4_
FNDA:1,_ZN7testing8internal6String28CaseInsensitiveCStringEqualsEPKcS3_
FNDA:0,_ZN7testing8internal6String32CaseInsensitiveWideCStringEqualsEPKwS3_
FNDA:0,_ZN7testing8internal6String23EndsWithCaseInsensitiveERKSsS3_
FNDA:0,_ZN7testing8internal6String15FormatIntWidth2Ei
FNDA:0,_ZN7testing8internal6String12FormatHexIntEi
FNDA:0,_ZN7testing8internal6String10FormatByteEh
FNDA:42,_ZN7testing8internal20StringStreamToStringEPSt18basic_stringstreamIcSt11char_traitsIcESaIcEE
FNDA:0,_ZN7testing8internal17AppendUserMessageERKSsRKNS_7MessageE
FNDA:3,_ZN7testing10TestResultC2Ev
FNDA:3,_ZN7testing10TestResultD2Ev
FNDA:0,_ZNK7testing10TestResult17GetTestPartResultEi
FNDA:0,_ZNK7testing10TestResult15GetTestPropertyEi
FNDA:0,_ZN7testing10TestResult20ClearTestPartResultsEv
FNDA:0,_ZN7testing10TestResult17AddTestPartResultERKNS_14TestPartResultE
FNDA:0,_ZN7testing10TestResult14RecordPropertyERKSsRKNS_12TestPropertyE
FNDA:0,_ZN7testing13ArrayAsVectorILi6EEESt6vectorISsSaISsEERAT__KPKc
FNDA:0,_ZN7testing13ArrayAsVectorILi8EEESt6vectorISsSaISsEERAT__KPKc
FNDA:0,_ZN7testingL31GetReservedAttributesForElementERKSs
FNDA:0,_ZN7testingL14FormatWordListERKSt6vectorISsSaISsEE
FNDA:0,_ZN7testing24ValidateTestPropertyNameERKSsRKSt6vectorISsSaISsEE
FNDA:0,_ZN7testing10TestResult20ValidateTestPropertyERKSsRKNS_12TestPropertyE
FNDA:2,_ZN7testing10TestResult5ClearEv
FNDA:8,_ZNK7testing10TestResult6FailedEv
FNDA:0,_ZN7testingL21TestPartFatallyFailedERKNS_14TestPartResultE
FNDA:3,_ZNK7testing10TestResult15HasFatalFailureEv
FNDA:0,_ZN7testingL24TestPartNonfatallyFailedERKNS_14TestPartResultE
FNDA:0,_ZNK7testing10TestResult18HasNonfatalFailureEv
FNDA:8,_ZNK7testing10TestResult16total_part_countEv
FNDA:0,_ZNK7testing10TestResult19test_property_countEv
FNDA:1,_ZN7testing4TestC2Ev
FNDA:0,_ZN7testing4TestD0Ev
FNDA:1,_ZN7testing4TestD2Ev
FNDA:0,_ZN7testing4Test5SetUpEv
FNDA:0,_ZN7testing4Test8TearDownEv
FNDA:0,_ZN7testing4Test14RecordPropertyERKSsS2_
FNDA:0,_ZN7testing4Test14RecordPropertyERKSsi
FNDA:0,_ZN7testing8internal30ReportFailureInUnknownLocationENS_14TestPartResult4TypeERKSs
FNDA:1,_ZN7testing4Test19HasSameFixtureClassEv
FNDA:0,_ZN7testing8internalL25FormatCxxExceptionMessageEPKcS2_
FNDA:0,_ZN7testing8internal26GoogleTestFailureExceptionC2ERKNS_14TestPartResultE
FNDA:1,_ZN7testing8internal38HandleSehExceptionsInMethodIfSupportedINS0_12UnitTestImplEbEET0_PT_MS4_FS3_vEPKc
FNDA:2,_ZN7testing8internal38HandleSehExceptionsInMethodIfSupportedINS_8TestCaseEvEET0_PT_MS4_FS3_vEPKc
FNDA:1,_ZN7testing8internal38HandleSehExceptionsInMethodIfSupportedINS0_15TestFactoryBaseEPNS_4TestEEET0_PT_MS6_FS5_vEPKc
FNDA:4,_ZN7testing8internal38HandleSehExceptionsInMethodIfSupportedINS_4TestEvEET0_PT_MS4_FS3_vEPKc
FNDA:1,_ZN7testing8internal35HandleExceptionsInMethodIfSupportedINS0_12UnitTestImplEbEET0_PT_MS4_FS3_vEPKc
FNDA:2,_ZN7testing8internal35HandleExceptionsInMethodIfSupportedINS_8TestCaseEvEET0_PT_MS4_FS3_vEPKc
FNDA:1,_ZN7testing8internal35HandleExceptionsInMethodIfSupportedINS0_15TestFactoryBaseEPNS_4TestEEET0_PT_MS6_FS5_vEPKc
FNDA:4,_ZN7testing8internal35HandleExceptionsInMethodIfSupportedINS_4TestEvEET0_PT_MS4_FS3_vEPKc
FNDA:1,_ZN7testing4Test3RunEv
FNDA:3,_ZN7testing4Test15HasFatalFailureEv
FNDA:0,_ZN7testing4Test18HasNonfatalFailureEv
FNDA:1,_ZN7testing8TestInfoC2ERKSsS2_PKcS4_PKvPNS_8internal15TestFactoryBaseE
FNDA:1,_ZN7testing8TestInfoD2Ev
FNDA:1,_ZN7testing8internal23MakeAndRegisterTestInfoEPKcS2_S2_S2_PKvPFvvES6_PNS0_15TestFactoryBaseE
FNDA:0,_ZN7testing8internal25ReportInvalidTestCaseTypeEPKcS2_i
FNDA:1,_ZN7testing8internal12UnitTestImpl26RegisterParameterizedTestsEv
FNDA:1,_ZN7testing8TestInfo3RunEv
FNDA:1,_ZNK7testing8TestCase21successful_test_countEv
FNDA:3,_ZNK7testing8TestCase17failed_test_countEv
FNDA:1,_ZNK7testing8TestCase30reportable_disabled_test_countEv
FNDA:0,_ZNK7testing8TestCase19disabled_test_countEv
FNDA:0,_ZNK7testing8TestCase21reportable_test_countEv
FNDA:4,_ZNK7testing8TestCase17test_to_run_countEv
FNDA:2,_ZNK7testing8TestCase16total_test_countEv
FNDA:1,_ZN7testing8TestCaseC2EPKcS2_PFvvES4_
FNDA:1,_ZN7testing8TestCaseD0Ev
FNDA:1,_ZN7testing8TestCaseD2Ev
FNDA:0,_ZNK7testing8TestCase11GetTestInfoEi
FNDA:1,_ZN7testing8TestCase18GetMutableTestInfoEi
FNDA:1,_ZN7testing8TestCase11AddTestInfoEPNS_8TestInfoE
FNDA:1,_ZN7testing8TestCase3RunEv
FNDA:1,_ZN7testing8TestCase11ClearResultEv
FNDA:0,_ZN7testing8TestCase12ShuffleTestsEPNS_8internal6RandomE
FNDA:1,_ZN7testing8TestCase14UnshuffleTestsEv
FNDA:7,_ZN7testingL19FormatCountableNounEiPKcS1_
FNDA:3,_ZN7testingL15FormatTestCountEi
FNDA:2,_ZN7testingL19FormatTestCaseCountEi
FNDA:0,_ZN7testingL26TestPartResultTypeToStringENS_14TestPartResult4TypeE
FNDA:0,_ZN7testing8internalL27PrintTestPartResultToStringERKNS_14TestPartResultE
FNDA:0,_ZN7testing8internalL19PrintTestPartResultERKNS_14TestPartResultE
FNDA:9,_ZN7testing8internal16GetAnsiColorCodeENS0_10GTestColorE
FNDA:1,_ZN7testing8internal14ShouldUseColorEb
FNDA:9,_ZN7testing8internal13ColoredPrintfENS0_10GTestColorEPKcz
FNDA:0,_ZN7testing8internal29PrintFullTestCommentIfPresentERKNS_8TestInfoE
FNDA:1,_ZN7testing8internal27PrettyUnitTestResultPrinterD0Ev
FNDA:1,_ZN7testing8internal27PrettyUnitTestResultPrinterD2Ev
FNDA:1,_ZN7testing8internal27PrettyUnitTestResultPrinterC2Ev
FNDA:2,_ZN7testing8internal27PrettyUnitTestResultPrinter13PrintTestNameEPKcS3_
FNDA:1,_ZN7testing8internal27PrettyUnitTestResultPrinter18OnTestProgramStartERKNS_8UnitTestE
FNDA:1,_ZN7testing8internal27PrettyUnitTestResultPrinter22OnEnvironmentsSetUpEndERKNS_8UnitTestE
FNDA:1,_ZN7testing8internal27PrettyUnitTestResultPrinter25OnEnvironmentsTearDownEndERKNS_8UnitTestE
FNDA:1,_ZN7testing8internal27PrettyUnitTestResultPrinter16OnTestProgramEndERKNS_8UnitTestE
FNDA:1,_ZN7testing8internal27PrettyUnitTestResultPrinter20OnTestIterationStartERKNS_8UnitTestEi
FNDA:1,_ZN7testing8internal27PrettyUnitTestResultPrinter24OnEnvironmentsSetUpStartERKNS_8UnitTestE
FNDA:1,_ZN7testing8internal27PrettyUnitTestResultPrinter15OnTestCaseStartERKNS_8TestCaseE
FNDA:1,_ZN7testing8internal27PrettyUnitTestResultPrinter11OnTestStartERKNS_8TestInfoE
FNDA:0,_ZN7testing8internal27PrettyUnitTestResultPrinter16OnTestPartResultERKNS_14TestPartResultE
FNDA:1,_ZN7testing8internal27PrettyUnitTestResultPrinter9OnTestEndERKNS_8TestInfoE
FNDA:1,_ZN7testing8internal27PrettyUnitTestResultPrinter13OnTestCaseEndERKNS_8TestCaseE
FNDA:1,_ZN7testing8internal27PrettyUnitTestResultPrinter27OnEnvironmentsTearDownStartERKNS_8UnitTestE
FNDA:0,_ZN7testing8internal27PrettyUnitTestResultPrinter16PrintFailedTestsERKNS_8UnitTestE
FNDA:1,_ZN7testing8internal27PrettyUnitTestResultPrinter18OnTestIterationEndERKNS_8UnitTestEi
FNDA:1,_ZN7testing8internal17TestEventRepeaterC2Ev
FNDA:0,_ZNK7testing8internal17TestEventRepeater18forwarding_enabledEv
FNDA:0,_ZN7testing8internal17TestEventRepeater22set_forwarding_enabledEb
FNDA:1,_ZN7testing8internal17TestEventRepeaterD0Ev
FNDA:1,_ZN7testing8internal17TestEventRepeaterD2Ev
FNDA:1,_ZN7testing8internal17TestEventRepeater6AppendEPNS_17TestEventListenerE
FNDA:1,_ZN7testing8internal17TestEventRepeater7ReleaseEPNS_17TestEventListenerE
FNDA:1,_ZN7testing8internal17TestEventRepeater18OnTestProgramStartERKNS_8UnitTestE
FNDA:1,_ZN7testing8internal17TestEventRepeater24OnEnvironmentsSetUpStartERKNS_8UnitTestE
FNDA:1,_ZN7testing8internal17TestEventRepeater15OnTestCaseStartERKNS_8TestCaseE
FNDA:1,_ZN7testing8internal17TestEventRepeater11OnTestStartERKNS_8TestInfoE
FNDA:0,_ZN7testing8internal17TestEventRepeater16OnTestPartResultERKNS_14TestPartResultE
FNDA:1,_ZN7testing8internal17TestEventRepeater27OnEnvironmentsTearDownStartERKNS_8UnitTestE
FNDA:1,_ZN7testing8internal17TestEventRepeater22OnEnvironmentsSetUpEndERKNS_8UnitTestE
FNDA:1,_ZN7testing8internal17TestEventRepeater25OnEnvironmentsTearDownEndERKNS_8UnitTestE
FNDA:1,_ZN7testing8internal17TestEventRepeater9OnTestEndERKNS_8TestInfoE
FNDA:1,_ZN7testing8internal17TestEventRepeater13OnTestCaseEndERKNS_8TestCaseE
FNDA:1,_ZN7testing8internal17TestEventRepeater16OnTestProgramEndERKNS_8UnitTestE
FNDA:1,_ZN7testing8internal17TestEventRepeater20OnTestIterationStartERKNS_8UnitTestEi
FNDA:1,_ZN7testing8internal17TestEventRepeater18OnTestIterationEndERKNS_8UnitTestEi
FNDA:0,_ZN7testing8internal24XmlUnitTestResultPrinterD0Ev
FNDA:0,_ZN7testing8internal24XmlUnitTestResultPrinterD2Ev
FNDA:0,_ZN7testing8internal24XmlUnitTestResultPrinter24IsNormalizableWhitespaceEc
FNDA:0,_ZN7testing8internal24XmlUnitTestResultPrinter19IsValidXmlCharacterEc
FNDA:0,_ZN7testing8internal24XmlUnitTestResultPrinter18EscapeXmlAttributeERKSs
FNDA:0,_ZN7testing8internal24XmlUnitTestResultPrinterC2EPKc
FNDA:0,_ZN7testing8internal24XmlUnitTestResultPrinter18OnTestIterationEndERKNS_8UnitTestEi
FNDA:0,_ZN7testing8internal24XmlUnitTestResultPrinter9EscapeXmlERKSsb
FNDA:0,_ZN7testing8internal24XmlUnitTestResultPrinter26RemoveInvalidXmlCharactersERKSs
FNDA:0,_ZN7testing8internal27FormatTimeInMillisAsSecondsEx
FNDA:0,_ZN7testing8internal32FormatEpochTimeInMillisAsIso8601Ex
FNDA:0,_ZN7testing8internal24XmlUnitTestResultPrinter21OutputXmlCDataSectionEPSoPKc
FNDA:0,_ZN7testing8internal24XmlUnitTestResultPrinter18OutputXmlAttributeEPSoRKSsS4_S4_
FNDA:0,_ZN7testing8internal24XmlUnitTestResultPrinter17OutputXmlTestInfoEPSoPKcRKNS_8TestInfoE
FNDA:0,_ZN7testing8internal24XmlUnitTestResultPrinter16PrintXmlTestCaseEPSoRKNS_8TestCaseE
FNDA:0,_ZN7testing8internal24XmlUnitTestResultPrinter16PrintXmlUnitTestEPSoRKNS_8UnitTestE
FNDA:0,_ZN7testing8internal24XmlUnitTestResultPrinter29TestPropertiesAsXmlAttributesERKNS_10TestResultE
FNDA:0,_ZN7testing8internal17StreamingListener9UrlEncodeEPKc
FNDA:0,_ZN7testing8internal17StreamingListener12SocketWriter14MakeConnectionEv
FNDA:0,_ZN7testing8internal11ScopedTraceC2EPKciRKNS_7MessageE
FNDA:0,_ZN7testing8internal11ScopedTraceD2Ev
FNDA:0,_ZN7testing8internal18OsStackTraceGetter17CurrentStackTraceEii
FNDA:7,_ZN7testing8internal18OsStackTraceGetter16UponLeavingGTestEv
FNDA:1,_ZN7testing8internal23ScopedPrematureExitFileC2EPKc
FNDA:1,_ZN7testing8internal23ScopedPrematureExitFileD2Ev
FNDA:1,_ZN7testing18TestEventListenersC2Ev
FNDA:1,_ZN7testing18TestEventListenersD2Ev
FNDA:1,_ZN7testing18TestEventListeners6AppendEPNS_17TestEventListenerE
FNDA:1,_ZN7testing18TestEventListeners7ReleaseEPNS_17TestEventListenerE
FNDA:3,_ZN7testing18TestEventListeners8repeaterEv
FNDA:1,_ZN7testing18TestEventListeners23SetDefaultResultPrinterEPNS_17TestEventListenerE
FNDA:0,_ZN7testing18TestEventListeners22SetDefaultXmlGeneratorEPNS_17TestEventListenerE
FNDA:0,_ZNK7testing18TestEventListeners22EventForwardingEnabledEv
FNDA:0,_ZN7testing18TestEventListeners23SuppressEventForwardingEv
FNDA:20,_ZN7testing8UnitTest11GetInstanceEv
FNDA:0,_ZNK7testing8UnitTest26successful_test_case_countEv
FNDA:0,_ZNK7testing8UnitTest22failed_test_case_countEv
FNDA:0,_ZNK7testing8UnitTest21total_test_case_countEv
FNDA:2,_ZNK7testing8UnitTest22test_case_to_run_countEv
FNDA:1,_ZNK7testing8UnitTest21successful_test_countEv
FNDA:1,_ZNK7testing8UnitTest17failed_test_countEv
FNDA:1,_ZNK7testing8UnitTest30reportable_disabled_test_countEv
FNDA:0,_ZNK7testing8UnitTest19disabled_test_countEv
FNDA:0,_ZNK7testing8UnitTest21reportable_test_countEv
FNDA:0,_ZNK7testing8UnitTest16total_test_countEv
FNDA:2,_ZNK7testing8UnitTest17test_to_run_countEv
FNDA:0,_ZNK7testing8UnitTest15start_timestampEv
FNDA:1,_ZNK7testing8UnitTest12elapsed_timeEv
FNDA:1,_ZNK7testing8UnitTest6PassedEv
FNDA:0,_ZNK7testing8UnitTest6FailedEv
FNDA:0,_ZNK7testing8UnitTest11GetTestCaseEi
FNDA:0,_ZNK7testing8UnitTest18ad_hoc_test_resultEv
FNDA:0,_ZN7testing8UnitTest18GetMutableTestCaseEi
FNDA:2,_ZN7testing8UnitTest9listenersEv
FNDA:0,_ZN7testing8UnitTest14AddEnvironmentEPNS_11EnvironmentE
FNDA:0,_ZN7testing8UnitTest17AddTestPartResultENS_14TestPartResult4TypeEPKciRKSsS6_
FNDA:0,_ZN7testing8UnitTest14RecordPropertyERKSsS2_
FNDA:1,_ZN7testing8UnitTest3RunEv
FNDA:0,_ZNK7testing8UnitTest20original_working_dirEv
FNDA:0,_ZNK7testing8UnitTest17current_test_caseEv
FNDA:0,_ZNK7testing8UnitTest17current_test_infoEv
FNDA:0,_ZNK7testing8UnitTest11random_seedEv
FNDA:0,_ZN7testing8UnitTest27parameterized_test_registryEv
FNDA:1,_ZN7testing8UnitTestC2Ev
FNDA:0,_ZN7testing8UnitTestD0Ev
FNDA:1,_ZN7testing8UnitTestD2Ev
FNDA:0,_ZN7testing8UnitTest14PushGTestTraceERKNS_8internal9TraceInfoE
FNDA:0,_ZN7testing8UnitTest13PopGTestTraceEv
FNDA:1,_ZN7testing8internal12UnitTestImplC2EPNS_8UnitTestE
FNDA:1,_ZN7testing8internal12UnitTestImplD0Ev
FNDA:1,_ZN7testing8internal12UnitTestImplD2Ev
FNDA:0,_ZN7testing8internal12UnitTestImpl14RecordPropertyERKNS_12TestPropertyE
FNDA:1,_ZN7testing8internal12UnitTestImpl32SuppressTestEventsIfInSubprocessEv
FNDA:1,_ZN7testing8internal12UnitTestImpl18ConfigureXmlOutputEv
FNDA:1,_ZN7testing8internal12UnitTestImpl24ConfigureStreamingOutputEv
FNDA:2,_ZN7testing8internal12UnitTestImpl19PostFlagParsingInitEv
FNDA:1,_ZN7testing8internal14TestCaseNameIsC2ERKS1_
FNDA:2,_ZN7testing8internal14TestCaseNameIsD2Ev
FNDA:1,_ZN7testing8internal14TestCaseNameIsC2ERKSs
FNDA:0,_ZNK7testing8internal14TestCaseNameIsclEPKNS_8TestCaseE
FNDA:1,_ZN7testing8internal12UnitTestImpl11GetTestCaseEPKcS3_PFvvES5_
FNDA:0,_ZN7testing8internalL16SetUpEnvironmentEPNS_11EnvironmentE
FNDA:0,_ZN7testing8internalL19TearDownEnvironmentEPNS_11EnvironmentE
FNDA:1,_ZN7testing8internal12UnitTestImpl11RunAllTestsEv
FNDA:1,_ZN7testing8internal30WriteToShardStatusFileIfNeededEv
FNDA:2,_ZN7testing8internal11ShouldShardEPKcS2_b
FNDA:4,_ZN7testing8internal17Int32FromEnvOrDieEPKci
FNDA:0,_ZN7testing8internal20ShouldRunTestOnShardEiii
FNDA:1,_ZN7testing8internal12UnitTestImpl11FilterTestsENS1_18ReactionToShardingE
FNDA:0,_ZN7testing8internalL14PrintOnOneLineEPKci
FNDA:0,_ZN7testing8internal12UnitTestImpl23ListTestsMatchingFilterEv
FNDA:0,_ZN7testing8internal12UnitTestImpl25set_os_stack_trace_getterEPNS0_27OsStackTraceGetterInterfaceE
FNDA:7,_ZN7testing8internal12UnitTestImpl21os_stack_trace_getterEv
FNDA:3,_ZN7testing8internal12UnitTestImpl19current_test_resultEv
FNDA:0,_ZN7testing8internal12UnitTestImpl12ShuffleTestsEv
FNDA:1,_ZN7testing8internal12UnitTestImpl14UnshuffleTestsEv
FNDA:0,_ZN7testing8internal31GetCurrentOsStackTraceExceptTopEPNS_8UnitTestEi
FNDA:44,_ZN7testing8internal6IsTrueEb
FNDA:0,_ZN7testing8internal10AlwaysTrueEv
FNDA:0,_ZN7testing8internal10SkipPrefixEPKcPS2_
FNDA:0,_ZN7testing8internal14ParseFlagValueEPKcS2_b
FNDA:0,_ZN7testing8internal13ParseBoolFlagEPKcS2_Pb
FNDA:0,_ZN7testing8internal14ParseInt32FlagEPKcS2_Pi
FNDA:0,_ZN7testing8internal15ParseStringFlagEPKcS2_PSs
FNDA:0,_ZN7testing8internalL23HasGoogleTestFlagPrefixEPKc
FNDA:0,_ZN7testing8internalL17PrintColorEncodedEPKc
FNDA:0,_ZN7testing8internal28ParseGoogleTestFlagsOnlyImplIwEEvPiPPT_
FNDA:1,_ZN7testing8internal28ParseGoogleTestFlagsOnlyImplIcEEvPiPPT_
FNDA:1,_ZN7testing8internal24ParseGoogleTestFlagsOnlyEPiPPc
FNDA:0,_ZN7testing8internal24ParseGoogleTestFlagsOnlyEPiPPw
FNDA:0,_ZN7testing8internal18InitGoogleTestImplIwEEvPiPPT_
FNDA:1,_ZN7testing8internal18InitGoogleTestImplIcEEvPiPPT_
FNDA:1,_ZN7testing14InitGoogleTestEPiPPc
FNDA:0,_ZN7testing14InitGoogleTestEPiPPw
FNF:337
FNH:147
DA:185,1
DA:186,1
DA:189,1
DA:194,1
DA:199,1
DA:205,1
DA:213,1
DA:225,1
DA:237,1
DA:243,1
DA:249,1
DA:260,1
DA:266,1
DA:272,1
DA:279,1
DA:291,0
DA:293,0
DA:295,0
DA:296,0
DA:297,0
DA:298,0
DA:299,0
DA:304,0
DA:316,1
DA:321,5
DA:323,5
DA:324,10
DA:325,5
DA:327,5
DA:331,0
DA:332,0
DA:336,2
DA:337,2
DA:342,2
DA:343,2
DA:347,0
DA:351,0
DA:352,0
DA:354,0
DA:355,0
DA:356,0
DA:359,0
DA:366,0
DA:367,0
DA:373,1
DA:377,0
DA:378,0
DA:383,0
DA:386,0
DA:392,1
DA:393,1
DA:394,1
DA:396,1
DA:399,1
DA:404,0
DA:405,0
DA:406,0
DA:407,0
DA:409,0
DA:410,0
DA:414,0
DA:416,0
DA:417,0
DA:422,0
DA:424,0
DA:426,0
DA:427,0
DA:431,0
DA:432,0
DA:440,179
DA:442,179
DA:445,2
DA:447,0
DA:449,172
DA:450,172
DA:452,81
DA:453,81
DA:457,5
DA:459,5
DA:461,8
DA:462,1
DA:466,7
DA:469,7
DA:470,4
DA:474,3
DA:475,3
DA:480,1
DA:482,1
DA:486,1
DA:487,1
DA:488,2
DA:489,2
DA:490,1
DA:491,1
DA:492,1
DA:494,0
DA:495,0
DA:496,0
DA:498,0
DA:504,2
DA:505,3
DA:541,0
DA:544,0
DA:545,0
DA:546,0
DA:551,0
DA:554,0
DA:555,0
DA:556,0
DA:558,0
DA:559,0
DA:560,0
DA:561,0
DA:562,0
DA:564,0
DA:565,0
DA:567,0
DA:571,0
DA:572,0
DA:573,0
DA:574,0
DA:576,0
DA:578,0
DA:582,0
DA:584,0
DA:585,0
DA:598,1
DA:599,1
DA:604,1
DA:609,0
DA:617,0
DA:618,0
DA:619,0
DA:620,0
DA:621,0
DA:622,0
DA:623,0
DA:625,0
DA:628,0
DA:629,0
DA:630,0
DA:631,0
DA:632,0
DA:635,0
DA:636,0
DA:637,0
DA:638,0
DA:639,0
DA:642,0
DA:648,0
DA:654,0
DA:660,0
DA:661,0
DA:662,0
DA:664,1
DA:665,1
DA:667,0
DA:669,0
DA:670,0
DA:671,0
DA:673,1
DA:674,1
DA:676,0
DA:678,0
DA:679,0
DA:683,0
DA:684,0
DA:685,0
DA:689,0
DA:691,0
DA:692,0
DA:693,0
DA:697,0
DA:698,0
DA:702,0
DA:704,0
DA:705,0
DA:708,0
DA:709,0
DA:713,2
DA:714,2
DA:718,2
DA:719,2
DA:724,2
DA:725,2
DA:729,1
DA:730,1
DA:734,1
DA:735,1
DA:739,1
DA:741,1
DA:745,0
DA:746,0
DA:750,0
DA:751,0
DA:755,0
DA:756,0
DA:760,2
DA:761,2
DA:774,0
DA:776,0
DA:780,7
DA:824,7
DA:825,7
DA:876,2
DA:877,2
DA:879,2
DA:881,2
DA:888,0
DA:890,0
DA:891,0
DA:892,0
DA:893,0
DA:894,0
DA:896,0
DA:897,0
DA:900,0
DA:911,42
DA:914,42
DA:915,42
DA:919,0
DA:920,0
DA:922,0
DA:923,0
DA:929,0
DA:930,0
DA:931,0
DA:946,42
DA:947,42
DA:952,0
DA:954,0
DA:955,0
DA:956,0
DA:957,0
DA:960,0
DA:961,0
DA:962,0
DA:963,0
DA:964,0
DA:968,1
DA:969,1
DA:973,0
DA:974,0
DA:979,0
DA:980,0
DA:1000,0
DA:1005,0
DA:1006,0
DA:1007,0
DA:1008,0
DA:1011,0
DA:1012,0
DA:1013,0
DA:1015,0
DA:1016,0
DA:1019,0
DA:1023,0
DA:1028,0
DA:1029,0
DA:1030,0
DA:1031,0
DA:1032,0
DA:1033,0
DA:1034,0
DA:1035,0
DA:1039,0
DA:1045,0
DA:1046,0
DA:1051,0
DA:1052,0
DA:1053,0
DA:1054,0
DA:1055,0
DA:1061,0
DA:1066,0
DA:1067,0
DA:1071,0
DA:1072,0
DA:1073,0
DA:1080,0
DA:1081,0
DA:1084,0
DA:1085,0
DA:1089,0
DA:1090,0
DA:1091,0
DA:1098,0
DA:1100,0
DA:1105,0
DA:1107,0
DA:1114,0
DA:1118,0
DA:1119,0
DA:1126,0
DA:1147,0
DA:1150,0
DA:1153,0
DA:1156,0
DA:1159,0
DA:1164,0
DA:1168,0
DA:1169,0
DA:1176,0
DA:1180,0
DA:1184,0
DA:1185,0
DA:1192,0
DA:1196,0
DA:1200,0
DA:1201,0
DA:1203,0
DA:1204,0
DA:1205,0
DA:1210,0
DA:1214,0
DA:1215,0
DA:1218,0
DA:1219,0
DA:1220,0
DA:1234,0
DA:1235,0
DA:1236,0
DA:1238,0
DA:1241,0
DA:1242,0
DA:1243,0
DA:1245,0
DA:1250,0
DA:1252,0
DA:1260,0
DA:1264,0
DA:1265,0
DA:1267,0
DA:1268,0
DA:1270,0
DA:1271,0
DA:1272,0
DA:1273,0
DA:1274,0
DA:1283,0
DA:1286,0
DA:1289,0
DA:1292,0
DA:1295,0
DA:1298,0
DA:1301,0
DA:1304,0
DA:1307,0
DA:1310,0
DA:1313,0
DA:1316,0
DA:1320,0
DA:1323,0
DA:1326,0
DA:1329,0
DA:1424,0
DA:1425,0
DA:1426,0
DA:1427,0
DA:1436,0
DA:1437,0
DA:1438,0
DA:1442,0
DA:1443,0
DA:1444,0
DA:1445,0
DA:1446,0
DA:1447,0
DA:1448,0
DA:1449,0
DA:1450,0
DA:1451,0
DA:1452,0
DA:1453,0
DA:1455,0
DA:1456,0
DA:1457,0
DA:1458,0
DA:1459,0
DA:1461,0
DA:1471,0
DA:1473,0
DA:1477,0
DA:1479,0
DA:1484,0
DA:1500,0
DA:1501,0
DA:1502,0
DA:1504,0
DA:1505,0
DA:1508,0
DA:1509,0
DA:1510,0
DA:1511,0
DA:1512,0
DA:1513,0
DA:1515,0
DA:1518,0
DA:1520,0
DA:1525,0
DA:1526,0
DA:1528,0
DA:1537,0
DA:1538,0
DA:1540,0
DA:1542,0
DA:1546,0
DA:1550,0
DA:1551,0
DA:1558,0
DA:1562,0
DA:1566,0
DA:1567,0
DA:1570,0
DA:1571,0
DA:1572,0
DA:1573,0
DA:1582,1
DA:1583,1
DA:1584,0
DA:1585,1
DA:1586,0
DA:1587,1
DA:1602,0
DA:1604,0
DA:1606,0
DA:1611,0
DA:1626,0
DA:1628,0
DA:1629,0
DA:1630,0
DA:1631,0
DA:1632,0
DA:1636,0
DA:1637,0
DA:1638,0
DA:1639,0
DA:1643,0
DA:1644,0
DA:1645,0
DA:1646,0
DA:1650,0
DA:1651,0
DA:1652,0
DA:1653,0
DA:1654,0
DA:1659,42
DA:1660,42
DA:1661,42
DA:1662,42
DA:1664,42
DA:1665,42
DA:1666,636
DA:1667,594
DA:1668,0
DA:1670,594
DA:1674,42
DA:1678,0
DA:1681,0
DA:1682,0
DA:1683,0
DA:1686,0
DA:1694,3
DA:1696,3
DA:1697,3
DA:1700,3
DA:1701,3
DA:1706,0
DA:1707,0
DA:1708,0
DA:1709,0
DA:1715,0
DA:1716,0
DA:1717,0
DA:1718,0
DA:1722,0
DA:1723,0
DA:1724,0
DA:1727,0
DA:1728,0
DA:1729,0
DA:1734,0
DA:1736,0
DA:1737,0
DA:1739,0
DA:1742,0
DA:1743,0
DA:1744,0
DA:1745,0
DA:1747,0
DA:1785,0
DA:1786,0
DA:1789,0
DA:1791,0
DA:1792,0
DA:1793,0
DA:1794,0
DA:1795,0
DA:1796,0
DA:1798,0
DA:1801,0
DA:1804,0
DA:1805,0
DA:1806,0
DA:1807,0
DA:1808,0
DA:1810,0
DA:1811,0
DA:1813,0
DA:1815,0
DA:1818,0
DA:1820,0
DA:1822,0
DA:1823,0
DA:1824,0
DA:1825,0
DA:1827,0
DA:1832,0
DA:1835,0
DA:1839,2
DA:1840,2
DA:1841,2
DA:1842,2
DA:1843,2
DA:1844,2
DA:1847,8
DA:1848,8
DA:1849,0
DA:1850,0
DA:1852,8
DA:1856,0
DA:1857,0
DA:1861,3
DA:1862,3
DA:1866,0
DA:1867,0
DA:1871,0
DA:1872,0
DA:1877,8
DA:1878,8
DA:1882,0
DA:1883,0
DA:1891,1
DA:1892,1
DA:1893,1
DA:1896,1
DA:1897,1
DA:1898,1
DA:1903,0
DA:1904,0
DA:1909,0
DA:1910,0
DA:1913,0
DA:1914,0
DA:1915,0
DA:1918,0
DA:1919,0
DA:1920,0
DA:1921,0
DA:1922,0
DA:1926,0
DA:1935,0
DA:1936,0
DA:1945,1
DA:1946,1
DA:1947,1
DA:1950,1
DA:1951,1
DA:1952,1
DA:1955,1
DA:1956,1
DA:1957,1
DA:1959,1
DA:1961,0
DA:1963,0
DA:1965,0
DA:1973,0
DA:1975,0
DA:1977,0
DA:1978,0
DA:1979,0
DA:1980,0
DA:1981,0
DA:1982,0
DA:1983,0
DA:1984,0
DA:1985,0
DA:1989,0
DA:1990,0
DA:1991,0
DA:1992,0
DA:1993,0
DA:1994,0
DA:1995,0
DA:1996,0
DA:1997,0
DA:1998,0
DA:2000,0
DA:2003,1
DA:2028,0
DA:2030,0
DA:2031,0
DA:2032,0
DA:2034,0
DA:2036,0
DA:2038,0
DA:2044,0
DA:2046,0
DA:2059,8
DA:2078,8
DA:2086,8
DA:2111,8
DA:2114,8
DA:2115,0
DA:2119,0
DA:2120,0
DA:2121,0
DA:2123,0
DA:2124,0
DA:2125,0
DA:2127,0
DA:2129,0
DA:2134,0
DA:2141,1
DA:2142,2
DA:2144,1
DA:2145,1
DA:2146,1
DA:2148,1
DA:2149,1
DA:2151,1
DA:2157,1
DA:2159,1
DA:2163,3
DA:2164,3
DA:2168,0
DA:2170,0
DA:2177,1
DA:2185,0
DA:2186,0
DA:2192,1
DA:2195,1
DA:2216,1
DA:2227,1
DA:2228,1
DA:2229,1
DA:2233,0
DA:2235,0
DA:2237,0
DA:2238,0
DA:2239,0
DA:2240,0
DA:2241,0
DA:2242,0
DA:2243,0
DA:2244,0
DA:2247,0
DA:2248,0
DA:2287,1
DA:2289,1
DA:2290,1
DA:2291,1
DA:2294,1
DA:2300,1
DA:2301,2
DA:2304,1
DA:2305,1
DA:2307,1
DA:2310,1
DA:2312,1
DA:2314,1
DA:2319,1
DA:2323,1
DA:2326,1
DA:2330,1
DA:2332,1
DA:2334,1
DA:2337,1
DA:2341,1
DA:2347,1
DA:2348,1
DA:2352,3
DA:2353,3
DA:2357,1
DA:2358,1
DA:2362,0
DA:2363,0
DA:2367,0
DA:2368,0
DA:2372,4
DA:2373,4
DA:2377,2
DA:2378,2
DA:2390,1
DA:2394,0
DA:2398,1
DA:2399,1
DA:2402,3
DA:2404,1
DA:2405,2
DA:2409,0
DA:2410,0
DA:2411,0
DA:2416,1
DA:2417,1
DA:2418,1
DA:2423,1
DA:2424,1
DA:2425,1
DA:2426,1
DA:2429,1
DA:2430,2
DA:2432,1
DA:2433,1
DA:2435,1
DA:2437,1
DA:2438,1
DA:2440,1
DA:2442,1
DA:2443,2
DA:2444,1
DA:2446,1
DA:2448,1
DA:2450,1
DA:2452,1
DA:2453,1
DA:2457,1
DA:2458,1
DA:2459,1
DA:2460,1
DA:2463,0
DA:2464,0
DA:2465,0
DA:2468,1
DA:2469,2
DA:2470,1
DA:2472,1
DA:2479,7
DA:2482,14
DA:2483,21
DA:2487,3
DA:2488,3
DA:2492,2
DA:2493,2
DA:2500,0
DA:2501,0
DA:2503,0
DA:2510,0
DA:2513,0
DA:2520,0
DA:2524,0
DA:2525,0
DA:2526,0
DA:2530,0
DA:2532,0
DA:2533,0
DA:2534,0
DA:2546,0
DA:2573,9
DA:2574,9
DA:2575,0
DA:2576,9
DA:2577,0
DA:2578,0
DA:2585,1
DA:2586,1
DA:2588,1
DA:2595,1
DA:2597,1
DA:2598,0
DA:2599,0
DA:2600,0
DA:2601,0
DA:2602,1
DA:2603,1
DA:2604,1
DA:2608,0
DA:2609,0
DA:2610,0
DA:2611,0
DA:2621,9
DA:2623,9
DA:2629,9
DA:2630,9
DA:2634,9
DA:2635,0
DA:2636,0
DA:2637,9
DA:2660,9
DA:2661,9
DA:2662,9
DA:2664,9
DA:2672,0
DA:2673,0
DA:2674,0
DA:2676,0
DA:2677,0
DA:2678,0
DA:2679,0
DA:2680,0
DA:2681,0
DA:2683,0
DA:2684,0
DA:2687,0
DA:2692,2
DA:2694,1
DA:2695,2
DA:2696,2
DA:2697,2
DA:2700,1
DA:2703,1
DA:2710,1
DA:2712,1
DA:2719,1
DA:2721,1
DA:2722,0
DA:2724,1
DA:2728,1
DA:2730,0
DA:2733,1
DA:2734,0
DA:2738,0
DA:2741,1
DA:2744,0
DA:2747,1
DA:2750,1
DA:2751,1
DA:2752,1
DA:2754,1
DA:2756,1
DA:2757,1
DA:2758,1
DA:2759,1
DA:2761,1
DA:2763,1
DA:2764,1
DA:2765,1
DA:2766,1
DA:2767,1
DA:2769,0
DA:2771,1
DA:2772,1
DA:2774,1
DA:2775,1
DA:2776,1
DA:2777,1
DA:2778,1
DA:2779,1
DA:2782,0
DA:2785,0
DA:2786,0
DA:2789,0
DA:2790,0
DA:2793,1
DA:2794,1
DA:2795,1
DA:2797,0
DA:2799,1
DA:2800,1
DA:2801,0
DA:2803,1
DA:2805,1
DA:2807,0
DA:2809,1
DA:2810,1
DA:2812,1
DA:2813,2
DA:2816,1
DA:2817,1
DA:2820,1
DA:2821,1
DA:2824,1
DA:2826,1
DA:2827,1
DA:2828,1
DA:2829,1
DA:2832,0
DA:2833,0
DA:2834,0
DA:2835,0
DA:2838,0
DA:2839,0
DA:2840,0
DA:2841,0
DA:2843,0
DA:2844,0
DA:2845,0
DA:2846,0
DA:2848,0
DA:2849,0
DA:2850,0
DA:2851,0
DA:2856,1
DA:2858,1
DA:2861,1
DA:2862,1
DA:2864,1
DA:2866,1
DA:2867,1
DA:2868,1
DA:2870,1
DA:2871,1
DA:2872,0
DA:2873,0
DA:2874,0
DA:2875,0
DA:2877,0
DA:2880,1
DA:2881,1
DA:2882,0
DA:2883,0
DA:2888,0
DA:2891,1
DA:2892,1
DA:2901,1
DA:2908,0
DA:2909,0
DA:2935,3
DA:2936,1
DA:2937,2
DA:2939,1
DA:2940,1
DA:2941,1
DA:2944,1
DA:2945,1
DA:2946,0
DA:2947,0
DA:2948,0
DA:2952,1
DA:2976,1
DA:2977,1
DA:2978,1
DA:2979,1
DA:2980,0
DA:2981,1
DA:2982,1
DA:2983,1
DA:2984,1
DA:2985,1
DA:2986,1
DA:2991,1
DA:2993,1
DA:2994,2
DA:2995,1
DA:2998,1
DA:3000,1
DA:3002,1
DA:3003,2
DA:3004,1
DA:3007,1
DA:3012,0
DA:3021,0
DA:3022,0
DA:3026,0
DA:3027,0
DA:3040,0
DA:3041,0
DA:3085,0
DA:3086,0
DA:3087,0
DA:3088,0
DA:3089,0
DA:3090,0
DA:3092,0
DA:3095,0
DA:3097,0
DA:3098,0
DA:3099,0
DA:3101,0
DA:3102,0
DA:3104,0
DA:3117,0
DA:3118,0
DA:3119,0
DA:3121,0
DA:3122,0
DA:3123,0
DA:3124,0
DA:3125,0
DA:3139,0
DA:3141,0
DA:3143,0
DA:3144,0
DA:3145,0
DA:3147,0
DA:3148,0
DA:3150,0
DA:3151,0
DA:3153,0
DA:3154,0
DA:3156,0
DA:3157,0
DA:3159,0
DA:3160,0
DA:3162,0
DA:3163,0
DA:3165,0
DA:3166,0
DA:3168,0
DA:3169,0
DA:3170,0
DA:3171,0
DA:3173,0
DA:3175,0
DA:3179,0
DA:3185,0
DA:3187,0
DA:3188,0
DA:3189,0
DA:3190,0
DA:3191,0
DA:3193,0
DA:3213,0
DA:3214,0
DA:3215,0
DA:3216,0
DA:3221,0
DA:3223,0
DA:3231,0
DA:3233,0
DA:3234,0
DA:3237,0
DA:3238,0
DA:3239,0
DA:3240,0
DA:3241,0
DA:3242,0
DA:3246,0
DA:3248,0
DA:3249,0
DA:3251,0
DA:3252,0
DA:3254,0
DA:3255,0
DA:3256,0
DA:3258,0
DA:3259,0
DA:3261,0
DA:3262,0
DA:3263,0
DA:3265,0
DA:3271,0
DA:3273,0
DA:3275,0
DA:3276,0
DA:3278,0
DA:3279,0
DA:3283,0
DA:3286,0
DA:3287,0
DA:3289,0
DA:3290,0
DA:3292,0
DA:3294,0
DA:3296,0
DA:3297,0
DA:3301,0
DA:3303,0
DA:3304,0
DA:3305,0
DA:3307,0
DA:3308,0
DA:3309,0
DA:3310,0
DA:3311,0
DA:3312,0
DA:3315,0
DA:3316,0
DA:3317,0
DA:3318,0
DA:3319,0
DA:3320,0
DA:3321,0
DA:3322,0
DA:3326,0
DA:3327,0
DA:3329,0
DA:3330,0
DA:3333,0
DA:3335,0
DA:3336,0
DA:3337,0
DA:3339,0
DA:3341,0
DA:3344,0
DA:3345,0
DA:3347,0
DA:3348,0
DA:3349,0
DA:3351,0
DA:3352,0
DA:3353,0
DA:3355,0
DA:3356,0
DA:3359,0
DA:3361,0
DA:3363,0
DA:3364,0
DA:3367,0
DA:3369,0
DA:3372,0
DA:3373,0
DA:3376,0
DA:3378,0
DA:3380,0
DA:3382,0
DA:3385,0
DA:3387,0
DA:3388,0
DA:3390,0
DA:3391,0
DA:3392,0
DA:3394,0
DA:3395,0
DA:3399,0
DA:3401,0
DA:3402,0
DA:3403,0
DA:3404,0
DA:3405,0
DA:3407,0
DA:3419,0
DA:3420,0
DA:3421,0
DA:3422,0
DA:3423,0
DA:3428,0
DA:3429,0
DA:3431,0
DA:3432,0
DA:3435,0
DA:3438,0
DA:3439,0
DA:3440,0
DA:3443,0
DA:3444,0
DA:3445,0
DA:3446,0
DA:3451,0
DA:3452,0
DA:3453,0
DA:3454,0
DA:3458,0
DA:3461,0
DA:3462,0
DA:3464,0
DA:3465,0
DA:3466,0
DA:3471,0
DA:3473,0
DA:3474,0
DA:3475,0
DA:3477,0
DA:3486,0
DA:3488,0
DA:3489,0
DA:3490,0
DA:3491,0
DA:3493,0
DA:3494,0
DA:3497,0
DA:3499,0
DA:3500,0
DA:3512,0
DA:3515,0
DA:3518,7
DA:3520,7
DA:3530,1
DA:3531,1
DA:3533,1
DA:3537,0
DA:3538,0
DA:3539,0
DA:3541,1
DA:3543,1
DA:3544,1
DA:3545,0
DA:3547,1
DA:3559,1
DA:3560,0
DA:3562,1
DA:3563,1
DA:3565,1
DA:3571,1
DA:3572,1
DA:3573,1
DA:3578,1
DA:3579,1
DA:3580,1
DA:3581,0
DA:3582,0
DA:3583,1
DA:3588,3
DA:3595,1
DA:3596,1
DA:3599,1
DA:3600,1
DA:3601,1
DA:3602,1
DA:3604,1
DA:3611,0
DA:3612,0
DA:3615,0
DA:3616,0
DA:3617,0
DA:3618,0
DA:3620,0
DA:3624,0
DA:3625,0
DA:3628,0
DA:3629,0
DA:3630,0
DA:3641,20
DA:3657,20
DA:3658,20
DA:3663,0
DA:3664,0
DA:3668,0
DA:3669,0
DA:3673,0
DA:3674,0
DA:3679,2
DA:3680,2
DA:3684,1
DA:3685,1
DA:3689,1
DA:3692,1
DA:3693,1
DA:3697,0
DA:3698,0
DA:3702,0
DA:3703,0
DA:3707,0
DA:3710,2
DA:3714,0
DA:3715,0
DA:3719,1
DA:3720,1
DA:3724,1
DA:3728,0
DA:3732,0
DA:3733,0
DA:3738,0
DA:3739,0
DA:3744,0
DA:3745,0
DA:3750,2
DA:3751,2
DA:3764,0
DA:3765,0
DA:3766,0
DA:3769,0
DA:3770,0
DA:3777,0
DA:3783,0
DA:3784,0
DA:3786,0
DA:3787,0
DA:3788,0
DA:3790,0
DA:3792,0
DA:3793,0
DA:3794,0
DA:3798,0
DA:3799,0
DA:3804,0
DA:3805,0
DA:3806,0
DA:3808,0
DA:3814,0
DA:3825,0
DA:3827,0
DA:3829,0
DA:3836,0
DA:3837,0
DA:3844,0
DA:3846,0
DA:3847,0
DA:3854,1
DA:3856,1
DA:3881,1
DA:3885,1
DA:3929,1
DA:3934,0
DA:3935,0
DA:3940,0
DA:3942,0
DA:3943,0
DA:3948,0
DA:3950,0
DA:3951,0
DA:3955,0
DA:3961,0
DA:3963,0
DA:3968,1
DA:3969,1
DA:3970,1
DA:3973,2
DA:3974,1
DA:3975,1
DA:3979,0
DA:3981,0
DA:3982,0
DA:3983,0
DA:3986,0
DA:3988,0
DA:3989,0
DA:3990,0
DA:3994,1
DA:4026,1
DA:4029,2
DA:4030,1
DA:4031,1
DA:4033,3
DA:4035,1
DA:4038,1
DA:4040,1
DA:4041,2
DA:4048,0
DA:4049,0
DA:4052,0
DA:4053,0
DA:4054,0
DA:4055,0
DA:4056,0
DA:4057,0
DA:4059,0
DA:4060,0
DA:4062,0
DA:4063,0
DA:4068,1
DA:4069,1
DA:4070,0
DA:4071,1
DA:4076,1
DA:4077,1
DA:4078,1
DA:4080,0
DA:4081,1
DA:4083,0
DA:4084,0
DA:4085,1
DA:4086,1
DA:4091,1
DA:4092,1
DA:4093,1
DA:4094,0
DA:4095,0
DA:4097,0
DA:4100,0
DA:4101,0
DA:4104,1
DA:4112,2
DA:4114,2
DA:4115,1
DA:4118,1
DA:4119,1
DA:4125,1
DA:4129,1
DA:4133,1
DA:4136,2
DA:4146,3
DA:4149,1
DA:4150,1
DA:4153,0
DA:4154,0
DA:4173,1
DA:4180,1
DA:4182,1
DA:4183,0
DA:4187,1
DA:4190,2
DA:4191,2
DA:4196,0
DA:4197,0
DA:4198,0
DA:4201,1
DA:4204,1
DA:4205,1
DA:4210,0
DA:4211,0
DA:4222,1
DA:4224,1
DA:4227,0
DA:4228,0
DA:4232,1
DA:4233,0
DA:4237,1
DA:4242,1
DA:4246,1
DA:4249,1
DA:4253,1
DA:4259,1
DA:4262,1
DA:4264,0
DA:4265,0
DA:4269,1
DA:4272,1
DA:4274,1
DA:4276,1
DA:4277,1
DA:4281,1
DA:4283,1
DA:4284,2
DA:4287,1
DA:4289,1
DA:4292,1
DA:4293,0
DA:4297,0
DA:4301,1
DA:4304,1
DA:4306,1
DA:4307,1
DA:4308,1
DA:4312,1
DA:4313,2
DA:4315,1
DA:4320,1
DA:4322,1
DA:4323,1
DA:4326,1
DA:4329,1
DA:4332,1
DA:4333,0
DA:4342,1
DA:4344,1
DA:4346,0
DA:4350,1
DA:4352,1
DA:4359,1
DA:4360,1
DA:4361,1
DA:4362,0
DA:4363,0
DA:4367,0
DA:4368,0
DA:4369,0
DA:4371,0
DA:4373,1
DA:4381,2
DA:4384,2
DA:4385,0
DA:4388,2
DA:4389,2
DA:4391,2
DA:4392,2
DA:4393,0
DA:4395,0
DA:4396,0
DA:4397,0
DA:4398,0
DA:4399,0
DA:4400,0
DA:4401,0
DA:4403,0
DA:4404,0
DA:4405,0
DA:4406,0
DA:4407,0
DA:4408,0
DA:4409,0
DA:4411,0
DA:4412,0
DA:4413,0
DA:4414,0
DA:4415,0
DA:4416,0
DA:4417,0
DA:4420,0
DA:4426,4
DA:4427,4
DA:4428,4
DA:4429,4
DA:4433,0
DA:4434,0
DA:4435,0
DA:4437,0
DA:4444,0
DA:4445,0
DA:4455,1
DA:4457,1
DA:4459,1
DA:4465,1
DA:4466,1
DA:4467,2
DA:4468,1
DA:4469,1
DA:4470,1
DA:4472,2
DA:4473,1
DA:4474,1
DA:4479,2
DA:4481,2
DA:4482,1
DA:4486,1
DA:4487,1
DA:4490,1
DA:4491,1
DA:4493,2
DA:4494,0
DA:4496,1
DA:4498,1
DA:4499,1
DA:4501,1
DA:4502,1
DA:4503,1
DA:4504,1
DA:4505,1
DA:4512,0
DA:4513,0
DA:4514,0
DA:4515,0
DA:4516,0
DA:4517,0
DA:4519,0
DA:4520,0
DA:4521,0
DA:4523,0
DA:4524,0
DA:4528,0
DA:4531,0
DA:4533,0
DA:4535,0
DA:4536,0
DA:4537,0
DA:4539,0
DA:4541,0
DA:4542,0
DA:4543,0
DA:4544,0
DA:4545,0
DA:4546,0
DA:4547,0
DA:4550,0
DA:4552,0
DA:4554,0
DA:4555,0
DA:4556,0
DA:4559,0
DA:4561,0
DA:4565,0
DA:4566,0
DA:4573,0
DA:4575,0
DA:4576,0
DA:4577,0
DA:4579,0
DA:4584,7
DA:4585,7
DA:4586,1
DA:4589,7
DA:4594,3
DA:4596,3
DA:4601,0
DA:4603,0
DA:4607,0
DA:4610,0
DA:4611,0
DA:4613,0
DA:4616,1
DA:4617,2
DA:4619,1
DA:4621,1
DA:4623,1
DA:4635,0
DA:4639,0
DA:4648,44
DA:4650,0
DA:4654,0
DA:4655,0
DA:4657,0
DA:4663,0
DA:4664,0
DA:4665,0
DA:4666,0
DA:4667,0
DA:4669,0
DA:4677,0
DA:4681,0
DA:4684,0
DA:4685,0
DA:4686,0
DA:4689,0
DA:4692,0
DA:4693,0
DA:4699,0
DA:4702,0
DA:4715,0
DA:4717,0
DA:4720,0
DA:4723,0
DA:4724,0
DA:4732,0
DA:4734,0
DA:4737,0
DA:4740,0
DA:4741,0
DA:4749,0
DA:4751,0
DA:4754,0
DA:4757,0
DA:4758,0
DA:4767,0
DA:4768,0
DA:4769,0
DA:4770,0
DA:4771,0
DA:4772,0
DA:4773,0
DA:4787,0
DA:4788,0
DA:4795,0
DA:4796,0
DA:4797,0
DA:4798,0
DA:4801,0
DA:4803,0
DA:4804,0
DA:4805,0
DA:4806,0
DA:4807,0
DA:4808,0
DA:4809,0
DA:4810,0
DA:4811,0
DA:4812,0
DA:4813,0
DA:4814,0
DA:4816,0
DA:4818,0
DA:4889,1
DA:4890,1
DA:4891,0
DA:4892,0
DA:4899,0
DA:4900,0
DA:4902,0
DA:4904,0
DA:4905,0
DA:4907,0
DA:4909,0
DA:4910,0
DA:4912,0
DA:4913,0
DA:4914,0
DA:4915,0
DA:4916,0
DA:4917,0
DA:4918,0
DA:4920,0
DA:4922,0
DA:4924,0
DA:4930,0
DA:4931,0
DA:4935,0
DA:4939,0
DA:4940,0
DA:4941,0
DA:4942,0
DA:4945,0
DA:4949,1
DA:4953,0
DA:4955,1
DA:4959,1
DA:4960,1
DA:4961,1
DA:4962,0
DA:4963,0
DA:4964,0
DA:4971,1
DA:4972,1
DA:4975,1
DA:4977,1
DA:4979,1
DA:4983,1
DA:4984,2
DA:4985,1
DA:4990,1
DA:4991,1
DA:5005,1
DA:5006,1
DA:5007,1
DA:5011,0
DA:5012,0
DA:5013,0
LF:1685
LH:576
end_of_record
TN:
SF:/usr/include/c++/4.8.2/bits/basic_ios.h
FN:46,_ZSt13__check_facetISt5ctypeIcEERKT_PS3_
FNDA:0,_ZSt13__check_facetISt5ctypeIcEERKT_PS3_
FNF:1
FNH:0
DA:46,0
DA:48,0
DA:49,0
DA:50,0
LF:4
LH:0
end_of_record
SF:/usr/include/c++/4.8.2/bits/char_traits.h
FN:258,_ZNSt11char_traitsIcE6lengthEPKc
FNDA:0,_ZNSt11char_traitsIcE6lengthEPKc
FNF:1
FNH:0
DA:258,0
DA:259,0
LF:2
LH:0
end_of_record
SF:/usr/include/c++/4.8.2/bits/ios_base.h
FN:157,_ZStorSt12_Ios_IostateS_
FNDA:0,_ZStorSt12_Ios_IostateS_
FNF:1
FNH:0
DA:157,0
DA:158,0
LF:2
LH:0
end_of_record
SF:/usr/include/c++/4.8.2/bits/locale_facets.h
FN:865,_ZNKSt5ctypeIcE5widenEc
FNDA:0,_ZNKSt5ctypeIcE5widenEc
FNF:1
FNH:0
DA:865,0
DA:867,0
DA:868,0
DA:869,0
DA:870,0
LF:5
LH:0
end_of_record
SF:/usr/include/c++/4.8.2/iostream
DA:74,1
LF:1
LH:1
end_of_record
SF:/home/vagrant/project/cleancode/201610/DupDetector/src/main.cpp
FN:4,_Z7main_utiPPc
FN:13,_Z41__static_initialization_and_destruction_0ii
FN:13,_GLOBAL__sub_I__Z7main_utiPPc
FNDA:0,_Z7main_utiPPc
FNDA:1,_GLOBAL__sub_I__Z7main_utiPPc
FNDA:1,_Z41__static_initialization_and_destruction_0ii
FNF:3
FNH:2
DA:4,0
DA:11,0
DA:12,0
DA:13,3
LF:4
LH:1
end_of_record
TN:
SF:/usr/include/c++/4.8.2/bits/allocator.h
FN:133,_ZSteqIcEbRKSaIT_ES3_
FNDA:0,_ZSteqIcEbRKSaIT_ES3_
FNF:1
FNH:0
DA:133,0
DA:134,0
LF:2
LH:0
end_of_record
SF:/usr/include/c++/4.8.2/bits/basic_string.h
FN:272,_ZNSs12_Alloc_hiderD2Ev
FN:1721,_ZNSs16_S_construct_auxIPcEES0_T_S1_RKSaIcESt12__false_type
FN:1743,_ZNSs12_S_constructIPcEES0_T_S1_RKSaIcE
FNDA:0,_ZNSs12_Alloc_hiderD2Ev
FNDA:0,_ZNSs16_S_construct_auxIPcEES0_T_S1_RKSaIcESt12__false_type
FNDA:0,_ZNSs12_S_constructIPcEES0_T_S1_RKSaIcE
FNF:3
FNH:0
DA:272,0
DA:1721,0
DA:1725,0
DA:1743,0
DA:1746,0
LF:5
LH:0
end_of_record
SF:/usr/include/c++/4.8.2/bits/basic_string.tcc
FN:123,_ZNSs12_S_constructIPcEES0_T_S1_RKSaIcESt20forward_iterator_tag
FN:227,_ZNSsC2IPcEET_S1_RKSaIcE
FNDA:0,_ZNSs12_S_constructIPcEES0_T_S1_RKSaIcESt20forward_iterator_tag
FNDA:0,_ZNSsC2IPcEET_S1_RKSaIcE
FNF:2
FNH:0
DA:123,0
DA:128,0
DA:129,0
DA:132,0
DA:133,0
DA:136,0
DA:138,0
DA:140,0
DA:141,0
DA:143,0
DA:144,0
DA:146,0
DA:147,0
DA:227,0
DA:229,0
DA:230,0
LF:16
LH:0
end_of_record
SF:/usr/include/c++/4.8.2/bits/char_traits.h
FN:242,_ZNSt11char_traitsIcE6assignERcRKc
FN:270,_ZNSt11char_traitsIcE4copyEPcPKcm
FNDA:0,_ZNSt11char_traitsIcE6assignERcRKc
FNDA:0,_ZNSt11char_traitsIcE4copyEPcPKcm
FNF:2
FNH:0
DA:242,0
DA:243,0
DA:270,0
DA:271,0
LF:4
LH:0
end_of_record
SF:/usr/include/c++/4.8.2/bits/ios_base.h
FN:119,_ZStorSt13_Ios_OpenmodeS_
FNDA:42,_ZStorSt13_Ios_OpenmodeS_
FNF:1
FNH:1
DA:119,42
DA:120,42
LF:2
LH:2
end_of_record
SF:/usr/include/c++/4.8.2/bits/stl_iterator_base_funcs.h
FN:90,_ZSt10__distanceIPcENSt15iterator_traitsIT_E15difference_typeES2_S2_St26random_access_iterator_tag
FN:114,_ZSt8distanceIPcENSt15iterator_traitsIT_E15difference_typeES2_S2_
FNDA:0,_ZSt10__distanceIPcENSt15iterator_traitsIT_E15difference_typeES2_S2_St26random_access_iterator_tag
FNDA:0,_ZSt8distanceIPcENSt15iterator_traitsIT_E15difference_typeES2_S2_
FNF:2
FNH:0
DA:90,0
DA:96,0
DA:114,0
DA:118,0
LF:4
LH:0
end_of_record
SF:/usr/include/c++/4.8.2/bits/stl_iterator_base_types.h
FN:201,_ZSt19__iterator_categoryIPcENSt15iterator_traitsIT_E17iterator_categoryERKS2_
FNDA:0,_ZSt19__iterator_categoryIPcENSt15iterator_traitsIT_E17iterator_categoryERKS2_
FNF:1
FNH:0
DA:201,0
DA:202,0
LF:2
LH:0
end_of_record
SF:/usr/include/c++/4.8.2/ext/atomicity.h
FN:48,_ZN9__gnu_cxxL18__exchange_and_addEPVii
FN:65,_ZN9__gnu_cxxL25__exchange_and_add_singleEPii
FN:78,_ZN9__gnu_cxxL27__exchange_and_add_dispatchEPii
FNDA:0,_ZN9__gnu_cxxL18__exchange_and_addEPVii
FNDA:0,_ZN9__gnu_cxxL25__exchange_and_add_singleEPii
FNDA:0,_ZN9__gnu_cxxL27__exchange_and_add_dispatchEPii
FNF:3
FNH:0
DA:48,0
DA:49,0
DA:65,0
DA:67,0
DA:68,0
DA:69,0
DA:78,0
DA:81,0
DA:82,0
DA:84,0
LF:10
LH:0
end_of_record
SF:/usr/include/c++/4.8.2/ext/new_allocator.h
FN:79,_ZN9__gnu_cxx13new_allocatorIcEC2Ev
FN:81,_ZN9__gnu_cxx13new_allocatorIcEC2ERKS1_
FN:86,_ZN9__gnu_cxx13new_allocatorIcED2Ev
FNDA:0,_ZN9__gnu_cxx13new_allocatorIcEC2Ev
FNDA:0,_ZN9__gnu_cxx13new_allocatorIcEC2ERKS1_
FNDA:0,_ZN9__gnu_cxx13new_allocatorIcED2Ev
FNF:3
FNH:0
DA:79,0
DA:81,0
DA:86,0
LF:3
LH:0
end_of_record
SF:/usr/include/c++/4.8.2/ext/type_traits.h
FN:150,_ZN9__gnu_cxx17__is_null_pointerIcEEbPT_
FNDA:0,_ZN9__gnu_cxx17__is_null_pointerIcEEbPT_
FNF:1
FNH:0
DA:150,0
DA:151,0
LF:2
LH:0
end_of_record
SF:/usr/include/c++/4.8.2/iostream
DA:74,1
LF:1
LH:1
end_of_record
SF:/usr/include/c++/4.8.2/sstream
FN:64,_ZNSt15basic_stringbufIcSt11char_traitsIcESaIcEED0Ev
FN:64,_ZNSt15basic_stringbufIcSt11char_traitsIcESaIcEED2Ev
FNDA:0,_ZNSt15basic_stringbufIcSt11char_traitsIcESaIcEED0Ev
FNDA:0,_ZNSt15basic_stringbufIcSt11char_traitsIcESaIcEED2Ev
FNF:2
FNH:0
DA:64,0
LF:1
LH:0
end_of_record
SF:/usr/include/c++/4.8.2/x86_64-redhat-linux/bits/gthr-default.h
FN:247,_ZL18__gthread_active_pv
FNDA:0,_ZL18__gthread_active_pv
FNF:1
FNH:0
DA:247,0
DA:251,0
LF:2
LH:0
end_of_record
SF:/home/vagrant/project/cleancode/201610/DupDetector/ut/cases/CloneTest.cpp
FN:9,_ZN20CloneDetectorTestingC2Ev
FN:12,_ZN20CloneDetectorTesting5SetUpEv
FN:16,_ZN20CloneDetectorTesting8TearDownEv
FN:20,_ZN20CloneDetectorTestingD0Ev
FN:20,_ZN20CloneDetectorTestingD2Ev
FN:24,_ZN33CloneDetectorTesting_listDir_TestD0Ev
FN:24,_ZN33CloneDetectorTesting_listDir_Test8TestBodyEv
FN:24,_ZN33CloneDetectorTesting_listDir_TestD2Ev
FN:24,_ZN33CloneDetectorTesting_listDir_TestC2Ev
FN:28,_Z41__static_initialization_and_destruction_0ii
FN:28,_GLOBAL__sub_I__ZN33CloneDetectorTesting_listDir_Test10test_info_E
FNDA:1,_ZN20CloneDetectorTestingC2Ev
FNDA:1,_ZN20CloneDetectorTesting5SetUpEv
FNDA:1,_ZN20CloneDetectorTesting8TearDownEv
FNDA:0,_ZN20CloneDetectorTestingD0Ev
FNDA:1,_ZN20CloneDetectorTestingD2Ev
FNDA:1,_ZN33CloneDetectorTesting_listDir_TestD0Ev
FNDA:1,_ZN33CloneDetectorTesting_listDir_TestD2Ev
FNDA:1,_ZN33CloneDetectorTesting_listDir_Test8TestBodyEv
FNDA:1,_ZN33CloneDetectorTesting_listDir_TestC2Ev
FNDA:1,_GLOBAL__sub_I__ZN33CloneDetectorTesting_listDir_Test10test_info_E
FNDA:1,_Z41__static_initialization_and_destruction_0ii
FNF:11
FNH:10
DA:9,1
DA:12,1
DA:14,1
DA:16,1
DA:18,1
DA:20,1
DA:24,5
DA:26,1
DA:27,1
DA:28,4
LF:10
LH:10
end_of_record
SF:/home/vagrant/project/cleancode/201610/DupDetector/ut/tool/ut_framework/gmock/gmock/gtest/include/gtest/gtest-message.h
FN:85,_ZN7testing7MessageD2Ev
FNDA:42,_ZN7testing7MessageD2Ev
FNF:1
FNH:1
DA:85,42
LF:1
LH:1
end_of_record
SF:/home/vagrant/project/cleancode/201610/DupDetector/ut/tool/ut_framework/gmock/gmock/gtest/include/gtest/gtest-printers.h
FN:218,_ZN16testing_internal26DefaultPrintNonContainerToIiEEvRKT_PSo
FN:335,_ZN7testing8internal14DefaultPrintToIiEEvcNS0_13bool_constantILb0EEERKT_PSo
FN:353,_ZN7testing8internal7PrintToIiEEvRKT_PSo
FN:591,_ZN7testing8internal16UniversalPrinterIiE5PrintERKiPSo
FN:683,_ZN7testing8internal21UniversalTersePrinterIiE5PrintERKiPSo
FN:752,_ZN7testing8internal14UniversalPrintIiEEvRKT_PSo
FN:847,_ZN7testing13PrintToStringIiEESsRKT_
FNDA:0,_ZN16testing_internal26DefaultPrintNonContainerToIiEEvRKT_PSo
FNDA:0,_ZN7testing8internal14DefaultPrintToIiEEvcNS0_13bool_constantILb0EEERKT_PSo
FNDA:0,_ZN7testing8internal7PrintToIiEEvRKT_PSo
FNDA:0,_ZN7testing8internal16UniversalPrinterIiE5PrintERKiPSo
FNDA:0,_ZN7testing8internal21UniversalTersePrinterIiE5PrintERKiPSo
FNDA:0,_ZN7testing8internal14UniversalPrintIiEEvRKT_PSo
FNDA:0,_ZN7testing13PrintToStringIiEESsRKT_
FNF:7
FNH:0
DA:218,0
DA:245,0
DA:246,0
DA:335,0
DA:338,0
DA:339,0
DA:353,0
DA:376,0
DA:377,0
DA:591,0
DA:600,0
DA:601,0
DA:683,0
DA:684,0
DA:685,0
DA:752,0
DA:756,0
DA:757,0
DA:847,0
DA:848,0
DA:849,0
DA:850,0
LF:22
LH:0
end_of_record
SF:/home/vagrant/project/cleancode/201610/DupDetector/ut/tool/ut_framework/gmock/gmock/gtest/include/gtest/gtest.h
FN:256,_ZN7testing15AssertionResultD2Ev
FN:265,_ZNK7testing15AssertionResultcvbEv
FN:274,_ZNK7testing15AssertionResult7messageEv
FN:279,_ZNK7testing15AssertionResult15failure_messageEv
FN:365,_ZN7testing4Test13SetUpTestCaseEv
FN:373,_ZN7testing4Test16TearDownTestCaseEv
FN:451,_ZN7testing4Test5SetupEv
FN:1357,_ZN7testing8internal19FormatForComparisonIiiE6FormatERKi
FN:1431,_ZN7testing8internal33FormatForComparisonFailureMessageIiiEESsRKT_RKT0_
FN:1438,_ZN7testing8internal11CmpHelperEQIiiEENS_15AssertionResultEPKcS4_RKT_RKT0_
FN:1480,_ZN7testing8internal8EqHelperILb0EE7CompareIiiEENS_15AssertionResultEPKcS6_RKT_RKT0_
FNDA:1,_ZN7testing15AssertionResultD2Ev
FNDA:1,_ZNK7testing15AssertionResultcvbEv
FNDA:0,_ZNK7testing15AssertionResult7messageEv
FNDA:0,_ZNK7testing15AssertionResult15failure_messageEv
FNDA:1,_ZN7testing4Test13SetUpTestCaseEv
FNDA:1,_ZN7testing4Test16TearDownTestCaseEv
FNDA:0,_ZN7testing4Test5SetupEv
FNDA:0,_ZN7testing8internal19FormatForComparisonIiiE6FormatERKi
FNDA:0,_ZN7testing8internal33FormatForComparisonFailureMessageIiiEESsRKT_RKT0_
FNDA:1,_ZN7testing8internal11CmpHelperEQIiiEENS_15AssertionResultEPKcS4_RKT_RKT0_
FNDA:1,_ZN7testing8internal8EqHelperILb0EE7CompareIiiEENS_15AssertionResultEPKcS6_RKT_RKT0_
FNF:11
FNH:6
DA:256,1
DA:265,1
DA:274,0
DA:275,0
DA:279,0
DA:365,1
DA:373,1
DA:451,0
DA:1357,0
DA:1358,0
DA:1431,0
DA:1433,0
DA:1438,1
DA:1448,1
DA:1449,1
DA:1460,0
DA:1480,1
DA:1485,1
LF:18
LH:9
end_of_record
SF:/home/vagrant/project/cleancode/201610/DupDetector/ut/tool/ut_framework/gmock/gmock/gtest/include/gtest/internal/gtest-internal.h
FN:417,_ZN7testing8internal9GetTypeIdI20CloneDetectorTestingEEPKvv
FN:436,_ZN7testing8internal15TestFactoryBaseD0Ev
FN:436,_ZN7testing8internal15TestFactoryBaseD2Ev
FN:443,_ZN7testing8internal15TestFactoryBaseC2Ev
FN:452,_ZN7testing8internal15TestFactoryImplI33CloneDetectorTesting_listDir_TestEC2Ev
FN:452,_ZN7testing8internal15TestFactoryImplI33CloneDetectorTesting_listDir_TestED2Ev
FN:452,_ZN7testing8internal15TestFactoryImplI33CloneDetectorTesting_listDir_TestED0Ev
FN:454,_ZN7testing8internal15TestFactoryImplI33CloneDetectorTesting_listDir_TestE10CreateTestEv
FN:869,_ZN7testing8internal15IsContainerTestIiEEcl
FNDA:1,_ZN7testing8internal9GetTypeIdI20CloneDetectorTestingEEPKvv
FNDA:0,_ZN7testing8internal15TestFactoryBaseD0Ev
FNDA:1,_ZN7testing8internal15TestFactoryBaseD2Ev
FNDA:1,_ZN7testing8internal15TestFactoryBaseC2Ev
FNDA:1,_ZN7testing8internal15TestFactoryImplI33CloneDetectorTesting_listDir_TestED0Ev
FNDA:1,_ZN7testing8internal15TestFactoryImplI33CloneDetectorTesting_listDir_TestED2Ev
FNDA:1,_ZN7testing8internal15TestFactoryImplI33CloneDetectorTesting_listDir_TestEC2Ev
FNDA:1,_ZN7testing8internal15TestFactoryImplI33CloneDetectorTesting_listDir_TestE10CreateTestEv
FNDA:0,_ZN7testing8internal15IsContainerTestIiEEcl
FNF:9
FNH:7
DA:417,1
DA:422,1
DA:436,1
DA:443,1
DA:452,3
DA:454,1
DA:869,0
LF:7
LH:6
end_of_record
SF:/home/vagrant/project/cleancode/201610/DupDetector/ut/tool/ut_framework/gmock/gmock/gtest/include/gtest/internal/gtest-port.h
FN:895,_ZN7testing8internal10scoped_ptrISsED2Ev
FN:895,_ZN7testing8internal10scoped_ptrISt18basic_stringstreamIcSt11char_traitsIcESaIcEEED2Ev
FN:898,_ZNK7testing8internal10scoped_ptrISsEptEv
FN:899,_ZNK7testing8internal10scoped_ptrISsE3getEv
FN:907,_ZN7testing8internal10scoped_ptrISsE5resetEPSs
FN:907,_ZN7testing8internal10scoped_ptrISt18basic_stringstreamIcSt11char_traitsIcESaIcEEE5resetEPS6_
FNDA:1,_ZN7testing8internal10scoped_ptrISsED2Ev
FNDA:42,_ZN7testing8internal10scoped_ptrISt18basic_stringstreamIcSt11char_traitsIcESaIcEEED2Ev
FNDA:0,_ZNK7testing8internal10scoped_ptrISsEptEv
FNDA:0,_ZNK7testing8internal10scoped_ptrISsE3getEv
FNDA:42,_ZN7testing8internal10scoped_ptrISt18basic_stringstreamIcSt11char_traitsIcESaIcEEE5resetEPS6_
FNDA:1,_ZN7testing8internal10scoped_ptrISsE5resetEPSs
FNF:6
FNH:4
DA:895,43
DA:898,0
DA:899,0
DA:907,43
DA:908,43
DA:909,42
DA:910,42
DA:912,42
DA:914,43
LF:9
LH:7
end_of_record
